
F723ZET_Optronik_RTOS.elf:     file format elf32-littlearm

Sections:
Idx Name          Size      VMA       LMA       File off  Algn
  0 .isr_vector   000001e0  08000000  08000000  00010000  2**0
                  CONTENTS, ALLOC, LOAD, READONLY, DATA
  1 .text         0000bcd8  080001e0  080001e0  000101e0  2**4
                  CONTENTS, ALLOC, LOAD, READONLY, CODE
  2 .rodata       000009ec  0800beb8  0800beb8  0001beb8  2**3
                  CONTENTS, ALLOC, LOAD, READONLY, DATA
  3 .ARM.extab    00000000  0800c8a4  0800c8a4  00020200  2**0
                  CONTENTS
  4 .ARM          00000008  0800c8a4  0800c8a4  0001c8a4  2**2
                  CONTENTS, ALLOC, LOAD, READONLY, DATA
  5 .preinit_array 00000000  0800c8ac  0800c8ac  00020200  2**0
                  CONTENTS, ALLOC, LOAD, DATA
  6 .init_array   00000004  0800c8ac  0800c8ac  0001c8ac  2**2
                  CONTENTS, ALLOC, LOAD, DATA
  7 .fini_array   00000004  0800c8b0  0800c8b0  0001c8b0  2**2
                  CONTENTS, ALLOC, LOAD, DATA
  8 .data         00000200  20000000  0800c8b4  00020000  2**2
                  CONTENTS, ALLOC, LOAD, DATA
  9 .bss          000106ac  20000200  0800cab4  00020200  2**3
                  ALLOC
 10 ._user_heap_stack 00000c04  200108ac  0800cab4  000208ac  2**0
                  ALLOC
 11 .ARM.attributes 00000030  00000000  00000000  00020200  2**0
                  CONTENTS, READONLY
 12 .comment      00000050  00000000  00000000  00020230  2**0
                  CONTENTS, READONLY
 13 .debug_frame  0000120c  00000000  00000000  00020280  2**2
                  CONTENTS, READONLY, DEBUGGING, OCTETS

Disassembly of section .text:

080001e0 <__do_global_dtors_aux>:
 80001e0:	b510      	push	{r4, lr}
 80001e2:	4c05      	ldr	r4, [pc, #20]	; (80001f8 <__do_global_dtors_aux+0x18>)
 80001e4:	7823      	ldrb	r3, [r4, #0]
 80001e6:	b933      	cbnz	r3, 80001f6 <__do_global_dtors_aux+0x16>
 80001e8:	4b04      	ldr	r3, [pc, #16]	; (80001fc <__do_global_dtors_aux+0x1c>)
 80001ea:	b113      	cbz	r3, 80001f2 <__do_global_dtors_aux+0x12>
 80001ec:	4804      	ldr	r0, [pc, #16]	; (8000200 <__do_global_dtors_aux+0x20>)
 80001ee:	f3af 8000 	nop.w
 80001f2:	2301      	movs	r3, #1
 80001f4:	7023      	strb	r3, [r4, #0]
 80001f6:	bd10      	pop	{r4, pc}
 80001f8:	20000200 	.word	0x20000200
 80001fc:	00000000 	.word	0x00000000
 8000200:	0800bea0 	.word	0x0800bea0

08000204 <frame_dummy>:
 8000204:	b508      	push	{r3, lr}
 8000206:	4b03      	ldr	r3, [pc, #12]	; (8000214 <frame_dummy+0x10>)
 8000208:	b11b      	cbz	r3, 8000212 <frame_dummy+0xe>
 800020a:	4903      	ldr	r1, [pc, #12]	; (8000218 <frame_dummy+0x14>)
 800020c:	4803      	ldr	r0, [pc, #12]	; (800021c <frame_dummy+0x18>)
 800020e:	f3af 8000 	nop.w
 8000212:	bd08      	pop	{r3, pc}
 8000214:	00000000 	.word	0x00000000
 8000218:	20000204 	.word	0x20000204
 800021c:	0800bea0 	.word	0x0800bea0

08000220 <strlen>:
 8000220:	4603      	mov	r3, r0
 8000222:	f813 2b01 	ldrb.w	r2, [r3], #1
 8000226:	2a00      	cmp	r2, #0
 8000228:	d1fb      	bne.n	8000222 <strlen+0x2>
 800022a:	1a18      	subs	r0, r3, r0
 800022c:	3801      	subs	r0, #1
 800022e:	4770      	bx	lr

08000230 <memchr>:
 8000230:	f001 01ff 	and.w	r1, r1, #255	; 0xff
 8000234:	2a10      	cmp	r2, #16
 8000236:	db2b      	blt.n	8000290 <memchr+0x60>
 8000238:	f010 0f07 	tst.w	r0, #7
 800023c:	d008      	beq.n	8000250 <memchr+0x20>
 800023e:	f810 3b01 	ldrb.w	r3, [r0], #1
 8000242:	3a01      	subs	r2, #1
 8000244:	428b      	cmp	r3, r1
 8000246:	d02d      	beq.n	80002a4 <memchr+0x74>
 8000248:	f010 0f07 	tst.w	r0, #7
 800024c:	b342      	cbz	r2, 80002a0 <memchr+0x70>
 800024e:	d1f6      	bne.n	800023e <memchr+0xe>
 8000250:	b4f0      	push	{r4, r5, r6, r7}
 8000252:	ea41 2101 	orr.w	r1, r1, r1, lsl #8
 8000256:	ea41 4101 	orr.w	r1, r1, r1, lsl #16
 800025a:	f022 0407 	bic.w	r4, r2, #7
 800025e:	f07f 0700 	mvns.w	r7, #0
 8000262:	2300      	movs	r3, #0
 8000264:	e8f0 5602 	ldrd	r5, r6, [r0], #8
 8000268:	3c08      	subs	r4, #8
 800026a:	ea85 0501 	eor.w	r5, r5, r1
 800026e:	ea86 0601 	eor.w	r6, r6, r1
 8000272:	fa85 f547 	uadd8	r5, r5, r7
 8000276:	faa3 f587 	sel	r5, r3, r7
 800027a:	fa86 f647 	uadd8	r6, r6, r7
 800027e:	faa5 f687 	sel	r6, r5, r7
 8000282:	b98e      	cbnz	r6, 80002a8 <memchr+0x78>
 8000284:	d1ee      	bne.n	8000264 <memchr+0x34>
 8000286:	bcf0      	pop	{r4, r5, r6, r7}
 8000288:	f001 01ff 	and.w	r1, r1, #255	; 0xff
 800028c:	f002 0207 	and.w	r2, r2, #7
 8000290:	b132      	cbz	r2, 80002a0 <memchr+0x70>
 8000292:	f810 3b01 	ldrb.w	r3, [r0], #1
 8000296:	3a01      	subs	r2, #1
 8000298:	ea83 0301 	eor.w	r3, r3, r1
 800029c:	b113      	cbz	r3, 80002a4 <memchr+0x74>
 800029e:	d1f8      	bne.n	8000292 <memchr+0x62>
 80002a0:	2000      	movs	r0, #0
 80002a2:	4770      	bx	lr
 80002a4:	3801      	subs	r0, #1
 80002a6:	4770      	bx	lr
 80002a8:	2d00      	cmp	r5, #0
 80002aa:	bf06      	itte	eq
 80002ac:	4635      	moveq	r5, r6
 80002ae:	3803      	subeq	r0, #3
 80002b0:	3807      	subne	r0, #7
 80002b2:	f015 0f01 	tst.w	r5, #1
 80002b6:	d107      	bne.n	80002c8 <memchr+0x98>
 80002b8:	3001      	adds	r0, #1
 80002ba:	f415 7f80 	tst.w	r5, #256	; 0x100
 80002be:	bf02      	ittt	eq
 80002c0:	3001      	addeq	r0, #1
 80002c2:	f415 3fc0 	tsteq.w	r5, #98304	; 0x18000
 80002c6:	3001      	addeq	r0, #1
 80002c8:	bcf0      	pop	{r4, r5, r6, r7}
 80002ca:	3801      	subs	r0, #1
 80002cc:	4770      	bx	lr
 80002ce:	bf00      	nop

080002d0 <__aeabi_drsub>:
 80002d0:	f081 4100 	eor.w	r1, r1, #2147483648	; 0x80000000
 80002d4:	e002      	b.n	80002dc <__adddf3>
 80002d6:	bf00      	nop

080002d8 <__aeabi_dsub>:
 80002d8:	f083 4300 	eor.w	r3, r3, #2147483648	; 0x80000000

080002dc <__adddf3>:
 80002dc:	b530      	push	{r4, r5, lr}
 80002de:	ea4f 0441 	mov.w	r4, r1, lsl #1
 80002e2:	ea4f 0543 	mov.w	r5, r3, lsl #1
 80002e6:	ea94 0f05 	teq	r4, r5
 80002ea:	bf08      	it	eq
 80002ec:	ea90 0f02 	teqeq	r0, r2
 80002f0:	bf1f      	itttt	ne
 80002f2:	ea54 0c00 	orrsne.w	ip, r4, r0
 80002f6:	ea55 0c02 	orrsne.w	ip, r5, r2
 80002fa:	ea7f 5c64 	mvnsne.w	ip, r4, asr #21
 80002fe:	ea7f 5c65 	mvnsne.w	ip, r5, asr #21
 8000302:	f000 80e2 	beq.w	80004ca <__adddf3+0x1ee>
 8000306:	ea4f 5454 	mov.w	r4, r4, lsr #21
 800030a:	ebd4 5555 	rsbs	r5, r4, r5, lsr #21
 800030e:	bfb8      	it	lt
 8000310:	426d      	neglt	r5, r5
 8000312:	dd0c      	ble.n	800032e <__adddf3+0x52>
 8000314:	442c      	add	r4, r5
 8000316:	ea80 0202 	eor.w	r2, r0, r2
 800031a:	ea81 0303 	eor.w	r3, r1, r3
 800031e:	ea82 0000 	eor.w	r0, r2, r0
 8000322:	ea83 0101 	eor.w	r1, r3, r1
 8000326:	ea80 0202 	eor.w	r2, r0, r2
 800032a:	ea81 0303 	eor.w	r3, r1, r3
 800032e:	2d36      	cmp	r5, #54	; 0x36
 8000330:	bf88      	it	hi
 8000332:	bd30      	pophi	{r4, r5, pc}
 8000334:	f011 4f00 	tst.w	r1, #2147483648	; 0x80000000
 8000338:	ea4f 3101 	mov.w	r1, r1, lsl #12
 800033c:	f44f 1c80 	mov.w	ip, #1048576	; 0x100000
 8000340:	ea4c 3111 	orr.w	r1, ip, r1, lsr #12
 8000344:	d002      	beq.n	800034c <__adddf3+0x70>
 8000346:	4240      	negs	r0, r0
 8000348:	eb61 0141 	sbc.w	r1, r1, r1, lsl #1
 800034c:	f013 4f00 	tst.w	r3, #2147483648	; 0x80000000
 8000350:	ea4f 3303 	mov.w	r3, r3, lsl #12
 8000354:	ea4c 3313 	orr.w	r3, ip, r3, lsr #12
 8000358:	d002      	beq.n	8000360 <__adddf3+0x84>
 800035a:	4252      	negs	r2, r2
 800035c:	eb63 0343 	sbc.w	r3, r3, r3, lsl #1
 8000360:	ea94 0f05 	teq	r4, r5
 8000364:	f000 80a7 	beq.w	80004b6 <__adddf3+0x1da>
 8000368:	f1a4 0401 	sub.w	r4, r4, #1
 800036c:	f1d5 0e20 	rsbs	lr, r5, #32
 8000370:	db0d      	blt.n	800038e <__adddf3+0xb2>
 8000372:	fa02 fc0e 	lsl.w	ip, r2, lr
 8000376:	fa22 f205 	lsr.w	r2, r2, r5
 800037a:	1880      	adds	r0, r0, r2
 800037c:	f141 0100 	adc.w	r1, r1, #0
 8000380:	fa03 f20e 	lsl.w	r2, r3, lr
 8000384:	1880      	adds	r0, r0, r2
 8000386:	fa43 f305 	asr.w	r3, r3, r5
 800038a:	4159      	adcs	r1, r3
 800038c:	e00e      	b.n	80003ac <__adddf3+0xd0>
 800038e:	f1a5 0520 	sub.w	r5, r5, #32
 8000392:	f10e 0e20 	add.w	lr, lr, #32
 8000396:	2a01      	cmp	r2, #1
 8000398:	fa03 fc0e 	lsl.w	ip, r3, lr
 800039c:	bf28      	it	cs
 800039e:	f04c 0c02 	orrcs.w	ip, ip, #2
 80003a2:	fa43 f305 	asr.w	r3, r3, r5
 80003a6:	18c0      	adds	r0, r0, r3
 80003a8:	eb51 71e3 	adcs.w	r1, r1, r3, asr #31
 80003ac:	f001 4500 	and.w	r5, r1, #2147483648	; 0x80000000
 80003b0:	d507      	bpl.n	80003c2 <__adddf3+0xe6>
 80003b2:	f04f 0e00 	mov.w	lr, #0
 80003b6:	f1dc 0c00 	rsbs	ip, ip, #0
 80003ba:	eb7e 0000 	sbcs.w	r0, lr, r0
 80003be:	eb6e 0101 	sbc.w	r1, lr, r1
 80003c2:	f5b1 1f80 	cmp.w	r1, #1048576	; 0x100000
 80003c6:	d31b      	bcc.n	8000400 <__adddf3+0x124>
 80003c8:	f5b1 1f00 	cmp.w	r1, #2097152	; 0x200000
 80003cc:	d30c      	bcc.n	80003e8 <__adddf3+0x10c>
 80003ce:	0849      	lsrs	r1, r1, #1
 80003d0:	ea5f 0030 	movs.w	r0, r0, rrx
 80003d4:	ea4f 0c3c 	mov.w	ip, ip, rrx
 80003d8:	f104 0401 	add.w	r4, r4, #1
 80003dc:	ea4f 5244 	mov.w	r2, r4, lsl #21
 80003e0:	f512 0f80 	cmn.w	r2, #4194304	; 0x400000
 80003e4:	f080 809a 	bcs.w	800051c <__adddf3+0x240>
 80003e8:	f1bc 4f00 	cmp.w	ip, #2147483648	; 0x80000000
 80003ec:	bf08      	it	eq
 80003ee:	ea5f 0c50 	movseq.w	ip, r0, lsr #1
 80003f2:	f150 0000 	adcs.w	r0, r0, #0
 80003f6:	eb41 5104 	adc.w	r1, r1, r4, lsl #20
 80003fa:	ea41 0105 	orr.w	r1, r1, r5
 80003fe:	bd30      	pop	{r4, r5, pc}
 8000400:	ea5f 0c4c 	movs.w	ip, ip, lsl #1
 8000404:	4140      	adcs	r0, r0
 8000406:	eb41 0101 	adc.w	r1, r1, r1
 800040a:	3c01      	subs	r4, #1
 800040c:	bf28      	it	cs
 800040e:	f5b1 1f80 	cmpcs.w	r1, #1048576	; 0x100000
 8000412:	d2e9      	bcs.n	80003e8 <__adddf3+0x10c>
 8000414:	f091 0f00 	teq	r1, #0
 8000418:	bf04      	itt	eq
 800041a:	4601      	moveq	r1, r0
 800041c:	2000      	moveq	r0, #0
 800041e:	fab1 f381 	clz	r3, r1
 8000422:	bf08      	it	eq
 8000424:	3320      	addeq	r3, #32
 8000426:	f1a3 030b 	sub.w	r3, r3, #11
 800042a:	f1b3 0220 	subs.w	r2, r3, #32
 800042e:	da0c      	bge.n	800044a <__adddf3+0x16e>
 8000430:	320c      	adds	r2, #12
 8000432:	dd08      	ble.n	8000446 <__adddf3+0x16a>
 8000434:	f102 0c14 	add.w	ip, r2, #20
 8000438:	f1c2 020c 	rsb	r2, r2, #12
 800043c:	fa01 f00c 	lsl.w	r0, r1, ip
 8000440:	fa21 f102 	lsr.w	r1, r1, r2
 8000444:	e00c      	b.n	8000460 <__adddf3+0x184>
 8000446:	f102 0214 	add.w	r2, r2, #20
 800044a:	bfd8      	it	le
 800044c:	f1c2 0c20 	rsble	ip, r2, #32
 8000450:	fa01 f102 	lsl.w	r1, r1, r2
 8000454:	fa20 fc0c 	lsr.w	ip, r0, ip
 8000458:	bfdc      	itt	le
 800045a:	ea41 010c 	orrle.w	r1, r1, ip
 800045e:	4090      	lslle	r0, r2
 8000460:	1ae4      	subs	r4, r4, r3
 8000462:	bfa2      	ittt	ge
 8000464:	eb01 5104 	addge.w	r1, r1, r4, lsl #20
 8000468:	4329      	orrge	r1, r5
 800046a:	bd30      	popge	{r4, r5, pc}
 800046c:	ea6f 0404 	mvn.w	r4, r4
 8000470:	3c1f      	subs	r4, #31
 8000472:	da1c      	bge.n	80004ae <__adddf3+0x1d2>
 8000474:	340c      	adds	r4, #12
 8000476:	dc0e      	bgt.n	8000496 <__adddf3+0x1ba>
 8000478:	f104 0414 	add.w	r4, r4, #20
 800047c:	f1c4 0220 	rsb	r2, r4, #32
 8000480:	fa20 f004 	lsr.w	r0, r0, r4
 8000484:	fa01 f302 	lsl.w	r3, r1, r2
 8000488:	ea40 0003 	orr.w	r0, r0, r3
 800048c:	fa21 f304 	lsr.w	r3, r1, r4
 8000490:	ea45 0103 	orr.w	r1, r5, r3
 8000494:	bd30      	pop	{r4, r5, pc}
 8000496:	f1c4 040c 	rsb	r4, r4, #12
 800049a:	f1c4 0220 	rsb	r2, r4, #32
 800049e:	fa20 f002 	lsr.w	r0, r0, r2
 80004a2:	fa01 f304 	lsl.w	r3, r1, r4
 80004a6:	ea40 0003 	orr.w	r0, r0, r3
 80004aa:	4629      	mov	r1, r5
 80004ac:	bd30      	pop	{r4, r5, pc}
 80004ae:	fa21 f004 	lsr.w	r0, r1, r4
 80004b2:	4629      	mov	r1, r5
 80004b4:	bd30      	pop	{r4, r5, pc}
 80004b6:	f094 0f00 	teq	r4, #0
 80004ba:	f483 1380 	eor.w	r3, r3, #1048576	; 0x100000
 80004be:	bf06      	itte	eq
 80004c0:	f481 1180 	eoreq.w	r1, r1, #1048576	; 0x100000
 80004c4:	3401      	addeq	r4, #1
 80004c6:	3d01      	subne	r5, #1
 80004c8:	e74e      	b.n	8000368 <__adddf3+0x8c>
 80004ca:	ea7f 5c64 	mvns.w	ip, r4, asr #21
 80004ce:	bf18      	it	ne
 80004d0:	ea7f 5c65 	mvnsne.w	ip, r5, asr #21
 80004d4:	d029      	beq.n	800052a <__adddf3+0x24e>
 80004d6:	ea94 0f05 	teq	r4, r5
 80004da:	bf08      	it	eq
 80004dc:	ea90 0f02 	teqeq	r0, r2
 80004e0:	d005      	beq.n	80004ee <__adddf3+0x212>
 80004e2:	ea54 0c00 	orrs.w	ip, r4, r0
 80004e6:	bf04      	itt	eq
 80004e8:	4619      	moveq	r1, r3
 80004ea:	4610      	moveq	r0, r2
 80004ec:	bd30      	pop	{r4, r5, pc}
 80004ee:	ea91 0f03 	teq	r1, r3
 80004f2:	bf1e      	ittt	ne
 80004f4:	2100      	movne	r1, #0
 80004f6:	2000      	movne	r0, #0
 80004f8:	bd30      	popne	{r4, r5, pc}
 80004fa:	ea5f 5c54 	movs.w	ip, r4, lsr #21
 80004fe:	d105      	bne.n	800050c <__adddf3+0x230>
 8000500:	0040      	lsls	r0, r0, #1
 8000502:	4149      	adcs	r1, r1
 8000504:	bf28      	it	cs
 8000506:	f041 4100 	orrcs.w	r1, r1, #2147483648	; 0x80000000
 800050a:	bd30      	pop	{r4, r5, pc}
 800050c:	f514 0480 	adds.w	r4, r4, #4194304	; 0x400000
 8000510:	bf3c      	itt	cc
 8000512:	f501 1180 	addcc.w	r1, r1, #1048576	; 0x100000
 8000516:	bd30      	popcc	{r4, r5, pc}
 8000518:	f001 4500 	and.w	r5, r1, #2147483648	; 0x80000000
 800051c:	f045 41fe 	orr.w	r1, r5, #2130706432	; 0x7f000000
 8000520:	f441 0170 	orr.w	r1, r1, #15728640	; 0xf00000
 8000524:	f04f 0000 	mov.w	r0, #0
 8000528:	bd30      	pop	{r4, r5, pc}
 800052a:	ea7f 5c64 	mvns.w	ip, r4, asr #21
 800052e:	bf1a      	itte	ne
 8000530:	4619      	movne	r1, r3
 8000532:	4610      	movne	r0, r2
 8000534:	ea7f 5c65 	mvnseq.w	ip, r5, asr #21
 8000538:	bf1c      	itt	ne
 800053a:	460b      	movne	r3, r1
 800053c:	4602      	movne	r2, r0
 800053e:	ea50 3401 	orrs.w	r4, r0, r1, lsl #12
 8000542:	bf06      	itte	eq
 8000544:	ea52 3503 	orrseq.w	r5, r2, r3, lsl #12
 8000548:	ea91 0f03 	teqeq	r1, r3
 800054c:	f441 2100 	orrne.w	r1, r1, #524288	; 0x80000
 8000550:	bd30      	pop	{r4, r5, pc}
 8000552:	bf00      	nop

08000554 <__aeabi_ui2d>:
 8000554:	f090 0f00 	teq	r0, #0
 8000558:	bf04      	itt	eq
 800055a:	2100      	moveq	r1, #0
 800055c:	4770      	bxeq	lr
 800055e:	b530      	push	{r4, r5, lr}
 8000560:	f44f 6480 	mov.w	r4, #1024	; 0x400
 8000564:	f104 0432 	add.w	r4, r4, #50	; 0x32
 8000568:	f04f 0500 	mov.w	r5, #0
 800056c:	f04f 0100 	mov.w	r1, #0
 8000570:	e750      	b.n	8000414 <__adddf3+0x138>
 8000572:	bf00      	nop

08000574 <__aeabi_i2d>:
 8000574:	f090 0f00 	teq	r0, #0
 8000578:	bf04      	itt	eq
 800057a:	2100      	moveq	r1, #0
 800057c:	4770      	bxeq	lr
 800057e:	b530      	push	{r4, r5, lr}
 8000580:	f44f 6480 	mov.w	r4, #1024	; 0x400
 8000584:	f104 0432 	add.w	r4, r4, #50	; 0x32
 8000588:	f010 4500 	ands.w	r5, r0, #2147483648	; 0x80000000
 800058c:	bf48      	it	mi
 800058e:	4240      	negmi	r0, r0
 8000590:	f04f 0100 	mov.w	r1, #0
 8000594:	e73e      	b.n	8000414 <__adddf3+0x138>
 8000596:	bf00      	nop

08000598 <__aeabi_f2d>:
 8000598:	0042      	lsls	r2, r0, #1
 800059a:	ea4f 01e2 	mov.w	r1, r2, asr #3
 800059e:	ea4f 0131 	mov.w	r1, r1, rrx
 80005a2:	ea4f 7002 	mov.w	r0, r2, lsl #28
 80005a6:	bf1f      	itttt	ne
 80005a8:	f012 437f 	andsne.w	r3, r2, #4278190080	; 0xff000000
 80005ac:	f093 4f7f 	teqne	r3, #4278190080	; 0xff000000
 80005b0:	f081 5160 	eorne.w	r1, r1, #939524096	; 0x38000000
 80005b4:	4770      	bxne	lr
 80005b6:	f032 427f 	bics.w	r2, r2, #4278190080	; 0xff000000
 80005ba:	bf08      	it	eq
 80005bc:	4770      	bxeq	lr
 80005be:	f093 4f7f 	teq	r3, #4278190080	; 0xff000000
 80005c2:	bf04      	itt	eq
 80005c4:	f441 2100 	orreq.w	r1, r1, #524288	; 0x80000
 80005c8:	4770      	bxeq	lr
 80005ca:	b530      	push	{r4, r5, lr}
 80005cc:	f44f 7460 	mov.w	r4, #896	; 0x380
 80005d0:	f001 4500 	and.w	r5, r1, #2147483648	; 0x80000000
 80005d4:	f021 4100 	bic.w	r1, r1, #2147483648	; 0x80000000
 80005d8:	e71c      	b.n	8000414 <__adddf3+0x138>
 80005da:	bf00      	nop

080005dc <__aeabi_ul2d>:
 80005dc:	ea50 0201 	orrs.w	r2, r0, r1
 80005e0:	bf08      	it	eq
 80005e2:	4770      	bxeq	lr
 80005e4:	b530      	push	{r4, r5, lr}
 80005e6:	f04f 0500 	mov.w	r5, #0
 80005ea:	e00a      	b.n	8000602 <__aeabi_l2d+0x16>

080005ec <__aeabi_l2d>:
 80005ec:	ea50 0201 	orrs.w	r2, r0, r1
 80005f0:	bf08      	it	eq
 80005f2:	4770      	bxeq	lr
 80005f4:	b530      	push	{r4, r5, lr}
 80005f6:	f011 4500 	ands.w	r5, r1, #2147483648	; 0x80000000
 80005fa:	d502      	bpl.n	8000602 <__aeabi_l2d+0x16>
 80005fc:	4240      	negs	r0, r0
 80005fe:	eb61 0141 	sbc.w	r1, r1, r1, lsl #1
 8000602:	f44f 6480 	mov.w	r4, #1024	; 0x400
 8000606:	f104 0432 	add.w	r4, r4, #50	; 0x32
 800060a:	ea5f 5c91 	movs.w	ip, r1, lsr #22
 800060e:	f43f aed8 	beq.w	80003c2 <__adddf3+0xe6>
 8000612:	f04f 0203 	mov.w	r2, #3
 8000616:	ea5f 0cdc 	movs.w	ip, ip, lsr #3
 800061a:	bf18      	it	ne
 800061c:	3203      	addne	r2, #3
 800061e:	ea5f 0cdc 	movs.w	ip, ip, lsr #3
 8000622:	bf18      	it	ne
 8000624:	3203      	addne	r2, #3
 8000626:	eb02 02dc 	add.w	r2, r2, ip, lsr #3
 800062a:	f1c2 0320 	rsb	r3, r2, #32
 800062e:	fa00 fc03 	lsl.w	ip, r0, r3
 8000632:	fa20 f002 	lsr.w	r0, r0, r2
 8000636:	fa01 fe03 	lsl.w	lr, r1, r3
 800063a:	ea40 000e 	orr.w	r0, r0, lr
 800063e:	fa21 f102 	lsr.w	r1, r1, r2
 8000642:	4414      	add	r4, r2
 8000644:	e6bd      	b.n	80003c2 <__adddf3+0xe6>
 8000646:	bf00      	nop

08000648 <__aeabi_dmul>:
 8000648:	b570      	push	{r4, r5, r6, lr}
 800064a:	f04f 0cff 	mov.w	ip, #255	; 0xff
 800064e:	f44c 6ce0 	orr.w	ip, ip, #1792	; 0x700
 8000652:	ea1c 5411 	ands.w	r4, ip, r1, lsr #20
 8000656:	bf1d      	ittte	ne
 8000658:	ea1c 5513 	andsne.w	r5, ip, r3, lsr #20
 800065c:	ea94 0f0c 	teqne	r4, ip
 8000660:	ea95 0f0c 	teqne	r5, ip
 8000664:	f000 f8de 	bleq	8000824 <__aeabi_dmul+0x1dc>
 8000668:	442c      	add	r4, r5
 800066a:	ea81 0603 	eor.w	r6, r1, r3
 800066e:	ea21 514c 	bic.w	r1, r1, ip, lsl #21
 8000672:	ea23 534c 	bic.w	r3, r3, ip, lsl #21
 8000676:	ea50 3501 	orrs.w	r5, r0, r1, lsl #12
 800067a:	bf18      	it	ne
 800067c:	ea52 3503 	orrsne.w	r5, r2, r3, lsl #12
 8000680:	f441 1180 	orr.w	r1, r1, #1048576	; 0x100000
 8000684:	f443 1380 	orr.w	r3, r3, #1048576	; 0x100000
 8000688:	d038      	beq.n	80006fc <__aeabi_dmul+0xb4>
 800068a:	fba0 ce02 	umull	ip, lr, r0, r2
 800068e:	f04f 0500 	mov.w	r5, #0
 8000692:	fbe1 e502 	umlal	lr, r5, r1, r2
 8000696:	f006 4200 	and.w	r2, r6, #2147483648	; 0x80000000
 800069a:	fbe0 e503 	umlal	lr, r5, r0, r3
 800069e:	f04f 0600 	mov.w	r6, #0
 80006a2:	fbe1 5603 	umlal	r5, r6, r1, r3
 80006a6:	f09c 0f00 	teq	ip, #0
 80006aa:	bf18      	it	ne
 80006ac:	f04e 0e01 	orrne.w	lr, lr, #1
 80006b0:	f1a4 04ff 	sub.w	r4, r4, #255	; 0xff
 80006b4:	f5b6 7f00 	cmp.w	r6, #512	; 0x200
 80006b8:	f564 7440 	sbc.w	r4, r4, #768	; 0x300
 80006bc:	d204      	bcs.n	80006c8 <__aeabi_dmul+0x80>
 80006be:	ea5f 0e4e 	movs.w	lr, lr, lsl #1
 80006c2:	416d      	adcs	r5, r5
 80006c4:	eb46 0606 	adc.w	r6, r6, r6
 80006c8:	ea42 21c6 	orr.w	r1, r2, r6, lsl #11
 80006cc:	ea41 5155 	orr.w	r1, r1, r5, lsr #21
 80006d0:	ea4f 20c5 	mov.w	r0, r5, lsl #11
 80006d4:	ea40 505e 	orr.w	r0, r0, lr, lsr #21
 80006d8:	ea4f 2ece 	mov.w	lr, lr, lsl #11
 80006dc:	f1b4 0cfd 	subs.w	ip, r4, #253	; 0xfd
 80006e0:	bf88      	it	hi
 80006e2:	f5bc 6fe0 	cmphi.w	ip, #1792	; 0x700
 80006e6:	d81e      	bhi.n	8000726 <__aeabi_dmul+0xde>
 80006e8:	f1be 4f00 	cmp.w	lr, #2147483648	; 0x80000000
 80006ec:	bf08      	it	eq
 80006ee:	ea5f 0e50 	movseq.w	lr, r0, lsr #1
 80006f2:	f150 0000 	adcs.w	r0, r0, #0
 80006f6:	eb41 5104 	adc.w	r1, r1, r4, lsl #20
 80006fa:	bd70      	pop	{r4, r5, r6, pc}
 80006fc:	f006 4600 	and.w	r6, r6, #2147483648	; 0x80000000
 8000700:	ea46 0101 	orr.w	r1, r6, r1
 8000704:	ea40 0002 	orr.w	r0, r0, r2
 8000708:	ea81 0103 	eor.w	r1, r1, r3
 800070c:	ebb4 045c 	subs.w	r4, r4, ip, lsr #1
 8000710:	bfc2      	ittt	gt
 8000712:	ebd4 050c 	rsbsgt	r5, r4, ip
 8000716:	ea41 5104 	orrgt.w	r1, r1, r4, lsl #20
 800071a:	bd70      	popgt	{r4, r5, r6, pc}
 800071c:	f441 1180 	orr.w	r1, r1, #1048576	; 0x100000
 8000720:	f04f 0e00 	mov.w	lr, #0
 8000724:	3c01      	subs	r4, #1
 8000726:	f300 80ab 	bgt.w	8000880 <__aeabi_dmul+0x238>
 800072a:	f114 0f36 	cmn.w	r4, #54	; 0x36
 800072e:	bfde      	ittt	le
 8000730:	2000      	movle	r0, #0
 8000732:	f001 4100 	andle.w	r1, r1, #2147483648	; 0x80000000
 8000736:	bd70      	pople	{r4, r5, r6, pc}
 8000738:	f1c4 0400 	rsb	r4, r4, #0
 800073c:	3c20      	subs	r4, #32
 800073e:	da35      	bge.n	80007ac <__aeabi_dmul+0x164>
 8000740:	340c      	adds	r4, #12
 8000742:	dc1b      	bgt.n	800077c <__aeabi_dmul+0x134>
 8000744:	f104 0414 	add.w	r4, r4, #20
 8000748:	f1c4 0520 	rsb	r5, r4, #32
 800074c:	fa00 f305 	lsl.w	r3, r0, r5
 8000750:	fa20 f004 	lsr.w	r0, r0, r4
 8000754:	fa01 f205 	lsl.w	r2, r1, r5
 8000758:	ea40 0002 	orr.w	r0, r0, r2
 800075c:	f001 4200 	and.w	r2, r1, #2147483648	; 0x80000000
 8000760:	f021 4100 	bic.w	r1, r1, #2147483648	; 0x80000000
 8000764:	eb10 70d3 	adds.w	r0, r0, r3, lsr #31
 8000768:	fa21 f604 	lsr.w	r6, r1, r4
 800076c:	eb42 0106 	adc.w	r1, r2, r6
 8000770:	ea5e 0e43 	orrs.w	lr, lr, r3, lsl #1
 8000774:	bf08      	it	eq
 8000776:	ea20 70d3 	biceq.w	r0, r0, r3, lsr #31
 800077a:	bd70      	pop	{r4, r5, r6, pc}
 800077c:	f1c4 040c 	rsb	r4, r4, #12
 8000780:	f1c4 0520 	rsb	r5, r4, #32
 8000784:	fa00 f304 	lsl.w	r3, r0, r4
 8000788:	fa20 f005 	lsr.w	r0, r0, r5
 800078c:	fa01 f204 	lsl.w	r2, r1, r4
 8000790:	ea40 0002 	orr.w	r0, r0, r2
 8000794:	f001 4100 	and.w	r1, r1, #2147483648	; 0x80000000
 8000798:	eb10 70d3 	adds.w	r0, r0, r3, lsr #31
 800079c:	f141 0100 	adc.w	r1, r1, #0
 80007a0:	ea5e 0e43 	orrs.w	lr, lr, r3, lsl #1
 80007a4:	bf08      	it	eq
 80007a6:	ea20 70d3 	biceq.w	r0, r0, r3, lsr #31
 80007aa:	bd70      	pop	{r4, r5, r6, pc}
 80007ac:	f1c4 0520 	rsb	r5, r4, #32
 80007b0:	fa00 f205 	lsl.w	r2, r0, r5
 80007b4:	ea4e 0e02 	orr.w	lr, lr, r2
 80007b8:	fa20 f304 	lsr.w	r3, r0, r4
 80007bc:	fa01 f205 	lsl.w	r2, r1, r5
 80007c0:	ea43 0302 	orr.w	r3, r3, r2
 80007c4:	fa21 f004 	lsr.w	r0, r1, r4
 80007c8:	f001 4100 	and.w	r1, r1, #2147483648	; 0x80000000
 80007cc:	fa21 f204 	lsr.w	r2, r1, r4
 80007d0:	ea20 0002 	bic.w	r0, r0, r2
 80007d4:	eb00 70d3 	add.w	r0, r0, r3, lsr #31
 80007d8:	ea5e 0e43 	orrs.w	lr, lr, r3, lsl #1
 80007dc:	bf08      	it	eq
 80007de:	ea20 70d3 	biceq.w	r0, r0, r3, lsr #31
 80007e2:	bd70      	pop	{r4, r5, r6, pc}
 80007e4:	f094 0f00 	teq	r4, #0
 80007e8:	d10f      	bne.n	800080a <__aeabi_dmul+0x1c2>
 80007ea:	f001 4600 	and.w	r6, r1, #2147483648	; 0x80000000
 80007ee:	0040      	lsls	r0, r0, #1
 80007f0:	eb41 0101 	adc.w	r1, r1, r1
 80007f4:	f411 1f80 	tst.w	r1, #1048576	; 0x100000
 80007f8:	bf08      	it	eq
 80007fa:	3c01      	subeq	r4, #1
 80007fc:	d0f7      	beq.n	80007ee <__aeabi_dmul+0x1a6>
 80007fe:	ea41 0106 	orr.w	r1, r1, r6
 8000802:	f095 0f00 	teq	r5, #0
 8000806:	bf18      	it	ne
 8000808:	4770      	bxne	lr
 800080a:	f003 4600 	and.w	r6, r3, #2147483648	; 0x80000000
 800080e:	0052      	lsls	r2, r2, #1
 8000810:	eb43 0303 	adc.w	r3, r3, r3
 8000814:	f413 1f80 	tst.w	r3, #1048576	; 0x100000
 8000818:	bf08      	it	eq
 800081a:	3d01      	subeq	r5, #1
 800081c:	d0f7      	beq.n	800080e <__aeabi_dmul+0x1c6>
 800081e:	ea43 0306 	orr.w	r3, r3, r6
 8000822:	4770      	bx	lr
 8000824:	ea94 0f0c 	teq	r4, ip
 8000828:	ea0c 5513 	and.w	r5, ip, r3, lsr #20
 800082c:	bf18      	it	ne
 800082e:	ea95 0f0c 	teqne	r5, ip
 8000832:	d00c      	beq.n	800084e <__aeabi_dmul+0x206>
 8000834:	ea50 0641 	orrs.w	r6, r0, r1, lsl #1
 8000838:	bf18      	it	ne
 800083a:	ea52 0643 	orrsne.w	r6, r2, r3, lsl #1
 800083e:	d1d1      	bne.n	80007e4 <__aeabi_dmul+0x19c>
 8000840:	ea81 0103 	eor.w	r1, r1, r3
 8000844:	f001 4100 	and.w	r1, r1, #2147483648	; 0x80000000
 8000848:	f04f 0000 	mov.w	r0, #0
 800084c:	bd70      	pop	{r4, r5, r6, pc}
 800084e:	ea50 0641 	orrs.w	r6, r0, r1, lsl #1
 8000852:	bf06      	itte	eq
 8000854:	4610      	moveq	r0, r2
 8000856:	4619      	moveq	r1, r3
 8000858:	ea52 0643 	orrsne.w	r6, r2, r3, lsl #1
 800085c:	d019      	beq.n	8000892 <__aeabi_dmul+0x24a>
 800085e:	ea94 0f0c 	teq	r4, ip
 8000862:	d102      	bne.n	800086a <__aeabi_dmul+0x222>
 8000864:	ea50 3601 	orrs.w	r6, r0, r1, lsl #12
 8000868:	d113      	bne.n	8000892 <__aeabi_dmul+0x24a>
 800086a:	ea95 0f0c 	teq	r5, ip
 800086e:	d105      	bne.n	800087c <__aeabi_dmul+0x234>
 8000870:	ea52 3603 	orrs.w	r6, r2, r3, lsl #12
 8000874:	bf1c      	itt	ne
 8000876:	4610      	movne	r0, r2
 8000878:	4619      	movne	r1, r3
 800087a:	d10a      	bne.n	8000892 <__aeabi_dmul+0x24a>
 800087c:	ea81 0103 	eor.w	r1, r1, r3
 8000880:	f001 4100 	and.w	r1, r1, #2147483648	; 0x80000000
 8000884:	f041 41fe 	orr.w	r1, r1, #2130706432	; 0x7f000000
 8000888:	f441 0170 	orr.w	r1, r1, #15728640	; 0xf00000
 800088c:	f04f 0000 	mov.w	r0, #0
 8000890:	bd70      	pop	{r4, r5, r6, pc}
 8000892:	f041 41fe 	orr.w	r1, r1, #2130706432	; 0x7f000000
 8000896:	f441 0178 	orr.w	r1, r1, #16252928	; 0xf80000
 800089a:	bd70      	pop	{r4, r5, r6, pc}

0800089c <__aeabi_ddiv>:
 800089c:	b570      	push	{r4, r5, r6, lr}
 800089e:	f04f 0cff 	mov.w	ip, #255	; 0xff
 80008a2:	f44c 6ce0 	orr.w	ip, ip, #1792	; 0x700
 80008a6:	ea1c 5411 	ands.w	r4, ip, r1, lsr #20
 80008aa:	bf1d      	ittte	ne
 80008ac:	ea1c 5513 	andsne.w	r5, ip, r3, lsr #20
 80008b0:	ea94 0f0c 	teqne	r4, ip
 80008b4:	ea95 0f0c 	teqne	r5, ip
 80008b8:	f000 f8a7 	bleq	8000a0a <__aeabi_ddiv+0x16e>
 80008bc:	eba4 0405 	sub.w	r4, r4, r5
 80008c0:	ea81 0e03 	eor.w	lr, r1, r3
 80008c4:	ea52 3503 	orrs.w	r5, r2, r3, lsl #12
 80008c8:	ea4f 3101 	mov.w	r1, r1, lsl #12
 80008cc:	f000 8088 	beq.w	80009e0 <__aeabi_ddiv+0x144>
 80008d0:	ea4f 3303 	mov.w	r3, r3, lsl #12
 80008d4:	f04f 5580 	mov.w	r5, #268435456	; 0x10000000
 80008d8:	ea45 1313 	orr.w	r3, r5, r3, lsr #4
 80008dc:	ea43 6312 	orr.w	r3, r3, r2, lsr #24
 80008e0:	ea4f 2202 	mov.w	r2, r2, lsl #8
 80008e4:	ea45 1511 	orr.w	r5, r5, r1, lsr #4
 80008e8:	ea45 6510 	orr.w	r5, r5, r0, lsr #24
 80008ec:	ea4f 2600 	mov.w	r6, r0, lsl #8
 80008f0:	f00e 4100 	and.w	r1, lr, #2147483648	; 0x80000000
 80008f4:	429d      	cmp	r5, r3
 80008f6:	bf08      	it	eq
 80008f8:	4296      	cmpeq	r6, r2
 80008fa:	f144 04fd 	adc.w	r4, r4, #253	; 0xfd
 80008fe:	f504 7440 	add.w	r4, r4, #768	; 0x300
 8000902:	d202      	bcs.n	800090a <__aeabi_ddiv+0x6e>
 8000904:	085b      	lsrs	r3, r3, #1
 8000906:	ea4f 0232 	mov.w	r2, r2, rrx
 800090a:	1ab6      	subs	r6, r6, r2
 800090c:	eb65 0503 	sbc.w	r5, r5, r3
 8000910:	085b      	lsrs	r3, r3, #1
 8000912:	ea4f 0232 	mov.w	r2, r2, rrx
 8000916:	f44f 1080 	mov.w	r0, #1048576	; 0x100000
 800091a:	f44f 2c00 	mov.w	ip, #524288	; 0x80000
 800091e:	ebb6 0e02 	subs.w	lr, r6, r2
 8000922:	eb75 0e03 	sbcs.w	lr, r5, r3
 8000926:	bf22      	ittt	cs
 8000928:	1ab6      	subcs	r6, r6, r2
 800092a:	4675      	movcs	r5, lr
 800092c:	ea40 000c 	orrcs.w	r0, r0, ip
 8000930:	085b      	lsrs	r3, r3, #1
 8000932:	ea4f 0232 	mov.w	r2, r2, rrx
 8000936:	ebb6 0e02 	subs.w	lr, r6, r2
 800093a:	eb75 0e03 	sbcs.w	lr, r5, r3
 800093e:	bf22      	ittt	cs
 8000940:	1ab6      	subcs	r6, r6, r2
 8000942:	4675      	movcs	r5, lr
 8000944:	ea40 005c 	orrcs.w	r0, r0, ip, lsr #1
 8000948:	085b      	lsrs	r3, r3, #1
 800094a:	ea4f 0232 	mov.w	r2, r2, rrx
 800094e:	ebb6 0e02 	subs.w	lr, r6, r2
 8000952:	eb75 0e03 	sbcs.w	lr, r5, r3
 8000956:	bf22      	ittt	cs
 8000958:	1ab6      	subcs	r6, r6, r2
 800095a:	4675      	movcs	r5, lr
 800095c:	ea40 009c 	orrcs.w	r0, r0, ip, lsr #2
 8000960:	085b      	lsrs	r3, r3, #1
 8000962:	ea4f 0232 	mov.w	r2, r2, rrx
 8000966:	ebb6 0e02 	subs.w	lr, r6, r2
 800096a:	eb75 0e03 	sbcs.w	lr, r5, r3
 800096e:	bf22      	ittt	cs
 8000970:	1ab6      	subcs	r6, r6, r2
 8000972:	4675      	movcs	r5, lr
 8000974:	ea40 00dc 	orrcs.w	r0, r0, ip, lsr #3
 8000978:	ea55 0e06 	orrs.w	lr, r5, r6
 800097c:	d018      	beq.n	80009b0 <__aeabi_ddiv+0x114>
 800097e:	ea4f 1505 	mov.w	r5, r5, lsl #4
 8000982:	ea45 7516 	orr.w	r5, r5, r6, lsr #28
 8000986:	ea4f 1606 	mov.w	r6, r6, lsl #4
 800098a:	ea4f 03c3 	mov.w	r3, r3, lsl #3
 800098e:	ea43 7352 	orr.w	r3, r3, r2, lsr #29
 8000992:	ea4f 02c2 	mov.w	r2, r2, lsl #3
 8000996:	ea5f 1c1c 	movs.w	ip, ip, lsr #4
 800099a:	d1c0      	bne.n	800091e <__aeabi_ddiv+0x82>
 800099c:	f411 1f80 	tst.w	r1, #1048576	; 0x100000
 80009a0:	d10b      	bne.n	80009ba <__aeabi_ddiv+0x11e>
 80009a2:	ea41 0100 	orr.w	r1, r1, r0
 80009a6:	f04f 0000 	mov.w	r0, #0
 80009aa:	f04f 4c00 	mov.w	ip, #2147483648	; 0x80000000
 80009ae:	e7b6      	b.n	800091e <__aeabi_ddiv+0x82>
 80009b0:	f411 1f80 	tst.w	r1, #1048576	; 0x100000
 80009b4:	bf04      	itt	eq
 80009b6:	4301      	orreq	r1, r0
 80009b8:	2000      	moveq	r0, #0
 80009ba:	f1b4 0cfd 	subs.w	ip, r4, #253	; 0xfd
 80009be:	bf88      	it	hi
 80009c0:	f5bc 6fe0 	cmphi.w	ip, #1792	; 0x700
 80009c4:	f63f aeaf 	bhi.w	8000726 <__aeabi_dmul+0xde>
 80009c8:	ebb5 0c03 	subs.w	ip, r5, r3
 80009cc:	bf04      	itt	eq
 80009ce:	ebb6 0c02 	subseq.w	ip, r6, r2
 80009d2:	ea5f 0c50 	movseq.w	ip, r0, lsr #1
 80009d6:	f150 0000 	adcs.w	r0, r0, #0
 80009da:	eb41 5104 	adc.w	r1, r1, r4, lsl #20
 80009de:	bd70      	pop	{r4, r5, r6, pc}
 80009e0:	f00e 4e00 	and.w	lr, lr, #2147483648	; 0x80000000
 80009e4:	ea4e 3111 	orr.w	r1, lr, r1, lsr #12
 80009e8:	eb14 045c 	adds.w	r4, r4, ip, lsr #1
 80009ec:	bfc2      	ittt	gt
 80009ee:	ebd4 050c 	rsbsgt	r5, r4, ip
 80009f2:	ea41 5104 	orrgt.w	r1, r1, r4, lsl #20
 80009f6:	bd70      	popgt	{r4, r5, r6, pc}
 80009f8:	f441 1180 	orr.w	r1, r1, #1048576	; 0x100000
 80009fc:	f04f 0e00 	mov.w	lr, #0
 8000a00:	3c01      	subs	r4, #1
 8000a02:	e690      	b.n	8000726 <__aeabi_dmul+0xde>
 8000a04:	ea45 0e06 	orr.w	lr, r5, r6
 8000a08:	e68d      	b.n	8000726 <__aeabi_dmul+0xde>
 8000a0a:	ea0c 5513 	and.w	r5, ip, r3, lsr #20
 8000a0e:	ea94 0f0c 	teq	r4, ip
 8000a12:	bf08      	it	eq
 8000a14:	ea95 0f0c 	teqeq	r5, ip
 8000a18:	f43f af3b 	beq.w	8000892 <__aeabi_dmul+0x24a>
 8000a1c:	ea94 0f0c 	teq	r4, ip
 8000a20:	d10a      	bne.n	8000a38 <__aeabi_ddiv+0x19c>
 8000a22:	ea50 3401 	orrs.w	r4, r0, r1, lsl #12
 8000a26:	f47f af34 	bne.w	8000892 <__aeabi_dmul+0x24a>
 8000a2a:	ea95 0f0c 	teq	r5, ip
 8000a2e:	f47f af25 	bne.w	800087c <__aeabi_dmul+0x234>
 8000a32:	4610      	mov	r0, r2
 8000a34:	4619      	mov	r1, r3
 8000a36:	e72c      	b.n	8000892 <__aeabi_dmul+0x24a>
 8000a38:	ea95 0f0c 	teq	r5, ip
 8000a3c:	d106      	bne.n	8000a4c <__aeabi_ddiv+0x1b0>
 8000a3e:	ea52 3503 	orrs.w	r5, r2, r3, lsl #12
 8000a42:	f43f aefd 	beq.w	8000840 <__aeabi_dmul+0x1f8>
 8000a46:	4610      	mov	r0, r2
 8000a48:	4619      	mov	r1, r3
 8000a4a:	e722      	b.n	8000892 <__aeabi_dmul+0x24a>
 8000a4c:	ea50 0641 	orrs.w	r6, r0, r1, lsl #1
 8000a50:	bf18      	it	ne
 8000a52:	ea52 0643 	orrsne.w	r6, r2, r3, lsl #1
 8000a56:	f47f aec5 	bne.w	80007e4 <__aeabi_dmul+0x19c>
 8000a5a:	ea50 0441 	orrs.w	r4, r0, r1, lsl #1
 8000a5e:	f47f af0d 	bne.w	800087c <__aeabi_dmul+0x234>
 8000a62:	ea52 0543 	orrs.w	r5, r2, r3, lsl #1
 8000a66:	f47f aeeb 	bne.w	8000840 <__aeabi_dmul+0x1f8>
 8000a6a:	e712      	b.n	8000892 <__aeabi_dmul+0x24a>

08000a6c <__gedf2>:
 8000a6c:	f04f 3cff 	mov.w	ip, #4294967295
 8000a70:	e006      	b.n	8000a80 <__cmpdf2+0x4>
 8000a72:	bf00      	nop

08000a74 <__ledf2>:
 8000a74:	f04f 0c01 	mov.w	ip, #1
 8000a78:	e002      	b.n	8000a80 <__cmpdf2+0x4>
 8000a7a:	bf00      	nop

08000a7c <__cmpdf2>:
 8000a7c:	f04f 0c01 	mov.w	ip, #1
 8000a80:	f84d cd04 	str.w	ip, [sp, #-4]!
 8000a84:	ea4f 0c41 	mov.w	ip, r1, lsl #1
 8000a88:	ea7f 5c6c 	mvns.w	ip, ip, asr #21
 8000a8c:	ea4f 0c43 	mov.w	ip, r3, lsl #1
 8000a90:	bf18      	it	ne
 8000a92:	ea7f 5c6c 	mvnsne.w	ip, ip, asr #21
 8000a96:	d01b      	beq.n	8000ad0 <__cmpdf2+0x54>
 8000a98:	b001      	add	sp, #4
 8000a9a:	ea50 0c41 	orrs.w	ip, r0, r1, lsl #1
 8000a9e:	bf0c      	ite	eq
 8000aa0:	ea52 0c43 	orrseq.w	ip, r2, r3, lsl #1
 8000aa4:	ea91 0f03 	teqne	r1, r3
 8000aa8:	bf02      	ittt	eq
 8000aaa:	ea90 0f02 	teqeq	r0, r2
 8000aae:	2000      	moveq	r0, #0
 8000ab0:	4770      	bxeq	lr
 8000ab2:	f110 0f00 	cmn.w	r0, #0
 8000ab6:	ea91 0f03 	teq	r1, r3
 8000aba:	bf58      	it	pl
 8000abc:	4299      	cmppl	r1, r3
 8000abe:	bf08      	it	eq
 8000ac0:	4290      	cmpeq	r0, r2
 8000ac2:	bf2c      	ite	cs
 8000ac4:	17d8      	asrcs	r0, r3, #31
 8000ac6:	ea6f 70e3 	mvncc.w	r0, r3, asr #31
 8000aca:	f040 0001 	orr.w	r0, r0, #1
 8000ace:	4770      	bx	lr
 8000ad0:	ea4f 0c41 	mov.w	ip, r1, lsl #1
 8000ad4:	ea7f 5c6c 	mvns.w	ip, ip, asr #21
 8000ad8:	d102      	bne.n	8000ae0 <__cmpdf2+0x64>
 8000ada:	ea50 3c01 	orrs.w	ip, r0, r1, lsl #12
 8000ade:	d107      	bne.n	8000af0 <__cmpdf2+0x74>
 8000ae0:	ea4f 0c43 	mov.w	ip, r3, lsl #1
 8000ae4:	ea7f 5c6c 	mvns.w	ip, ip, asr #21
 8000ae8:	d1d6      	bne.n	8000a98 <__cmpdf2+0x1c>
 8000aea:	ea52 3c03 	orrs.w	ip, r2, r3, lsl #12
 8000aee:	d0d3      	beq.n	8000a98 <__cmpdf2+0x1c>
 8000af0:	f85d 0b04 	ldr.w	r0, [sp], #4
 8000af4:	4770      	bx	lr
 8000af6:	bf00      	nop

08000af8 <__aeabi_cdrcmple>:
 8000af8:	4684      	mov	ip, r0
 8000afa:	4610      	mov	r0, r2
 8000afc:	4662      	mov	r2, ip
 8000afe:	468c      	mov	ip, r1
 8000b00:	4619      	mov	r1, r3
 8000b02:	4663      	mov	r3, ip
 8000b04:	e000      	b.n	8000b08 <__aeabi_cdcmpeq>
 8000b06:	bf00      	nop

08000b08 <__aeabi_cdcmpeq>:
 8000b08:	b501      	push	{r0, lr}
 8000b0a:	f7ff ffb7 	bl	8000a7c <__cmpdf2>
 8000b0e:	2800      	cmp	r0, #0
 8000b10:	bf48      	it	mi
 8000b12:	f110 0f00 	cmnmi.w	r0, #0
 8000b16:	bd01      	pop	{r0, pc}

08000b18 <__aeabi_dcmpeq>:
 8000b18:	f84d ed08 	str.w	lr, [sp, #-8]!
 8000b1c:	f7ff fff4 	bl	8000b08 <__aeabi_cdcmpeq>
 8000b20:	bf0c      	ite	eq
 8000b22:	2001      	moveq	r0, #1
 8000b24:	2000      	movne	r0, #0
 8000b26:	f85d fb08 	ldr.w	pc, [sp], #8
 8000b2a:	bf00      	nop

08000b2c <__aeabi_dcmplt>:
 8000b2c:	f84d ed08 	str.w	lr, [sp, #-8]!
 8000b30:	f7ff ffea 	bl	8000b08 <__aeabi_cdcmpeq>
 8000b34:	bf34      	ite	cc
 8000b36:	2001      	movcc	r0, #1
 8000b38:	2000      	movcs	r0, #0
 8000b3a:	f85d fb08 	ldr.w	pc, [sp], #8
 8000b3e:	bf00      	nop

08000b40 <__aeabi_dcmple>:
 8000b40:	f84d ed08 	str.w	lr, [sp, #-8]!
 8000b44:	f7ff ffe0 	bl	8000b08 <__aeabi_cdcmpeq>
 8000b48:	bf94      	ite	ls
 8000b4a:	2001      	movls	r0, #1
 8000b4c:	2000      	movhi	r0, #0
 8000b4e:	f85d fb08 	ldr.w	pc, [sp], #8
 8000b52:	bf00      	nop

08000b54 <__aeabi_dcmpge>:
 8000b54:	f84d ed08 	str.w	lr, [sp, #-8]!
 8000b58:	f7ff ffce 	bl	8000af8 <__aeabi_cdrcmple>
 8000b5c:	bf94      	ite	ls
 8000b5e:	2001      	movls	r0, #1
 8000b60:	2000      	movhi	r0, #0
 8000b62:	f85d fb08 	ldr.w	pc, [sp], #8
 8000b66:	bf00      	nop

08000b68 <__aeabi_dcmpgt>:
 8000b68:	f84d ed08 	str.w	lr, [sp, #-8]!
 8000b6c:	f7ff ffc4 	bl	8000af8 <__aeabi_cdrcmple>
 8000b70:	bf34      	ite	cc
 8000b72:	2001      	movcc	r0, #1
 8000b74:	2000      	movcs	r0, #0
 8000b76:	f85d fb08 	ldr.w	pc, [sp], #8
 8000b7a:	bf00      	nop

08000b7c <__aeabi_dcmpun>:
 8000b7c:	ea4f 0c41 	mov.w	ip, r1, lsl #1
 8000b80:	ea7f 5c6c 	mvns.w	ip, ip, asr #21
 8000b84:	d102      	bne.n	8000b8c <__aeabi_dcmpun+0x10>
 8000b86:	ea50 3c01 	orrs.w	ip, r0, r1, lsl #12
 8000b8a:	d10a      	bne.n	8000ba2 <__aeabi_dcmpun+0x26>
 8000b8c:	ea4f 0c43 	mov.w	ip, r3, lsl #1
 8000b90:	ea7f 5c6c 	mvns.w	ip, ip, asr #21
 8000b94:	d102      	bne.n	8000b9c <__aeabi_dcmpun+0x20>
 8000b96:	ea52 3c03 	orrs.w	ip, r2, r3, lsl #12
 8000b9a:	d102      	bne.n	8000ba2 <__aeabi_dcmpun+0x26>
 8000b9c:	f04f 0000 	mov.w	r0, #0
 8000ba0:	4770      	bx	lr
 8000ba2:	f04f 0001 	mov.w	r0, #1
 8000ba6:	4770      	bx	lr

08000ba8 <__aeabi_d2iz>:
 8000ba8:	ea4f 0241 	mov.w	r2, r1, lsl #1
 8000bac:	f512 1200 	adds.w	r2, r2, #2097152	; 0x200000
 8000bb0:	d215      	bcs.n	8000bde <__aeabi_d2iz+0x36>
 8000bb2:	d511      	bpl.n	8000bd8 <__aeabi_d2iz+0x30>
 8000bb4:	f46f 7378 	mvn.w	r3, #992	; 0x3e0
 8000bb8:	ebb3 5262 	subs.w	r2, r3, r2, asr #21
 8000bbc:	d912      	bls.n	8000be4 <__aeabi_d2iz+0x3c>
 8000bbe:	ea4f 23c1 	mov.w	r3, r1, lsl #11
 8000bc2:	f043 4300 	orr.w	r3, r3, #2147483648	; 0x80000000
 8000bc6:	ea43 5350 	orr.w	r3, r3, r0, lsr #21
 8000bca:	f011 4f00 	tst.w	r1, #2147483648	; 0x80000000
 8000bce:	fa23 f002 	lsr.w	r0, r3, r2
 8000bd2:	bf18      	it	ne
 8000bd4:	4240      	negne	r0, r0
 8000bd6:	4770      	bx	lr
 8000bd8:	f04f 0000 	mov.w	r0, #0
 8000bdc:	4770      	bx	lr
 8000bde:	ea50 3001 	orrs.w	r0, r0, r1, lsl #12
 8000be2:	d105      	bne.n	8000bf0 <__aeabi_d2iz+0x48>
 8000be4:	f011 4000 	ands.w	r0, r1, #2147483648	; 0x80000000
 8000be8:	bf08      	it	eq
 8000bea:	f06f 4000 	mvneq.w	r0, #2147483648	; 0x80000000
 8000bee:	4770      	bx	lr
 8000bf0:	f04f 0000 	mov.w	r0, #0
 8000bf4:	4770      	bx	lr
 8000bf6:	bf00      	nop

08000bf8 <__aeabi_uldivmod>:
 8000bf8:	b953      	cbnz	r3, 8000c10 <__aeabi_uldivmod+0x18>
 8000bfa:	b94a      	cbnz	r2, 8000c10 <__aeabi_uldivmod+0x18>
 8000bfc:	2900      	cmp	r1, #0
 8000bfe:	bf08      	it	eq
 8000c00:	2800      	cmpeq	r0, #0
 8000c02:	bf1c      	itt	ne
 8000c04:	f04f 31ff 	movne.w	r1, #4294967295
 8000c08:	f04f 30ff 	movne.w	r0, #4294967295
 8000c0c:	f000 b974 	b.w	8000ef8 <__aeabi_idiv0>
 8000c10:	f1ad 0c08 	sub.w	ip, sp, #8
 8000c14:	e96d ce04 	strd	ip, lr, [sp, #-16]!
 8000c18:	f000 f806 	bl	8000c28 <__udivmoddi4>
 8000c1c:	f8dd e004 	ldr.w	lr, [sp, #4]
 8000c20:	e9dd 2302 	ldrd	r2, r3, [sp, #8]
 8000c24:	b004      	add	sp, #16
 8000c26:	4770      	bx	lr

08000c28 <__udivmoddi4>:
 8000c28:	e92d 47f0 	stmdb	sp!, {r4, r5, r6, r7, r8, r9, sl, lr}
 8000c2c:	9d08      	ldr	r5, [sp, #32]
 8000c2e:	4604      	mov	r4, r0
 8000c30:	468e      	mov	lr, r1
 8000c32:	2b00      	cmp	r3, #0
 8000c34:	d14d      	bne.n	8000cd2 <__udivmoddi4+0xaa>
 8000c36:	428a      	cmp	r2, r1
 8000c38:	4694      	mov	ip, r2
 8000c3a:	d969      	bls.n	8000d10 <__udivmoddi4+0xe8>
 8000c3c:	fab2 f282 	clz	r2, r2
 8000c40:	b152      	cbz	r2, 8000c58 <__udivmoddi4+0x30>
 8000c42:	fa01 f302 	lsl.w	r3, r1, r2
 8000c46:	f1c2 0120 	rsb	r1, r2, #32
 8000c4a:	fa20 f101 	lsr.w	r1, r0, r1
 8000c4e:	fa0c fc02 	lsl.w	ip, ip, r2
 8000c52:	ea41 0e03 	orr.w	lr, r1, r3
 8000c56:	4094      	lsls	r4, r2
 8000c58:	ea4f 481c 	mov.w	r8, ip, lsr #16
 8000c5c:	0c21      	lsrs	r1, r4, #16
 8000c5e:	fbbe f6f8 	udiv	r6, lr, r8
 8000c62:	fa1f f78c 	uxth.w	r7, ip
 8000c66:	fb08 e316 	mls	r3, r8, r6, lr
 8000c6a:	ea41 4303 	orr.w	r3, r1, r3, lsl #16
 8000c6e:	fb06 f107 	mul.w	r1, r6, r7
 8000c72:	4299      	cmp	r1, r3
 8000c74:	d90a      	bls.n	8000c8c <__udivmoddi4+0x64>
 8000c76:	eb1c 0303 	adds.w	r3, ip, r3
 8000c7a:	f106 30ff 	add.w	r0, r6, #4294967295
 8000c7e:	f080 811f 	bcs.w	8000ec0 <__udivmoddi4+0x298>
 8000c82:	4299      	cmp	r1, r3
 8000c84:	f240 811c 	bls.w	8000ec0 <__udivmoddi4+0x298>
 8000c88:	3e02      	subs	r6, #2
 8000c8a:	4463      	add	r3, ip
 8000c8c:	1a5b      	subs	r3, r3, r1
 8000c8e:	b2a4      	uxth	r4, r4
 8000c90:	fbb3 f0f8 	udiv	r0, r3, r8
 8000c94:	fb08 3310 	mls	r3, r8, r0, r3
 8000c98:	ea44 4403 	orr.w	r4, r4, r3, lsl #16
 8000c9c:	fb00 f707 	mul.w	r7, r0, r7
 8000ca0:	42a7      	cmp	r7, r4
 8000ca2:	d90a      	bls.n	8000cba <__udivmoddi4+0x92>
 8000ca4:	eb1c 0404 	adds.w	r4, ip, r4
 8000ca8:	f100 33ff 	add.w	r3, r0, #4294967295
 8000cac:	f080 810a 	bcs.w	8000ec4 <__udivmoddi4+0x29c>
 8000cb0:	42a7      	cmp	r7, r4
 8000cb2:	f240 8107 	bls.w	8000ec4 <__udivmoddi4+0x29c>
 8000cb6:	4464      	add	r4, ip
 8000cb8:	3802      	subs	r0, #2
 8000cba:	ea40 4006 	orr.w	r0, r0, r6, lsl #16
 8000cbe:	1be4      	subs	r4, r4, r7
 8000cc0:	2600      	movs	r6, #0
 8000cc2:	b11d      	cbz	r5, 8000ccc <__udivmoddi4+0xa4>
 8000cc4:	40d4      	lsrs	r4, r2
 8000cc6:	2300      	movs	r3, #0
 8000cc8:	e9c5 4300 	strd	r4, r3, [r5]
 8000ccc:	4631      	mov	r1, r6
 8000cce:	e8bd 87f0 	ldmia.w	sp!, {r4, r5, r6, r7, r8, r9, sl, pc}
 8000cd2:	428b      	cmp	r3, r1
 8000cd4:	d909      	bls.n	8000cea <__udivmoddi4+0xc2>
 8000cd6:	2d00      	cmp	r5, #0
 8000cd8:	f000 80ef 	beq.w	8000eba <__udivmoddi4+0x292>
 8000cdc:	2600      	movs	r6, #0
 8000cde:	e9c5 0100 	strd	r0, r1, [r5]
 8000ce2:	4630      	mov	r0, r6
 8000ce4:	4631      	mov	r1, r6
 8000ce6:	e8bd 87f0 	ldmia.w	sp!, {r4, r5, r6, r7, r8, r9, sl, pc}
 8000cea:	fab3 f683 	clz	r6, r3
 8000cee:	2e00      	cmp	r6, #0
 8000cf0:	d14a      	bne.n	8000d88 <__udivmoddi4+0x160>
 8000cf2:	428b      	cmp	r3, r1
 8000cf4:	d302      	bcc.n	8000cfc <__udivmoddi4+0xd4>
 8000cf6:	4282      	cmp	r2, r0
 8000cf8:	f200 80f9 	bhi.w	8000eee <__udivmoddi4+0x2c6>
 8000cfc:	1a84      	subs	r4, r0, r2
 8000cfe:	eb61 0303 	sbc.w	r3, r1, r3
 8000d02:	2001      	movs	r0, #1
 8000d04:	469e      	mov	lr, r3
 8000d06:	2d00      	cmp	r5, #0
 8000d08:	d0e0      	beq.n	8000ccc <__udivmoddi4+0xa4>
 8000d0a:	e9c5 4e00 	strd	r4, lr, [r5]
 8000d0e:	e7dd      	b.n	8000ccc <__udivmoddi4+0xa4>
 8000d10:	b902      	cbnz	r2, 8000d14 <__udivmoddi4+0xec>
 8000d12:	deff      	udf	#255	; 0xff
 8000d14:	fab2 f282 	clz	r2, r2
 8000d18:	2a00      	cmp	r2, #0
 8000d1a:	f040 8092 	bne.w	8000e42 <__udivmoddi4+0x21a>
 8000d1e:	eba1 010c 	sub.w	r1, r1, ip
 8000d22:	ea4f 471c 	mov.w	r7, ip, lsr #16
 8000d26:	fa1f fe8c 	uxth.w	lr, ip
 8000d2a:	2601      	movs	r6, #1
 8000d2c:	0c20      	lsrs	r0, r4, #16
 8000d2e:	fbb1 f3f7 	udiv	r3, r1, r7
 8000d32:	fb07 1113 	mls	r1, r7, r3, r1
 8000d36:	ea40 4101 	orr.w	r1, r0, r1, lsl #16
 8000d3a:	fb0e f003 	mul.w	r0, lr, r3
 8000d3e:	4288      	cmp	r0, r1
 8000d40:	d908      	bls.n	8000d54 <__udivmoddi4+0x12c>
 8000d42:	eb1c 0101 	adds.w	r1, ip, r1
 8000d46:	f103 38ff 	add.w	r8, r3, #4294967295
 8000d4a:	d202      	bcs.n	8000d52 <__udivmoddi4+0x12a>
 8000d4c:	4288      	cmp	r0, r1
 8000d4e:	f200 80cb 	bhi.w	8000ee8 <__udivmoddi4+0x2c0>
 8000d52:	4643      	mov	r3, r8
 8000d54:	1a09      	subs	r1, r1, r0
 8000d56:	b2a4      	uxth	r4, r4
 8000d58:	fbb1 f0f7 	udiv	r0, r1, r7
 8000d5c:	fb07 1110 	mls	r1, r7, r0, r1
 8000d60:	ea44 4401 	orr.w	r4, r4, r1, lsl #16
 8000d64:	fb0e fe00 	mul.w	lr, lr, r0
 8000d68:	45a6      	cmp	lr, r4
 8000d6a:	d908      	bls.n	8000d7e <__udivmoddi4+0x156>
 8000d6c:	eb1c 0404 	adds.w	r4, ip, r4
 8000d70:	f100 31ff 	add.w	r1, r0, #4294967295
 8000d74:	d202      	bcs.n	8000d7c <__udivmoddi4+0x154>
 8000d76:	45a6      	cmp	lr, r4
 8000d78:	f200 80bb 	bhi.w	8000ef2 <__udivmoddi4+0x2ca>
 8000d7c:	4608      	mov	r0, r1
 8000d7e:	eba4 040e 	sub.w	r4, r4, lr
 8000d82:	ea40 4003 	orr.w	r0, r0, r3, lsl #16
 8000d86:	e79c      	b.n	8000cc2 <__udivmoddi4+0x9a>
 8000d88:	f1c6 0720 	rsb	r7, r6, #32
 8000d8c:	40b3      	lsls	r3, r6
 8000d8e:	fa22 fc07 	lsr.w	ip, r2, r7
 8000d92:	ea4c 0c03 	orr.w	ip, ip, r3
 8000d96:	fa20 f407 	lsr.w	r4, r0, r7
 8000d9a:	fa01 f306 	lsl.w	r3, r1, r6
 8000d9e:	431c      	orrs	r4, r3
 8000da0:	40f9      	lsrs	r1, r7
 8000da2:	ea4f 491c 	mov.w	r9, ip, lsr #16
 8000da6:	fa00 f306 	lsl.w	r3, r0, r6
 8000daa:	fbb1 f8f9 	udiv	r8, r1, r9
 8000dae:	0c20      	lsrs	r0, r4, #16
 8000db0:	fa1f fe8c 	uxth.w	lr, ip
 8000db4:	fb09 1118 	mls	r1, r9, r8, r1
 8000db8:	ea40 4101 	orr.w	r1, r0, r1, lsl #16
 8000dbc:	fb08 f00e 	mul.w	r0, r8, lr
 8000dc0:	4288      	cmp	r0, r1
 8000dc2:	fa02 f206 	lsl.w	r2, r2, r6
 8000dc6:	d90b      	bls.n	8000de0 <__udivmoddi4+0x1b8>
 8000dc8:	eb1c 0101 	adds.w	r1, ip, r1
 8000dcc:	f108 3aff 	add.w	sl, r8, #4294967295
 8000dd0:	f080 8088 	bcs.w	8000ee4 <__udivmoddi4+0x2bc>
 8000dd4:	4288      	cmp	r0, r1
 8000dd6:	f240 8085 	bls.w	8000ee4 <__udivmoddi4+0x2bc>
 8000dda:	f1a8 0802 	sub.w	r8, r8, #2
 8000dde:	4461      	add	r1, ip
 8000de0:	1a09      	subs	r1, r1, r0
 8000de2:	b2a4      	uxth	r4, r4
 8000de4:	fbb1 f0f9 	udiv	r0, r1, r9
 8000de8:	fb09 1110 	mls	r1, r9, r0, r1
 8000dec:	ea44 4101 	orr.w	r1, r4, r1, lsl #16
 8000df0:	fb00 fe0e 	mul.w	lr, r0, lr
 8000df4:	458e      	cmp	lr, r1
 8000df6:	d908      	bls.n	8000e0a <__udivmoddi4+0x1e2>
 8000df8:	eb1c 0101 	adds.w	r1, ip, r1
 8000dfc:	f100 34ff 	add.w	r4, r0, #4294967295
 8000e00:	d26c      	bcs.n	8000edc <__udivmoddi4+0x2b4>
 8000e02:	458e      	cmp	lr, r1
 8000e04:	d96a      	bls.n	8000edc <__udivmoddi4+0x2b4>
 8000e06:	3802      	subs	r0, #2
 8000e08:	4461      	add	r1, ip
 8000e0a:	ea40 4008 	orr.w	r0, r0, r8, lsl #16
 8000e0e:	fba0 9402 	umull	r9, r4, r0, r2
 8000e12:	eba1 010e 	sub.w	r1, r1, lr
 8000e16:	42a1      	cmp	r1, r4
 8000e18:	46c8      	mov	r8, r9
 8000e1a:	46a6      	mov	lr, r4
 8000e1c:	d356      	bcc.n	8000ecc <__udivmoddi4+0x2a4>
 8000e1e:	d053      	beq.n	8000ec8 <__udivmoddi4+0x2a0>
 8000e20:	b15d      	cbz	r5, 8000e3a <__udivmoddi4+0x212>
 8000e22:	ebb3 0208 	subs.w	r2, r3, r8
 8000e26:	eb61 010e 	sbc.w	r1, r1, lr
 8000e2a:	fa01 f707 	lsl.w	r7, r1, r7
 8000e2e:	fa22 f306 	lsr.w	r3, r2, r6
 8000e32:	40f1      	lsrs	r1, r6
 8000e34:	431f      	orrs	r7, r3
 8000e36:	e9c5 7100 	strd	r7, r1, [r5]
 8000e3a:	2600      	movs	r6, #0
 8000e3c:	4631      	mov	r1, r6
 8000e3e:	e8bd 87f0 	ldmia.w	sp!, {r4, r5, r6, r7, r8, r9, sl, pc}
 8000e42:	f1c2 0320 	rsb	r3, r2, #32
 8000e46:	40d8      	lsrs	r0, r3
 8000e48:	fa0c fc02 	lsl.w	ip, ip, r2
 8000e4c:	fa21 f303 	lsr.w	r3, r1, r3
 8000e50:	4091      	lsls	r1, r2
 8000e52:	4301      	orrs	r1, r0
 8000e54:	ea4f 471c 	mov.w	r7, ip, lsr #16
 8000e58:	fa1f fe8c 	uxth.w	lr, ip
 8000e5c:	fbb3 f0f7 	udiv	r0, r3, r7
 8000e60:	fb07 3610 	mls	r6, r7, r0, r3
 8000e64:	0c0b      	lsrs	r3, r1, #16
 8000e66:	ea43 4306 	orr.w	r3, r3, r6, lsl #16
 8000e6a:	fb00 f60e 	mul.w	r6, r0, lr
 8000e6e:	429e      	cmp	r6, r3
 8000e70:	fa04 f402 	lsl.w	r4, r4, r2
 8000e74:	d908      	bls.n	8000e88 <__udivmoddi4+0x260>
 8000e76:	eb1c 0303 	adds.w	r3, ip, r3
 8000e7a:	f100 38ff 	add.w	r8, r0, #4294967295
 8000e7e:	d22f      	bcs.n	8000ee0 <__udivmoddi4+0x2b8>
 8000e80:	429e      	cmp	r6, r3
 8000e82:	d92d      	bls.n	8000ee0 <__udivmoddi4+0x2b8>
 8000e84:	3802      	subs	r0, #2
 8000e86:	4463      	add	r3, ip
 8000e88:	1b9b      	subs	r3, r3, r6
 8000e8a:	b289      	uxth	r1, r1
 8000e8c:	fbb3 f6f7 	udiv	r6, r3, r7
 8000e90:	fb07 3316 	mls	r3, r7, r6, r3
 8000e94:	ea41 4103 	orr.w	r1, r1, r3, lsl #16
 8000e98:	fb06 f30e 	mul.w	r3, r6, lr
 8000e9c:	428b      	cmp	r3, r1
 8000e9e:	d908      	bls.n	8000eb2 <__udivmoddi4+0x28a>
 8000ea0:	eb1c 0101 	adds.w	r1, ip, r1
 8000ea4:	f106 38ff 	add.w	r8, r6, #4294967295
 8000ea8:	d216      	bcs.n	8000ed8 <__udivmoddi4+0x2b0>
 8000eaa:	428b      	cmp	r3, r1
 8000eac:	d914      	bls.n	8000ed8 <__udivmoddi4+0x2b0>
 8000eae:	3e02      	subs	r6, #2
 8000eb0:	4461      	add	r1, ip
 8000eb2:	1ac9      	subs	r1, r1, r3
 8000eb4:	ea46 4600 	orr.w	r6, r6, r0, lsl #16
 8000eb8:	e738      	b.n	8000d2c <__udivmoddi4+0x104>
 8000eba:	462e      	mov	r6, r5
 8000ebc:	4628      	mov	r0, r5
 8000ebe:	e705      	b.n	8000ccc <__udivmoddi4+0xa4>
 8000ec0:	4606      	mov	r6, r0
 8000ec2:	e6e3      	b.n	8000c8c <__udivmoddi4+0x64>
 8000ec4:	4618      	mov	r0, r3
 8000ec6:	e6f8      	b.n	8000cba <__udivmoddi4+0x92>
 8000ec8:	454b      	cmp	r3, r9
 8000eca:	d2a9      	bcs.n	8000e20 <__udivmoddi4+0x1f8>
 8000ecc:	ebb9 0802 	subs.w	r8, r9, r2
 8000ed0:	eb64 0e0c 	sbc.w	lr, r4, ip
 8000ed4:	3801      	subs	r0, #1
 8000ed6:	e7a3      	b.n	8000e20 <__udivmoddi4+0x1f8>
 8000ed8:	4646      	mov	r6, r8
 8000eda:	e7ea      	b.n	8000eb2 <__udivmoddi4+0x28a>
 8000edc:	4620      	mov	r0, r4
 8000ede:	e794      	b.n	8000e0a <__udivmoddi4+0x1e2>
 8000ee0:	4640      	mov	r0, r8
 8000ee2:	e7d1      	b.n	8000e88 <__udivmoddi4+0x260>
 8000ee4:	46d0      	mov	r8, sl
 8000ee6:	e77b      	b.n	8000de0 <__udivmoddi4+0x1b8>
 8000ee8:	3b02      	subs	r3, #2
 8000eea:	4461      	add	r1, ip
 8000eec:	e732      	b.n	8000d54 <__udivmoddi4+0x12c>
 8000eee:	4630      	mov	r0, r6
 8000ef0:	e709      	b.n	8000d06 <__udivmoddi4+0xde>
 8000ef2:	4464      	add	r4, ip
 8000ef4:	3802      	subs	r0, #2
 8000ef6:	e742      	b.n	8000d7e <__udivmoddi4+0x156>

08000ef8 <__aeabi_idiv0>:
 8000ef8:	4770      	bx	lr
 8000efa:	bf00      	nop

08000efc <MX_CAN1_Init>:
 8000efc:	480b      	ldr	r0, [pc, #44]	; (8000f2c <MX_CAN1_Init+0x30>)
 8000efe:	2300      	movs	r3, #0
 8000f00:	2109      	movs	r1, #9
 8000f02:	f44f 22a0 	mov.w	r2, #327680	; 0x50000
 8000f06:	b510      	push	{r4, lr}
 8000f08:	4c09      	ldr	r4, [pc, #36]	; (8000f30 <MX_CAN1_Init+0x34>)
 8000f0a:	8383      	strh	r3, [r0, #28]
 8000f0c:	6083      	str	r3, [r0, #8]
 8000f0e:	e9c0 3305 	strd	r3, r3, [r0, #20]
 8000f12:	e9c0 4100 	strd	r4, r1, [r0]
 8000f16:	e9c0 3203 	strd	r3, r2, [r0, #12]
 8000f1a:	f000 febf 	bl	8001c9c <HAL_CAN_Init>
 8000f1e:	b900      	cbnz	r0, 8000f22 <MX_CAN1_Init+0x26>
 8000f20:	bd10      	pop	{r4, pc}
 8000f22:	e8bd 4010 	ldmia.w	sp!, {r4, lr}
 8000f26:	f000 bba5 	b.w	8001674 <Error_Handler>
 8000f2a:	bf00      	nop
 8000f2c:	2000021c 	.word	0x2000021c
 8000f30:	40006400 	.word	0x40006400
 8000f34:	00000000 	.word	0x00000000

08000f38 <HAL_CAN_MspInit>:
 8000f38:	b510      	push	{r4, lr}
 8000f3a:	4b1d      	ldr	r3, [pc, #116]	; (8000fb0 <HAL_CAN_MspInit+0x78>)
 8000f3c:	b088      	sub	sp, #32
 8000f3e:	6802      	ldr	r2, [r0, #0]
 8000f40:	2400      	movs	r4, #0
 8000f42:	429a      	cmp	r2, r3
 8000f44:	9406      	str	r4, [sp, #24]
 8000f46:	e9cd 4402 	strd	r4, r4, [sp, #8]
 8000f4a:	e9cd 4404 	strd	r4, r4, [sp, #16]
 8000f4e:	d001      	beq.n	8000f54 <HAL_CAN_MspInit+0x1c>
 8000f50:	b008      	add	sp, #32
 8000f52:	bd10      	pop	{r4, pc}
 8000f54:	f503 33ea 	add.w	r3, r3, #119808	; 0x1d400
 8000f58:	a902      	add	r1, sp, #8
 8000f5a:	4816      	ldr	r0, [pc, #88]	; (8000fb4 <HAL_CAN_MspInit+0x7c>)
 8000f5c:	6c1a      	ldr	r2, [r3, #64]	; 0x40
 8000f5e:	f042 7200 	orr.w	r2, r2, #33554432	; 0x2000000
 8000f62:	641a      	str	r2, [r3, #64]	; 0x40
 8000f64:	6c1a      	ldr	r2, [r3, #64]	; 0x40
 8000f66:	f002 7200 	and.w	r2, r2, #33554432	; 0x2000000
 8000f6a:	9200      	str	r2, [sp, #0]
 8000f6c:	9a00      	ldr	r2, [sp, #0]
 8000f6e:	6b1a      	ldr	r2, [r3, #48]	; 0x30
 8000f70:	f042 0201 	orr.w	r2, r2, #1
 8000f74:	631a      	str	r2, [r3, #48]	; 0x30
 8000f76:	2203      	movs	r2, #3
 8000f78:	6b1b      	ldr	r3, [r3, #48]	; 0x30
 8000f7a:	f003 0301 	and.w	r3, r3, #1
 8000f7e:	ed9f 7b0a 	vldr	d7, [pc, #40]	; 8000fa8 <HAL_CAN_MspInit+0x70>
 8000f82:	9301      	str	r3, [sp, #4]
 8000f84:	9b01      	ldr	r3, [sp, #4]
 8000f86:	2309      	movs	r3, #9
 8000f88:	ed8d 7b02 	vstr	d7, [sp, #8]
 8000f8c:	e9cd 2305 	strd	r2, r3, [sp, #20]
 8000f90:	f001 fd2a 	bl	80029e8 <HAL_GPIO_Init>
 8000f94:	4622      	mov	r2, r4
 8000f96:	2105      	movs	r1, #5
 8000f98:	2014      	movs	r0, #20
 8000f9a:	f001 fa27 	bl	80023ec <HAL_NVIC_SetPriority>
 8000f9e:	2014      	movs	r0, #20
 8000fa0:	f001 fa62 	bl	8002468 <HAL_NVIC_EnableIRQ>
 8000fa4:	b008      	add	sp, #32
 8000fa6:	bd10      	pop	{r4, pc}
 8000fa8:	00001800 	.word	0x00001800
 8000fac:	00000002 	.word	0x00000002
 8000fb0:	40006400 	.word	0x40006400
 8000fb4:	40020000 	.word	0x40020000

08000fb8 <MX_DMA_Init>:
 8000fb8:	4b0b      	ldr	r3, [pc, #44]	; (8000fe8 <MX_DMA_Init+0x30>)
 8000fba:	200e      	movs	r0, #14
 8000fbc:	2200      	movs	r2, #0
 8000fbe:	2105      	movs	r1, #5
 8000fc0:	b510      	push	{r4, lr}
 8000fc2:	6b1c      	ldr	r4, [r3, #48]	; 0x30
 8000fc4:	b082      	sub	sp, #8
 8000fc6:	f444 1400 	orr.w	r4, r4, #2097152	; 0x200000
 8000fca:	631c      	str	r4, [r3, #48]	; 0x30
 8000fcc:	6b1b      	ldr	r3, [r3, #48]	; 0x30
 8000fce:	f403 1300 	and.w	r3, r3, #2097152	; 0x200000
 8000fd2:	9301      	str	r3, [sp, #4]
 8000fd4:	9b01      	ldr	r3, [sp, #4]
 8000fd6:	f001 fa09 	bl	80023ec <HAL_NVIC_SetPriority>
 8000fda:	200e      	movs	r0, #14
 8000fdc:	b002      	add	sp, #8
 8000fde:	e8bd 4010 	ldmia.w	sp!, {r4, lr}
 8000fe2:	f001 ba41 	b.w	8002468 <HAL_NVIC_EnableIRQ>
 8000fe6:	bf00      	nop
 8000fe8:	40023800 	.word	0x40023800

08000fec <MX_FREERTOS_Init>:
 8000fec:	b570      	push	{r4, r5, r6, lr}
 8000fee:	b0a6      	sub	sp, #152	; 0x98
 8000ff0:	2500      	movs	r5, #0
 8000ff2:	4c5c      	ldr	r4, [pc, #368]	; (8001164 <MX_FREERTOS_Init+0x178>)
 8000ff4:	4668      	mov	r0, sp
 8000ff6:	9500      	str	r5, [sp, #0]
 8000ff8:	f003 fd62 	bl	8004ac0 <osMutexCreate>
 8000ffc:	4b5a      	ldr	r3, [pc, #360]	; (8001168 <MX_FREERTOS_Init+0x17c>)
 8000ffe:	4602      	mov	r2, r0
 8001000:	a801      	add	r0, sp, #4
 8001002:	9501      	str	r5, [sp, #4]
 8001004:	ae1b      	add	r6, sp, #108	; 0x6c
 8001006:	601a      	str	r2, [r3, #0]
 8001008:	f003 fd5a 	bl	8004ac0 <osMutexCreate>
 800100c:	4a57      	ldr	r2, [pc, #348]	; (800116c <MX_FREERTOS_Init+0x180>)
 800100e:	2101      	movs	r1, #1
 8001010:	4b57      	ldr	r3, [pc, #348]	; (8001170 <MX_FREERTOS_Init+0x184>)
 8001012:	6010      	str	r0, [r2, #0]
 8001014:	462a      	mov	r2, r5
 8001016:	a802      	add	r0, sp, #8
 8001018:	9302      	str	r3, [sp, #8]
 800101a:	f003 fce1 	bl	80049e0 <osTimerCreate>
 800101e:	4a55      	ldr	r2, [pc, #340]	; (8001174 <MX_FREERTOS_Init+0x188>)
 8001020:	4b55      	ldr	r3, [pc, #340]	; (8001178 <MX_FREERTOS_Init+0x18c>)
 8001022:	4629      	mov	r1, r5
 8001024:	6010      	str	r0, [r2, #0]
 8001026:	462a      	mov	r2, r5
 8001028:	a803      	add	r0, sp, #12
 800102a:	9303      	str	r3, [sp, #12]
 800102c:	f003 fcd8 	bl	80049e0 <osTimerCreate>
 8001030:	4a52      	ldr	r2, [pc, #328]	; (800117c <MX_FREERTOS_Init+0x190>)
 8001032:	4b53      	ldr	r3, [pc, #332]	; (8001180 <MX_FREERTOS_Init+0x194>)
 8001034:	2101      	movs	r1, #1
 8001036:	6010      	str	r0, [r2, #0]
 8001038:	462a      	mov	r2, r5
 800103a:	a804      	add	r0, sp, #16
 800103c:	9304      	str	r3, [sp, #16]
 800103e:	f003 fccf 	bl	80049e0 <osTimerCreate>
 8001042:	4a50      	ldr	r2, [pc, #320]	; (8001184 <MX_FREERTOS_Init+0x198>)
 8001044:	4b50      	ldr	r3, [pc, #320]	; (8001188 <MX_FREERTOS_Init+0x19c>)
 8001046:	4629      	mov	r1, r5
 8001048:	6010      	str	r0, [r2, #0]
 800104a:	462a      	mov	r2, r5
 800104c:	a805      	add	r0, sp, #20
 800104e:	9305      	str	r3, [sp, #20]
 8001050:	f003 fcc6 	bl	80049e0 <osTimerCreate>
 8001054:	4a4d      	ldr	r2, [pc, #308]	; (800118c <MX_FREERTOS_Init+0x1a0>)
 8001056:	ab06      	add	r3, sp, #24
 8001058:	6010      	str	r0, [r2, #0]
 800105a:	e894 0003 	ldmia.w	r4, {r0, r1}
 800105e:	e883 0003 	stmia.w	r3, {r0, r1}
 8001062:	4629      	mov	r1, r5
 8001064:	4618      	mov	r0, r3
 8001066:	f003 fdbb 	bl	8004be0 <osMessageCreate>
 800106a:	4a49      	ldr	r2, [pc, #292]	; (8001190 <MX_FREERTOS_Init+0x1a4>)
 800106c:	ab08      	add	r3, sp, #32
 800106e:	6010      	str	r0, [r2, #0]
 8001070:	e894 0003 	ldmia.w	r4, {r0, r1}
 8001074:	e883 0003 	stmia.w	r3, {r0, r1}
 8001078:	4629      	mov	r1, r5
 800107a:	4618      	mov	r0, r3
 800107c:	f003 fdb0 	bl	8004be0 <osMessageCreate>
 8001080:	f104 0208 	add.w	r2, r4, #8
 8001084:	4943      	ldr	r1, [pc, #268]	; (8001194 <MX_FREERTOS_Init+0x1a8>)
 8001086:	ab0a      	add	r3, sp, #40	; 0x28
 8001088:	6008      	str	r0, [r1, #0]
 800108a:	e892 0003 	ldmia.w	r2, {r0, r1}
 800108e:	e883 0003 	stmia.w	r3, {r0, r1}
 8001092:	4629      	mov	r1, r5
 8001094:	4618      	mov	r0, r3
 8001096:	f003 fda3 	bl	8004be0 <osMessageCreate>
 800109a:	4b3f      	ldr	r3, [pc, #252]	; (8001198 <MX_FREERTOS_Init+0x1ac>)
 800109c:	2205      	movs	r2, #5
 800109e:	4629      	mov	r1, r5
 80010a0:	6018      	str	r0, [r3, #0]
 80010a2:	234c      	movs	r3, #76	; 0x4c
 80010a4:	a820      	add	r0, sp, #128	; 0x80
 80010a6:	9622      	str	r6, [sp, #136]	; 0x88
 80010a8:	e9cd 2320 	strd	r2, r3, [sp, #128]	; 0x80
 80010ac:	f003 fe0e 	bl	8004ccc <osMailCreate>
 80010b0:	f104 0e10 	add.w	lr, r4, #16
 80010b4:	4b39      	ldr	r3, [pc, #228]	; (800119c <MX_FREERTOS_Init+0x1b0>)
 80010b6:	f10d 0c30 	add.w	ip, sp, #48	; 0x30
 80010ba:	6018      	str	r0, [r3, #0]
 80010bc:	e8be 000f 	ldmia.w	lr!, {r0, r1, r2, r3}
 80010c0:	e8ac 000f 	stmia.w	ip!, {r0, r1, r2, r3}
 80010c4:	f8de 3000 	ldr.w	r3, [lr]
 80010c8:	4629      	mov	r1, r5
 80010ca:	a80c      	add	r0, sp, #48	; 0x30
 80010cc:	f8cc 3000 	str.w	r3, [ip]
 80010d0:	f003 fc56 	bl	8004980 <osThreadCreate>
 80010d4:	f104 0e24 	add.w	lr, r4, #36	; 0x24
 80010d8:	4b31      	ldr	r3, [pc, #196]	; (80011a0 <MX_FREERTOS_Init+0x1b4>)
 80010da:	f10d 0c44 	add.w	ip, sp, #68	; 0x44
 80010de:	6018      	str	r0, [r3, #0]
 80010e0:	e8be 000f 	ldmia.w	lr!, {r0, r1, r2, r3}
 80010e4:	e8ac 000f 	stmia.w	ip!, {r0, r1, r2, r3}
 80010e8:	f8de 3000 	ldr.w	r3, [lr]
 80010ec:	4629      	mov	r1, r5
 80010ee:	a811      	add	r0, sp, #68	; 0x44
 80010f0:	f8cc 3000 	str.w	r3, [ip]
 80010f4:	f003 fc44 	bl	8004980 <osThreadCreate>
 80010f8:	f104 0e38 	add.w	lr, r4, #56	; 0x38
 80010fc:	4b29      	ldr	r3, [pc, #164]	; (80011a4 <MX_FREERTOS_Init+0x1b8>)
 80010fe:	f10d 0c58 	add.w	ip, sp, #88	; 0x58
 8001102:	6018      	str	r0, [r3, #0]
 8001104:	e8be 000f 	ldmia.w	lr!, {r0, r1, r2, r3}
 8001108:	e8ac 000f 	stmia.w	ip!, {r0, r1, r2, r3}
 800110c:	f8de 3000 	ldr.w	r3, [lr]
 8001110:	4629      	mov	r1, r5
 8001112:	a816      	add	r0, sp, #88	; 0x58
 8001114:	f8cc 3000 	str.w	r3, [ip]
 8001118:	f003 fc32 	bl	8004980 <osThreadCreate>
 800111c:	f104 0e4c 	add.w	lr, r4, #76	; 0x4c
 8001120:	4b21      	ldr	r3, [pc, #132]	; (80011a8 <MX_FREERTOS_Init+0x1bc>)
 8001122:	46b4      	mov	ip, r6
 8001124:	3460      	adds	r4, #96	; 0x60
 8001126:	6018      	str	r0, [r3, #0]
 8001128:	e8be 000f 	ldmia.w	lr!, {r0, r1, r2, r3}
 800112c:	e8ac 000f 	stmia.w	ip!, {r0, r1, r2, r3}
 8001130:	f8de 3000 	ldr.w	r3, [lr]
 8001134:	4629      	mov	r1, r5
 8001136:	4630      	mov	r0, r6
 8001138:	f8cc 3000 	str.w	r3, [ip]
 800113c:	f003 fc20 	bl	8004980 <osThreadCreate>
 8001140:	4b1a      	ldr	r3, [pc, #104]	; (80011ac <MX_FREERTOS_Init+0x1c0>)
 8001142:	f10d 0c80 	add.w	ip, sp, #128	; 0x80
 8001146:	6018      	str	r0, [r3, #0]
 8001148:	cc0f      	ldmia	r4!, {r0, r1, r2, r3}
 800114a:	e8ac 000f 	stmia.w	ip!, {r0, r1, r2, r3}
 800114e:	6823      	ldr	r3, [r4, #0]
 8001150:	4629      	mov	r1, r5
 8001152:	a820      	add	r0, sp, #128	; 0x80
 8001154:	f8cc 3000 	str.w	r3, [ip]
 8001158:	f003 fc12 	bl	8004980 <osThreadCreate>
 800115c:	4b14      	ldr	r3, [pc, #80]	; (80011b0 <MX_FREERTOS_Init+0x1c4>)
 800115e:	6018      	str	r0, [r3, #0]
 8001160:	b026      	add	sp, #152	; 0x98
 8001162:	bd70      	pop	{r4, r5, r6, pc}
 8001164:	0800beb8 	.word	0x0800beb8
 8001168:	20000268 	.word	0x20000268
 800116c:	2000026c 	.word	0x2000026c
 8001170:	08007c69 	.word	0x08007c69
 8001174:	20000258 	.word	0x20000258
 8001178:	08007c7d 	.word	0x08007c7d
 800117c:	2000025c 	.word	0x2000025c
 8001180:	0800803d 	.word	0x0800803d
 8001184:	20000260 	.word	0x20000260
 8001188:	08008051 	.word	0x08008051
 800118c:	20000264 	.word	0x20000264
 8001190:	20000274 	.word	0x20000274
 8001194:	20000278 	.word	0x20000278
 8001198:	2000027c 	.word	0x2000027c
 800119c:	20000270 	.word	0x20000270
 80011a0:	20000254 	.word	0x20000254
 80011a4:	20000248 	.word	0x20000248
 80011a8:	20000244 	.word	0x20000244
 80011ac:	2000024c 	.word	0x2000024c
 80011b0:	20000250 	.word	0x20000250

080011b4 <opt_get_timer>:
 80011b4:	2803      	cmp	r0, #3
 80011b6:	d80f      	bhi.n	80011d8 <opt_get_timer+0x24>
 80011b8:	e8df f000 	tbb	[pc, r0]
 80011bc:	0205080b 	.word	0x0205080b
 80011c0:	4b06      	ldr	r3, [pc, #24]	; (80011dc <opt_get_timer+0x28>)
 80011c2:	6818      	ldr	r0, [r3, #0]
 80011c4:	4770      	bx	lr
 80011c6:	4b06      	ldr	r3, [pc, #24]	; (80011e0 <opt_get_timer+0x2c>)
 80011c8:	6818      	ldr	r0, [r3, #0]
 80011ca:	4770      	bx	lr
 80011cc:	4b05      	ldr	r3, [pc, #20]	; (80011e4 <opt_get_timer+0x30>)
 80011ce:	6818      	ldr	r0, [r3, #0]
 80011d0:	4770      	bx	lr
 80011d2:	4b05      	ldr	r3, [pc, #20]	; (80011e8 <opt_get_timer+0x34>)
 80011d4:	6818      	ldr	r0, [r3, #0]
 80011d6:	4770      	bx	lr
 80011d8:	2000      	movs	r0, #0
 80011da:	4770      	bx	lr
 80011dc:	20000264 	.word	0x20000264
 80011e0:	20000260 	.word	0x20000260
 80011e4:	2000025c 	.word	0x2000025c
 80011e8:	20000258 	.word	0x20000258

080011ec <opt_get_queue>:
 80011ec:	2801      	cmp	r0, #1
 80011ee:	d004      	beq.n	80011fa <opt_get_queue+0xe>
 80011f0:	2802      	cmp	r0, #2
 80011f2:	d008      	beq.n	8001206 <opt_get_queue+0x1a>
 80011f4:	b120      	cbz	r0, 8001200 <opt_get_queue+0x14>
 80011f6:	2000      	movs	r0, #0
 80011f8:	4770      	bx	lr
 80011fa:	4b04      	ldr	r3, [pc, #16]	; (800120c <opt_get_queue+0x20>)
 80011fc:	6818      	ldr	r0, [r3, #0]
 80011fe:	4770      	bx	lr
 8001200:	4b03      	ldr	r3, [pc, #12]	; (8001210 <opt_get_queue+0x24>)
 8001202:	6818      	ldr	r0, [r3, #0]
 8001204:	4770      	bx	lr
 8001206:	4b03      	ldr	r3, [pc, #12]	; (8001214 <opt_get_queue+0x28>)
 8001208:	6818      	ldr	r0, [r3, #0]
 800120a:	4770      	bx	lr
 800120c:	20000278 	.word	0x20000278
 8001210:	20000274 	.word	0x20000274
 8001214:	2000027c 	.word	0x2000027c

08001218 <opt_get_mutex>:
 8001218:	b130      	cbz	r0, 8001228 <opt_get_mutex+0x10>
 800121a:	2801      	cmp	r0, #1
 800121c:	d102      	bne.n	8001224 <opt_get_mutex+0xc>
 800121e:	4b04      	ldr	r3, [pc, #16]	; (8001230 <opt_get_mutex+0x18>)
 8001220:	6818      	ldr	r0, [r3, #0]
 8001222:	4770      	bx	lr
 8001224:	2000      	movs	r0, #0
 8001226:	4770      	bx	lr
 8001228:	4b02      	ldr	r3, [pc, #8]	; (8001234 <opt_get_mutex+0x1c>)
 800122a:	6818      	ldr	r0, [r3, #0]
 800122c:	4770      	bx	lr
 800122e:	bf00      	nop
 8001230:	2000026c 	.word	0x2000026c
 8001234:	20000268 	.word	0x20000268

08001238 <opt_get_bus_mail>:
 8001238:	4b01      	ldr	r3, [pc, #4]	; (8001240 <opt_get_bus_mail+0x8>)
 800123a:	6818      	ldr	r0, [r3, #0]
 800123c:	4770      	bx	lr
 800123e:	bf00      	nop
 8001240:	20000270 	.word	0x20000270

08001244 <HAL_Delay>:
 8001244:	f003 bbc4 	b.w	80049d0 <osDelay>

08001248 <MX_GPIO_Init>:
 8001248:	e92d 4ff0 	stmdb	sp!, {r4, r5, r6, r7, r8, r9, sl, fp, lr}
 800124c:	4b80      	ldr	r3, [pc, #512]	; (8001450 <MX_GPIO_Init+0x208>)
 800124e:	b08f      	sub	sp, #60	; 0x3c
 8001250:	2400      	movs	r4, #0
 8001252:	f8df a218 	ldr.w	sl, [pc, #536]	; 800146c <MX_GPIO_Init+0x224>
 8001256:	4d7f      	ldr	r5, [pc, #508]	; (8001454 <MX_GPIO_Init+0x20c>)
 8001258:	f44f 7180 	mov.w	r1, #256	; 0x100
 800125c:	940c      	str	r4, [sp, #48]	; 0x30
 800125e:	4650      	mov	r0, sl
 8001260:	f64f 76ff 	movw	r6, #65535	; 0xffff
 8001264:	2703      	movs	r7, #3
 8001266:	f04f 0b00 	mov.w	fp, #0
 800126a:	f8df 8204 	ldr.w	r8, [pc, #516]	; 8001470 <MX_GPIO_Init+0x228>
 800126e:	f04f 0907 	mov.w	r9, #7
 8001272:	e9cd 4408 	strd	r4, r4, [sp, #32]
 8001276:	e9cd 440a 	strd	r4, r4, [sp, #40]	; 0x28
 800127a:	6b1a      	ldr	r2, [r3, #48]	; 0x30
 800127c:	f042 0210 	orr.w	r2, r2, #16
 8001280:	631a      	str	r2, [r3, #48]	; 0x30
 8001282:	6b1a      	ldr	r2, [r3, #48]	; 0x30
 8001284:	f002 0210 	and.w	r2, r2, #16
 8001288:	9200      	str	r2, [sp, #0]
 800128a:	9a00      	ldr	r2, [sp, #0]
 800128c:	6b1a      	ldr	r2, [r3, #48]	; 0x30
 800128e:	f042 0204 	orr.w	r2, r2, #4
 8001292:	631a      	str	r2, [r3, #48]	; 0x30
 8001294:	6b1a      	ldr	r2, [r3, #48]	; 0x30
 8001296:	f002 0204 	and.w	r2, r2, #4
 800129a:	9201      	str	r2, [sp, #4]
 800129c:	9a01      	ldr	r2, [sp, #4]
 800129e:	6b1a      	ldr	r2, [r3, #48]	; 0x30
 80012a0:	f042 0220 	orr.w	r2, r2, #32
 80012a4:	631a      	str	r2, [r3, #48]	; 0x30
 80012a6:	6b1a      	ldr	r2, [r3, #48]	; 0x30
 80012a8:	f002 0220 	and.w	r2, r2, #32
 80012ac:	9202      	str	r2, [sp, #8]
 80012ae:	9a02      	ldr	r2, [sp, #8]
 80012b0:	6b1a      	ldr	r2, [r3, #48]	; 0x30
 80012b2:	f042 0280 	orr.w	r2, r2, #128	; 0x80
 80012b6:	631a      	str	r2, [r3, #48]	; 0x30
 80012b8:	6b1a      	ldr	r2, [r3, #48]	; 0x30
 80012ba:	f002 0280 	and.w	r2, r2, #128	; 0x80
 80012be:	9203      	str	r2, [sp, #12]
 80012c0:	9a03      	ldr	r2, [sp, #12]
 80012c2:	6b1a      	ldr	r2, [r3, #48]	; 0x30
 80012c4:	f042 0201 	orr.w	r2, r2, #1
 80012c8:	631a      	str	r2, [r3, #48]	; 0x30
 80012ca:	6b1a      	ldr	r2, [r3, #48]	; 0x30
 80012cc:	f002 0201 	and.w	r2, r2, #1
 80012d0:	9204      	str	r2, [sp, #16]
 80012d2:	9a04      	ldr	r2, [sp, #16]
 80012d4:	6b1a      	ldr	r2, [r3, #48]	; 0x30
 80012d6:	f042 0202 	orr.w	r2, r2, #2
 80012da:	631a      	str	r2, [r3, #48]	; 0x30
 80012dc:	6b1a      	ldr	r2, [r3, #48]	; 0x30
 80012de:	f002 0202 	and.w	r2, r2, #2
 80012e2:	9205      	str	r2, [sp, #20]
 80012e4:	9a05      	ldr	r2, [sp, #20]
 80012e6:	6b1a      	ldr	r2, [r3, #48]	; 0x30
 80012e8:	f042 0240 	orr.w	r2, r2, #64	; 0x40
 80012ec:	631a      	str	r2, [r3, #48]	; 0x30
 80012ee:	6b1a      	ldr	r2, [r3, #48]	; 0x30
 80012f0:	f002 0240 	and.w	r2, r2, #64	; 0x40
 80012f4:	9206      	str	r2, [sp, #24]
 80012f6:	9a06      	ldr	r2, [sp, #24]
 80012f8:	6b1a      	ldr	r2, [r3, #48]	; 0x30
 80012fa:	f042 0208 	orr.w	r2, r2, #8
 80012fe:	631a      	str	r2, [r3, #48]	; 0x30
 8001300:	4622      	mov	r2, r4
 8001302:	6b1b      	ldr	r3, [r3, #48]	; 0x30
 8001304:	f003 0308 	and.w	r3, r3, #8
 8001308:	9307      	str	r3, [sp, #28]
 800130a:	9b07      	ldr	r3, [sp, #28]
 800130c:	f001 fc84 	bl	8002c18 <HAL_GPIO_WritePin>
 8001310:	4622      	mov	r2, r4
 8001312:	4628      	mov	r0, r5
 8001314:	f44f 7198 	mov.w	r1, #304	; 0x130
 8001318:	f001 fc7e 	bl	8002c18 <HAL_GPIO_WritePin>
 800131c:	2201      	movs	r2, #1
 800131e:	4628      	mov	r0, r5
 8001320:	2140      	movs	r1, #64	; 0x40
 8001322:	f001 fc79 	bl	8002c18 <HAL_GPIO_WritePin>
 8001326:	a908      	add	r1, sp, #32
 8001328:	484b      	ldr	r0, [pc, #300]	; (8001458 <MX_GPIO_Init+0x210>)
 800132a:	940a      	str	r4, [sp, #40]	; 0x28
 800132c:	e9cd 6708 	strd	r6, r7, [sp, #32]
 8001330:	f001 fb5a 	bl	80029e8 <HAL_GPIO_Init>
 8001334:	a908      	add	r1, sp, #32
 8001336:	4849      	ldr	r0, [pc, #292]	; (800145c <MX_GPIO_Init+0x214>)
 8001338:	940a      	str	r4, [sp, #40]	; 0x28
 800133a:	e9cd 6708 	strd	r6, r7, [sp, #32]
 800133e:	f001 fb53 	bl	80029e8 <HAL_GPIO_Init>
 8001342:	f64f 623f 	movw	r2, #65087	; 0xfe3f
 8001346:	2303      	movs	r3, #3
 8001348:	a908      	add	r1, sp, #32
 800134a:	4650      	mov	r0, sl
 800134c:	940a      	str	r4, [sp, #40]	; 0x28
 800134e:	e9cd 2308 	strd	r2, r3, [sp, #32]
 8001352:	f001 fb49 	bl	80029e8 <HAL_GPIO_Init>
 8001356:	4650      	mov	r0, sl
 8001358:	f44f 7280 	mov.w	r2, #256	; 0x100
 800135c:	f04f 0a00 	mov.w	sl, #0
 8001360:	2301      	movs	r3, #1
 8001362:	a908      	add	r1, sp, #32
 8001364:	e9cd 2308 	strd	r2, r3, [sp, #32]
 8001368:	e9cd ab0a 	strd	sl, fp, [sp, #40]	; 0x28
 800136c:	f001 fb3c 	bl	80029e8 <HAL_GPIO_Init>
 8001370:	2203      	movs	r2, #3
 8001372:	2303      	movs	r3, #3
 8001374:	a908      	add	r1, sp, #32
 8001376:	483a      	ldr	r0, [pc, #232]	; (8001460 <MX_GPIO_Init+0x218>)
 8001378:	940a      	str	r4, [sp, #40]	; 0x28
 800137a:	e9cd 2308 	strd	r2, r3, [sp, #32]
 800137e:	f001 fb33 	bl	80029e8 <HAL_GPIO_Init>
 8001382:	2210      	movs	r2, #16
 8001384:	2301      	movs	r3, #1
 8001386:	a908      	add	r1, sp, #32
 8001388:	4628      	mov	r0, r5
 800138a:	e9cd 2308 	strd	r2, r3, [sp, #32]
 800138e:	2202      	movs	r2, #2
 8001390:	2300      	movs	r3, #0
 8001392:	e9cd 230a 	strd	r2, r3, [sp, #40]	; 0x28
 8001396:	f001 fb27 	bl	80029e8 <HAL_GPIO_Init>
 800139a:	f44f 7290 	mov.w	r2, #288	; 0x120
 800139e:	2301      	movs	r3, #1
 80013a0:	a908      	add	r1, sp, #32
 80013a2:	4628      	mov	r0, r5
 80013a4:	e9cd 2308 	strd	r2, r3, [sp, #32]
 80013a8:	e9cd ab0a 	strd	sl, fp, [sp, #40]	; 0x28
 80013ac:	f001 fb1c 	bl	80029e8 <HAL_GPIO_Init>
 80013b0:	2240      	movs	r2, #64	; 0x40
 80013b2:	2311      	movs	r3, #17
 80013b4:	a908      	add	r1, sp, #32
 80013b6:	4628      	mov	r0, r5
 80013b8:	e9cd 2308 	strd	r2, r3, [sp, #32]
 80013bc:	e9cd ab0a 	strd	sl, fp, [sp, #40]	; 0x28
 80013c0:	f001 fb12 	bl	80029e8 <HAL_GPIO_Init>
 80013c4:	f248 0280 	movw	r2, #32896	; 0x8080
 80013c8:	2303      	movs	r3, #3
 80013ca:	4628      	mov	r0, r5
 80013cc:	a908      	add	r1, sp, #32
 80013ce:	940a      	str	r4, [sp, #40]	; 0x28
 80013d0:	e9cd 2308 	strd	r2, r3, [sp, #32]
 80013d4:	f001 fb08 	bl	80029e8 <HAL_GPIO_Init>
 80013d8:	f24f 32ff 	movw	r2, #62463	; 0xf3ff
 80013dc:	2303      	movs	r3, #3
 80013de:	a908      	add	r1, sp, #32
 80013e0:	4640      	mov	r0, r8
 80013e2:	940a      	str	r4, [sp, #40]	; 0x28
 80013e4:	e9cd 2308 	strd	r2, r3, [sp, #32]
 80013e8:	f001 fafe 	bl	80029e8 <HAL_GPIO_Init>
 80013ec:	f64f 723f 	movw	r2, #65343	; 0xff3f
 80013f0:	2303      	movs	r3, #3
 80013f2:	a908      	add	r1, sp, #32
 80013f4:	481b      	ldr	r0, [pc, #108]	; (8001464 <MX_GPIO_Init+0x21c>)
 80013f6:	940a      	str	r4, [sp, #40]	; 0x28
 80013f8:	e9cd 2308 	strd	r2, r3, [sp, #32]
 80013fc:	f001 faf4 	bl	80029e8 <HAL_GPIO_Init>
 8001400:	f44f 6280 	mov.w	r2, #1024	; 0x400
 8001404:	2302      	movs	r3, #2
 8001406:	a908      	add	r1, sp, #32
 8001408:	4640      	mov	r0, r8
 800140a:	f8cd 9030 	str.w	r9, [sp, #48]	; 0x30
 800140e:	e9cd 2308 	strd	r2, r3, [sp, #32]
 8001412:	2200      	movs	r2, #0
 8001414:	2303      	movs	r3, #3
 8001416:	e9cd 230a 	strd	r2, r3, [sp, #40]	; 0x28
 800141a:	f001 fae5 	bl	80029e8 <HAL_GPIO_Init>
 800141e:	f44f 6200 	mov.w	r2, #2048	; 0x800
 8001422:	2302      	movs	r3, #2
 8001424:	4640      	mov	r0, r8
 8001426:	a908      	add	r1, sp, #32
 8001428:	f8cd 9030 	str.w	r9, [sp, #48]	; 0x30
 800142c:	e9cd 2308 	strd	r2, r3, [sp, #32]
 8001430:	2201      	movs	r2, #1
 8001432:	2303      	movs	r3, #3
 8001434:	e9cd 230a 	strd	r2, r3, [sp, #40]	; 0x28
 8001438:	f001 fad6 	bl	80029e8 <HAL_GPIO_Init>
 800143c:	a908      	add	r1, sp, #32
 800143e:	480a      	ldr	r0, [pc, #40]	; (8001468 <MX_GPIO_Init+0x220>)
 8001440:	940a      	str	r4, [sp, #40]	; 0x28
 8001442:	e9cd 6708 	strd	r6, r7, [sp, #32]
 8001446:	f001 facf 	bl	80029e8 <HAL_GPIO_Init>
 800144a:	b00f      	add	sp, #60	; 0x3c
 800144c:	e8bd 8ff0 	ldmia.w	sp!, {r4, r5, r6, r7, r8, r9, sl, fp, pc}
 8001450:	40023800 	.word	0x40023800
 8001454:	40020000 	.word	0x40020000
 8001458:	40021000 	.word	0x40021000
 800145c:	40020800 	.word	0x40020800
 8001460:	40021c00 	.word	0x40021c00
 8001464:	40021800 	.word	0x40021800
 8001468:	40020c00 	.word	0x40020c00
 800146c:	40021400 	.word	0x40021400
 8001470:	40020400 	.word	0x40020400

08001474 <MX_IWDG_Init>:
 8001474:	b508      	push	{r3, lr}
 8001476:	4808      	ldr	r0, [pc, #32]	; (8001498 <MX_IWDG_Init+0x24>)
 8001478:	f44f 63fa 	mov.w	r3, #2000	; 0x7d0
 800147c:	4907      	ldr	r1, [pc, #28]	; (800149c <MX_IWDG_Init+0x28>)
 800147e:	2203      	movs	r2, #3
 8001480:	60c3      	str	r3, [r0, #12]
 8001482:	6083      	str	r3, [r0, #8]
 8001484:	e9c0 1200 	strd	r1, r2, [r0]
 8001488:	f001 fbd4 	bl	8002c34 <HAL_IWDG_Init>
 800148c:	b900      	cbnz	r0, 8001490 <MX_IWDG_Init+0x1c>
 800148e:	bd08      	pop	{r3, pc}
 8001490:	e8bd 4008 	ldmia.w	sp!, {r3, lr}
 8001494:	f000 b8ee 	b.w	8001674 <Error_Handler>
 8001498:	20000280 	.word	0x20000280
 800149c:	40003000 	.word	0x40003000

080014a0 <SystemClock_Config>:
 80014a0:	b510      	push	{r4, lr}
 80014a2:	b094      	sub	sp, #80	; 0x50
 80014a4:	2230      	movs	r2, #48	; 0x30
 80014a6:	2100      	movs	r1, #0
 80014a8:	a808      	add	r0, sp, #32
 80014aa:	f007 fe8d 	bl	80091c8 <memset>
 80014ae:	2300      	movs	r3, #0
 80014b0:	4a25      	ldr	r2, [pc, #148]	; (8001548 <SystemClock_Config+0xa8>)
 80014b2:	a808      	add	r0, sp, #32
 80014b4:	9306      	str	r3, [sp, #24]
 80014b6:	e9cd 3302 	strd	r3, r3, [sp, #8]
 80014ba:	e9cd 3304 	strd	r3, r3, [sp, #16]
 80014be:	6c11      	ldr	r1, [r2, #64]	; 0x40
 80014c0:	f041 5180 	orr.w	r1, r1, #268435456	; 0x10000000
 80014c4:	6411      	str	r1, [r2, #64]	; 0x40
 80014c6:	6c12      	ldr	r2, [r2, #64]	; 0x40
 80014c8:	4920      	ldr	r1, [pc, #128]	; (800154c <SystemClock_Config+0xac>)
 80014ca:	f002 5280 	and.w	r2, r2, #268435456	; 0x10000000
 80014ce:	9200      	str	r2, [sp, #0]
 80014d0:	9a00      	ldr	r2, [sp, #0]
 80014d2:	680a      	ldr	r2, [r1, #0]
 80014d4:	f422 4240 	bic.w	r2, r2, #49152	; 0xc000
 80014d8:	f442 4280 	orr.w	r2, r2, #16384	; 0x4000
 80014dc:	600a      	str	r2, [r1, #0]
 80014de:	680a      	ldr	r2, [r1, #0]
 80014e0:	210c      	movs	r1, #12
 80014e2:	930f      	str	r3, [sp, #60]	; 0x3c
 80014e4:	f402 4340 	and.w	r3, r2, #49152	; 0xc000
 80014e8:	22d8      	movs	r2, #216	; 0xd8
 80014ea:	9110      	str	r1, [sp, #64]	; 0x40
 80014ec:	210a      	movs	r1, #10
 80014ee:	9211      	str	r2, [sp, #68]	; 0x44
 80014f0:	2201      	movs	r2, #1
 80014f2:	9301      	str	r3, [sp, #4]
 80014f4:	2302      	movs	r3, #2
 80014f6:	920b      	str	r2, [sp, #44]	; 0x2c
 80014f8:	920d      	str	r2, [sp, #52]	; 0x34
 80014fa:	2210      	movs	r2, #16
 80014fc:	9c01      	ldr	r4, [sp, #4]
 80014fe:	9108      	str	r1, [sp, #32]
 8001500:	930e      	str	r3, [sp, #56]	; 0x38
 8001502:	9312      	str	r3, [sp, #72]	; 0x48
 8001504:	920c      	str	r2, [sp, #48]	; 0x30
 8001506:	9313      	str	r3, [sp, #76]	; 0x4c
 8001508:	f001 fbce 	bl	8002ca8 <HAL_RCC_OscConfig>
 800150c:	b108      	cbz	r0, 8001512 <SystemClock_Config+0x72>
 800150e:	b672      	cpsid	i
 8001510:	e7fe      	b.n	8001510 <SystemClock_Config+0x70>
 8001512:	f44f 53a0 	mov.w	r3, #5120	; 0x1400
 8001516:	2200      	movs	r2, #0
 8001518:	a802      	add	r0, sp, #8
 800151a:	2104      	movs	r1, #4
 800151c:	ed9f 7b08 	vldr	d7, [pc, #32]	; 8001540 <SystemClock_Config+0xa0>
 8001520:	e9cd 2304 	strd	r2, r3, [sp, #16]
 8001524:	f44f 5380 	mov.w	r3, #4096	; 0x1000
 8001528:	ed8d 7b02 	vstr	d7, [sp, #8]
 800152c:	9306      	str	r3, [sp, #24]
 800152e:	f001 fdab 	bl	8003088 <HAL_RCC_ClockConfig>
 8001532:	b108      	cbz	r0, 8001538 <SystemClock_Config+0x98>
 8001534:	b672      	cpsid	i
 8001536:	e7fe      	b.n	8001536 <SystemClock_Config+0x96>
 8001538:	b014      	add	sp, #80	; 0x50
 800153a:	bd10      	pop	{r4, pc}
 800153c:	f3af 8000 	nop.w
 8001540:	0000000f 	.word	0x0000000f
 8001544:	00000002 	.word	0x00000002
 8001548:	40023800 	.word	0x40023800
 800154c:	40007000 	.word	0x40007000

08001550 <main>:
 8001550:	4b3b      	ldr	r3, [pc, #236]	; (8001640 <main+0xf0>)
 8001552:	b500      	push	{lr}
 8001554:	6f5a      	ldr	r2, [r3, #116]	; 0x74
 8001556:	b085      	sub	sp, #20
 8001558:	2a00      	cmp	r2, #0
 800155a:	db58      	blt.n	800160e <main+0xbe>
 800155c:	6f5a      	ldr	r2, [r3, #116]	; 0x74
 800155e:	0050      	lsls	r0, r2, #1
 8001560:	d40c      	bmi.n	800157c <main+0x2c>
 8001562:	6f5a      	ldr	r2, [r3, #116]	; 0x74
 8001564:	0091      	lsls	r1, r2, #2
 8001566:	d469      	bmi.n	800163c <main+0xec>
 8001568:	6f5a      	ldr	r2, [r3, #116]	; 0x74
 800156a:	00d2      	lsls	r2, r2, #3
 800156c:	d464      	bmi.n	8001638 <main+0xe8>
 800156e:	6f5b      	ldr	r3, [r3, #116]	; 0x74
 8001570:	f013 6f80 	tst.w	r3, #67108864	; 0x4000000
 8001574:	bf0c      	ite	eq
 8001576:	2300      	moveq	r3, #0
 8001578:	2305      	movne	r3, #5
 800157a:	e000      	b.n	800157e <main+0x2e>
 800157c:	2302      	movs	r3, #2
 800157e:	4a30      	ldr	r2, [pc, #192]	; (8001640 <main+0xf0>)
 8001580:	2400      	movs	r4, #0
 8001582:	4d30      	ldr	r5, [pc, #192]	; (8001644 <main+0xf4>)
 8001584:	702b      	strb	r3, [r5, #0]
 8001586:	6f53      	ldr	r3, [r2, #116]	; 0x74
 8001588:	f043 7380 	orr.w	r3, r3, #16777216	; 0x1000000
 800158c:	6753      	str	r3, [r2, #116]	; 0x74
 800158e:	e9cd 4400 	strd	r4, r4, [sp]
 8001592:	e9cd 4402 	strd	r4, r4, [sp, #8]
 8001596:	f000 ff75 	bl	8002484 <HAL_MPU_Disable>
 800159a:	2301      	movs	r3, #1
 800159c:	f248 721f 	movw	r2, #34591	; 0x871f
 80015a0:	4668      	mov	r0, sp
 80015a2:	f8ad 3000 	strh.w	r3, [sp]
 80015a6:	f240 1301 	movw	r3, #257	; 0x101
 80015aa:	9401      	str	r4, [sp, #4]
 80015ac:	e9cd 2302 	strd	r2, r3, [sp, #8]
 80015b0:	f000 ff86 	bl	80024c0 <HAL_MPU_ConfigRegion>
 80015b4:	2004      	movs	r0, #4
 80015b6:	f000 ff73 	bl	80024a0 <HAL_MPU_Enable>
 80015ba:	f000 fb51 	bl	8001c60 <HAL_Init>
 80015be:	f7ff ff6f 	bl	80014a0 <SystemClock_Config>
 80015c2:	f7ff fe41 	bl	8001248 <MX_GPIO_Init>
 80015c6:	f7ff fc99 	bl	8000efc <MX_CAN1_Init>
 80015ca:	f000 f991 	bl	80018f0 <MX_USART1_UART_Init>
 80015ce:	f000 f953 	bl	8001878 <MX_UART4_Init>
 80015d2:	f000 f9ab 	bl	800192c <MX_USART2_UART_Init>
 80015d6:	f7ff fcef 	bl	8000fb8 <MX_DMA_Init>
 80015da:	f000 f96b 	bl	80018b4 <MX_UART7_Init>
 80015de:	f7ff ff49 	bl	8001474 <MX_IWDG_Init>
 80015e2:	f007 fb13 	bl	8008c0c <retarget_init>
 80015e6:	4818      	ldr	r0, [pc, #96]	; (8001648 <main+0xf8>)
 80015e8:	f008 fae6 	bl	8009bb8 <puts>
 80015ec:	4817      	ldr	r0, [pc, #92]	; (800164c <main+0xfc>)
 80015ee:	f008 fae3 	bl	8009bb8 <puts>
 80015f2:	4817      	ldr	r0, [pc, #92]	; (8001650 <main+0x100>)
 80015f4:	f008 fae0 	bl	8009bb8 <puts>
 80015f8:	782b      	ldrb	r3, [r5, #0]
 80015fa:	1eda      	subs	r2, r3, #3
 80015fc:	2a01      	cmp	r2, #1
 80015fe:	d908      	bls.n	8001612 <main+0xc2>
 8001600:	2b05      	cmp	r3, #5
 8001602:	d010      	beq.n	8001626 <main+0xd6>
 8001604:	f7ff fcf2 	bl	8000fec <MX_FREERTOS_Init>
 8001608:	f003 f9ac 	bl	8004964 <osKernelStart>
 800160c:	e7fe      	b.n	800160c <main+0xbc>
 800160e:	2301      	movs	r3, #1
 8001610:	e7b5      	b.n	800157e <main+0x2e>
 8001612:	f000 fb3d 	bl	8001c90 <HAL_GetTick>
 8001616:	2393      	movs	r3, #147	; 0x93
 8001618:	4601      	mov	r1, r0
 800161a:	4a0e      	ldr	r2, [pc, #56]	; (8001654 <main+0x104>)
 800161c:	480e      	ldr	r0, [pc, #56]	; (8001658 <main+0x108>)
 800161e:	f008 fa45 	bl	8009aac <iprintf>
 8001622:	782b      	ldrb	r3, [r5, #0]
 8001624:	e7ec      	b.n	8001600 <main+0xb0>
 8001626:	f000 fb33 	bl	8001c90 <HAL_GetTick>
 800162a:	2397      	movs	r3, #151	; 0x97
 800162c:	4601      	mov	r1, r0
 800162e:	4a09      	ldr	r2, [pc, #36]	; (8001654 <main+0x104>)
 8001630:	480a      	ldr	r0, [pc, #40]	; (800165c <main+0x10c>)
 8001632:	f008 fa3b 	bl	8009aac <iprintf>
 8001636:	e7e5      	b.n	8001604 <main+0xb4>
 8001638:	2304      	movs	r3, #4
 800163a:	e7a0      	b.n	800157e <main+0x2e>
 800163c:	2303      	movs	r3, #3
 800163e:	e79e      	b.n	800157e <main+0x2e>
 8001640:	40023800 	.word	0x40023800
 8001644:	20000290 	.word	0x20000290
 8001648:	0800bf68 	.word	0x0800bf68
 800164c:	0800bf80 	.word	0x0800bf80
 8001650:	0800bf94 	.word	0x0800bf94
 8001654:	0800bfac 	.word	0x0800bfac
 8001658:	0800bfb4 	.word	0x0800bfb4
 800165c:	0800bfec 	.word	0x0800bfec

08001660 <HAL_TIM_PeriodElapsedCallback>:
 8001660:	4b03      	ldr	r3, [pc, #12]	; (8001670 <HAL_TIM_PeriodElapsedCallback+0x10>)
 8001662:	6802      	ldr	r2, [r0, #0]
 8001664:	429a      	cmp	r2, r3
 8001666:	d000      	beq.n	800166a <HAL_TIM_PeriodElapsedCallback+0xa>
 8001668:	4770      	bx	lr
 800166a:	f000 bb05 	b.w	8001c78 <HAL_IncTick>
 800166e:	bf00      	nop
 8001670:	40001c00 	.word	0x40001c00

08001674 <Error_Handler>:
 8001674:	b672      	cpsid	i
 8001676:	e7fe      	b.n	8001676 <Error_Handler+0x2>

08001678 <HAL_MspInit>:
 8001678:	4b0e      	ldr	r3, [pc, #56]	; (80016b4 <HAL_MspInit+0x3c>)
 800167a:	2200      	movs	r2, #0
 800167c:	210f      	movs	r1, #15
 800167e:	f06f 0001 	mvn.w	r0, #1
 8001682:	b410      	push	{r4}
 8001684:	6c1c      	ldr	r4, [r3, #64]	; 0x40
 8001686:	b083      	sub	sp, #12
 8001688:	f044 5480 	orr.w	r4, r4, #268435456	; 0x10000000
 800168c:	641c      	str	r4, [r3, #64]	; 0x40
 800168e:	6c1c      	ldr	r4, [r3, #64]	; 0x40
 8001690:	f004 5480 	and.w	r4, r4, #268435456	; 0x10000000
 8001694:	9400      	str	r4, [sp, #0]
 8001696:	9c00      	ldr	r4, [sp, #0]
 8001698:	6c5c      	ldr	r4, [r3, #68]	; 0x44
 800169a:	f444 4480 	orr.w	r4, r4, #16384	; 0x4000
 800169e:	645c      	str	r4, [r3, #68]	; 0x44
 80016a0:	6c5b      	ldr	r3, [r3, #68]	; 0x44
 80016a2:	f403 4380 	and.w	r3, r3, #16384	; 0x4000
 80016a6:	9301      	str	r3, [sp, #4]
 80016a8:	9b01      	ldr	r3, [sp, #4]
 80016aa:	b003      	add	sp, #12
 80016ac:	f85d 4b04 	ldr.w	r4, [sp], #4
 80016b0:	f000 be9c 	b.w	80023ec <HAL_NVIC_SetPriority>
 80016b4:	40023800 	.word	0x40023800

080016b8 <HAL_InitTick>:
 80016b8:	4b23      	ldr	r3, [pc, #140]	; (8001748 <HAL_InitTick+0x90>)
 80016ba:	b570      	push	{r4, r5, r6, lr}
 80016bc:	6c1a      	ldr	r2, [r3, #64]	; 0x40
 80016be:	b088      	sub	sp, #32
 80016c0:	4605      	mov	r5, r0
 80016c2:	f042 0280 	orr.w	r2, r2, #128	; 0x80
 80016c6:	a901      	add	r1, sp, #4
 80016c8:	a803      	add	r0, sp, #12
 80016ca:	641a      	str	r2, [r3, #64]	; 0x40
 80016cc:	6c1b      	ldr	r3, [r3, #64]	; 0x40
 80016ce:	f003 0380 	and.w	r3, r3, #128	; 0x80
 80016d2:	9302      	str	r3, [sp, #8]
 80016d4:	9b02      	ldr	r3, [sp, #8]
 80016d6:	f001 fe01 	bl	80032dc <HAL_RCC_GetClockConfig>
 80016da:	9b06      	ldr	r3, [sp, #24]
 80016dc:	b9d3      	cbnz	r3, 8001714 <HAL_InitTick+0x5c>
 80016de:	f001 fddd 	bl	800329c <HAL_RCC_GetPCLK1Freq>
 80016e2:	4603      	mov	r3, r0
 80016e4:	4819      	ldr	r0, [pc, #100]	; (800174c <HAL_InitTick+0x94>)
 80016e6:	4c1a      	ldr	r4, [pc, #104]	; (8001750 <HAL_InitTick+0x98>)
 80016e8:	fba0 2303 	umull	r2, r3, r0, r3
 80016ec:	4919      	ldr	r1, [pc, #100]	; (8001754 <HAL_InitTick+0x9c>)
 80016ee:	2200      	movs	r2, #0
 80016f0:	4620      	mov	r0, r4
 80016f2:	0c9b      	lsrs	r3, r3, #18
 80016f4:	6021      	str	r1, [r4, #0]
 80016f6:	f240 31e7 	movw	r1, #999	; 0x3e7
 80016fa:	60a2      	str	r2, [r4, #8]
 80016fc:	3b01      	subs	r3, #1
 80016fe:	61a2      	str	r2, [r4, #24]
 8001700:	e9c4 1203 	strd	r1, r2, [r4, #12]
 8001704:	6063      	str	r3, [r4, #4]
 8001706:	f002 f861 	bl	80037cc <HAL_TIM_Base_Init>
 800170a:	4606      	mov	r6, r0
 800170c:	b130      	cbz	r0, 800171c <HAL_InitTick+0x64>
 800170e:	4630      	mov	r0, r6
 8001710:	b008      	add	sp, #32
 8001712:	bd70      	pop	{r4, r5, r6, pc}
 8001714:	f001 fdc2 	bl	800329c <HAL_RCC_GetPCLK1Freq>
 8001718:	0043      	lsls	r3, r0, #1
 800171a:	e7e3      	b.n	80016e4 <HAL_InitTick+0x2c>
 800171c:	4620      	mov	r0, r4
 800171e:	f002 f90b 	bl	8003938 <HAL_TIM_Base_Start_IT>
 8001722:	4606      	mov	r6, r0
 8001724:	2800      	cmp	r0, #0
 8001726:	d1f2      	bne.n	800170e <HAL_InitTick+0x56>
 8001728:	202c      	movs	r0, #44	; 0x2c
 800172a:	f000 fe9d 	bl	8002468 <HAL_NVIC_EnableIRQ>
 800172e:	2d0f      	cmp	r5, #15
 8001730:	d901      	bls.n	8001736 <HAL_InitTick+0x7e>
 8001732:	2601      	movs	r6, #1
 8001734:	e7eb      	b.n	800170e <HAL_InitTick+0x56>
 8001736:	4632      	mov	r2, r6
 8001738:	4629      	mov	r1, r5
 800173a:	202c      	movs	r0, #44	; 0x2c
 800173c:	f000 fe56 	bl	80023ec <HAL_NVIC_SetPriority>
 8001740:	4b05      	ldr	r3, [pc, #20]	; (8001758 <HAL_InitTick+0xa0>)
 8001742:	601d      	str	r5, [r3, #0]
 8001744:	e7e3      	b.n	800170e <HAL_InitTick+0x56>
 8001746:	bf00      	nop
 8001748:	40023800 	.word	0x40023800
 800174c:	431bde83 	.word	0x431bde83
 8001750:	20000294 	.word	0x20000294
 8001754:	40001c00 	.word	0x40001c00
 8001758:	20000008 	.word	0x20000008

0800175c <NMI_Handler>:
 800175c:	e7fe      	b.n	800175c <NMI_Handler>
 800175e:	bf00      	nop

08001760 <HardFault_Handler>:
 8001760:	e7fe      	b.n	8001760 <HardFault_Handler>
 8001762:	bf00      	nop

08001764 <MemManage_Handler>:
 8001764:	e7fe      	b.n	8001764 <MemManage_Handler>
 8001766:	bf00      	nop

08001768 <BusFault_Handler>:
 8001768:	e7fe      	b.n	8001768 <BusFault_Handler>
 800176a:	bf00      	nop

0800176c <UsageFault_Handler>:
 800176c:	e7fe      	b.n	800176c <UsageFault_Handler>
 800176e:	bf00      	nop

08001770 <DebugMon_Handler>:
 8001770:	4770      	bx	lr
 8001772:	bf00      	nop

08001774 <DMA1_Stream3_IRQHandler>:
 8001774:	4801      	ldr	r0, [pc, #4]	; (800177c <DMA1_Stream3_IRQHandler+0x8>)
 8001776:	f001 b831 	b.w	80027dc <HAL_DMA_IRQHandler>
 800177a:	bf00      	nop
 800177c:	200002e4 	.word	0x200002e4

08001780 <CAN1_RX0_IRQHandler>:
 8001780:	4801      	ldr	r0, [pc, #4]	; (8001788 <CAN1_RX0_IRQHandler+0x8>)
 8001782:	f000 bcf9 	b.w	8002178 <HAL_CAN_IRQHandler>
 8001786:	bf00      	nop
 8001788:	2000021c 	.word	0x2000021c

0800178c <TIM8_UP_TIM13_IRQHandler>:
 800178c:	4801      	ldr	r0, [pc, #4]	; (8001794 <TIM8_UP_TIM13_IRQHandler+0x8>)
 800178e:	f002 b939 	b.w	8003a04 <HAL_TIM_IRQHandler>
 8001792:	bf00      	nop
 8001794:	20000294 	.word	0x20000294

08001798 <UART7_IRQHandler>:
 8001798:	4801      	ldr	r0, [pc, #4]	; (80017a0 <UART7_IRQHandler+0x8>)
 800179a:	f002 bb33 	b.w	8003e04 <HAL_UART_IRQHandler>
 800179e:	bf00      	nop
 80017a0:	200004dc 	.word	0x200004dc

080017a4 <_getpid>:
 80017a4:	2001      	movs	r0, #1
 80017a6:	4770      	bx	lr

080017a8 <_kill>:
 80017a8:	b508      	push	{r3, lr}
 80017aa:	f007 fcd5 	bl	8009158 <__errno>
 80017ae:	2216      	movs	r2, #22
 80017b0:	4603      	mov	r3, r0
 80017b2:	f04f 30ff 	mov.w	r0, #4294967295
 80017b6:	601a      	str	r2, [r3, #0]
 80017b8:	bd08      	pop	{r3, pc}
 80017ba:	bf00      	nop

080017bc <_exit>:
 80017bc:	b508      	push	{r3, lr}
 80017be:	f007 fccb 	bl	8009158 <__errno>
 80017c2:	2316      	movs	r3, #22
 80017c4:	6003      	str	r3, [r0, #0]
 80017c6:	e7fe      	b.n	80017c6 <_exit+0xa>

080017c8 <_read>:
 80017c8:	b570      	push	{r4, r5, r6, lr}
 80017ca:	1e16      	subs	r6, r2, #0
 80017cc:	dd07      	ble.n	80017de <_read+0x16>
 80017ce:	460c      	mov	r4, r1
 80017d0:	198d      	adds	r5, r1, r6
 80017d2:	f007 fa3b 	bl	8008c4c <__io_getchar>
 80017d6:	f804 0b01 	strb.w	r0, [r4], #1
 80017da:	42a5      	cmp	r5, r4
 80017dc:	d1f9      	bne.n	80017d2 <_read+0xa>
 80017de:	4630      	mov	r0, r6
 80017e0:	bd70      	pop	{r4, r5, r6, pc}
 80017e2:	bf00      	nop

080017e4 <_write>:
 80017e4:	b570      	push	{r4, r5, r6, lr}
 80017e6:	1e16      	subs	r6, r2, #0
 80017e8:	dd07      	ble.n	80017fa <_write+0x16>
 80017ea:	460c      	mov	r4, r1
 80017ec:	198d      	adds	r5, r1, r6
 80017ee:	f814 0b01 	ldrb.w	r0, [r4], #1
 80017f2:	f007 fa25 	bl	8008c40 <__io_putchar>
 80017f6:	42ac      	cmp	r4, r5
 80017f8:	d1f9      	bne.n	80017ee <_write+0xa>
 80017fa:	4630      	mov	r0, r6
 80017fc:	bd70      	pop	{r4, r5, r6, pc}
 80017fe:	bf00      	nop

08001800 <_close>:
 8001800:	f04f 30ff 	mov.w	r0, #4294967295
 8001804:	4770      	bx	lr
 8001806:	bf00      	nop

08001808 <_fstat>:
 8001808:	f44f 5300 	mov.w	r3, #8192	; 0x2000
 800180c:	2000      	movs	r0, #0
 800180e:	604b      	str	r3, [r1, #4]
 8001810:	4770      	bx	lr
 8001812:	bf00      	nop

08001814 <_isatty>:
 8001814:	2001      	movs	r0, #1
 8001816:	4770      	bx	lr

08001818 <_lseek>:
 8001818:	2000      	movs	r0, #0
 800181a:	4770      	bx	lr

0800181c <_sbrk>:
 800181c:	b538      	push	{r3, r4, r5, lr}
 800181e:	4c0d      	ldr	r4, [pc, #52]	; (8001854 <_sbrk+0x38>)
 8001820:	4603      	mov	r3, r0
 8001822:	490d      	ldr	r1, [pc, #52]	; (8001858 <_sbrk+0x3c>)
 8001824:	4d0d      	ldr	r5, [pc, #52]	; (800185c <_sbrk+0x40>)
 8001826:	6822      	ldr	r2, [r4, #0]
 8001828:	1b49      	subs	r1, r1, r5
 800182a:	b12a      	cbz	r2, 8001838 <_sbrk+0x1c>
 800182c:	4413      	add	r3, r2
 800182e:	428b      	cmp	r3, r1
 8001830:	d808      	bhi.n	8001844 <_sbrk+0x28>
 8001832:	4610      	mov	r0, r2
 8001834:	6023      	str	r3, [r4, #0]
 8001836:	bd38      	pop	{r3, r4, r5, pc}
 8001838:	4809      	ldr	r0, [pc, #36]	; (8001860 <_sbrk+0x44>)
 800183a:	4602      	mov	r2, r0
 800183c:	6020      	str	r0, [r4, #0]
 800183e:	4413      	add	r3, r2
 8001840:	428b      	cmp	r3, r1
 8001842:	d9f6      	bls.n	8001832 <_sbrk+0x16>
 8001844:	f007 fc88 	bl	8009158 <__errno>
 8001848:	230c      	movs	r3, #12
 800184a:	f04f 32ff 	mov.w	r2, #4294967295
 800184e:	6003      	str	r3, [r0, #0]
 8001850:	4610      	mov	r0, r2
 8001852:	bd38      	pop	{r3, r4, r5, pc}
 8001854:	200002e0 	.word	0x200002e0
 8001858:	20040000 	.word	0x20040000
 800185c:	00000800 	.word	0x00000800
 8001860:	200108b0 	.word	0x200108b0

08001864 <SystemInit>:
 8001864:	4a03      	ldr	r2, [pc, #12]	; (8001874 <SystemInit+0x10>)
 8001866:	f8d2 3088 	ldr.w	r3, [r2, #136]	; 0x88
 800186a:	f443 0370 	orr.w	r3, r3, #15728640	; 0xf00000
 800186e:	f8c2 3088 	str.w	r3, [r2, #136]	; 0x88
 8001872:	4770      	bx	lr
 8001874:	e000ed00 	.word	0xe000ed00

08001878 <MX_UART4_Init>:
 8001878:	b510      	push	{r4, lr}
 800187a:	480c      	ldr	r0, [pc, #48]	; (80018ac <MX_UART4_Init+0x34>)
 800187c:	2300      	movs	r3, #0
 800187e:	4c0c      	ldr	r4, [pc, #48]	; (80018b0 <MX_UART4_Init+0x38>)
 8001880:	f44f 4116 	mov.w	r1, #38400	; 0x9600
 8001884:	220c      	movs	r2, #12
 8001886:	6083      	str	r3, [r0, #8]
 8001888:	6243      	str	r3, [r0, #36]	; 0x24
 800188a:	e9c0 4100 	strd	r4, r1, [r0]
 800188e:	e9c0 3303 	strd	r3, r3, [r0, #12]
 8001892:	e9c0 2305 	strd	r2, r3, [r0, #20]
 8001896:	e9c0 3307 	strd	r3, r3, [r0, #28]
 800189a:	f002 ff93 	bl	80047c4 <HAL_UART_Init>
 800189e:	b900      	cbnz	r0, 80018a2 <MX_UART4_Init+0x2a>
 80018a0:	bd10      	pop	{r4, pc}
 80018a2:	e8bd 4010 	ldmia.w	sp!, {r4, lr}
 80018a6:	f7ff bee5 	b.w	8001674 <Error_Handler>
 80018aa:	bf00      	nop
 80018ac:	20000454 	.word	0x20000454
 80018b0:	40004c00 	.word	0x40004c00

080018b4 <MX_UART7_Init>:
 80018b4:	b510      	push	{r4, lr}
 80018b6:	480c      	ldr	r0, [pc, #48]	; (80018e8 <MX_UART7_Init+0x34>)
 80018b8:	2300      	movs	r3, #0
 80018ba:	4c0c      	ldr	r4, [pc, #48]	; (80018ec <MX_UART7_Init+0x38>)
 80018bc:	f44f 31e1 	mov.w	r1, #115200	; 0x1c200
 80018c0:	220c      	movs	r2, #12
 80018c2:	6083      	str	r3, [r0, #8]
 80018c4:	6243      	str	r3, [r0, #36]	; 0x24
 80018c6:	e9c0 4100 	strd	r4, r1, [r0]
 80018ca:	e9c0 3303 	strd	r3, r3, [r0, #12]
 80018ce:	e9c0 2305 	strd	r2, r3, [r0, #20]
 80018d2:	e9c0 3307 	strd	r3, r3, [r0, #28]
 80018d6:	f002 ff75 	bl	80047c4 <HAL_UART_Init>
 80018da:	b900      	cbnz	r0, 80018de <MX_UART7_Init+0x2a>
 80018dc:	bd10      	pop	{r4, pc}
 80018de:	e8bd 4010 	ldmia.w	sp!, {r4, lr}
 80018e2:	f7ff bec7 	b.w	8001674 <Error_Handler>
 80018e6:	bf00      	nop
 80018e8:	200004dc 	.word	0x200004dc
 80018ec:	40007800 	.word	0x40007800

080018f0 <MX_USART1_UART_Init>:
 80018f0:	b510      	push	{r4, lr}
 80018f2:	480c      	ldr	r0, [pc, #48]	; (8001924 <MX_USART1_UART_Init+0x34>)
 80018f4:	2300      	movs	r3, #0
 80018f6:	4c0c      	ldr	r4, [pc, #48]	; (8001928 <MX_USART1_UART_Init+0x38>)
 80018f8:	f44f 21e1 	mov.w	r1, #460800	; 0x70800
 80018fc:	220c      	movs	r2, #12
 80018fe:	6083      	str	r3, [r0, #8]
 8001900:	6243      	str	r3, [r0, #36]	; 0x24
 8001902:	e9c0 4100 	strd	r4, r1, [r0]
 8001906:	e9c0 3303 	strd	r3, r3, [r0, #12]
 800190a:	e9c0 2305 	strd	r2, r3, [r0, #20]
 800190e:	e9c0 3307 	strd	r3, r3, [r0, #28]
 8001912:	f002 ff57 	bl	80047c4 <HAL_UART_Init>
 8001916:	b900      	cbnz	r0, 800191a <MX_USART1_UART_Init+0x2a>
 8001918:	bd10      	pop	{r4, pc}
 800191a:	e8bd 4010 	ldmia.w	sp!, {r4, lr}
 800191e:	f7ff bea9 	b.w	8001674 <Error_Handler>
 8001922:	bf00      	nop
 8001924:	20000344 	.word	0x20000344
 8001928:	40011000 	.word	0x40011000

0800192c <MX_USART2_UART_Init>:
 800192c:	b510      	push	{r4, lr}
 800192e:	480c      	ldr	r0, [pc, #48]	; (8001960 <MX_USART2_UART_Init+0x34>)
 8001930:	2300      	movs	r3, #0
 8001932:	4c0c      	ldr	r4, [pc, #48]	; (8001964 <MX_USART2_UART_Init+0x38>)
 8001934:	f44f 4116 	mov.w	r1, #38400	; 0x9600
 8001938:	220c      	movs	r2, #12
 800193a:	6083      	str	r3, [r0, #8]
 800193c:	6243      	str	r3, [r0, #36]	; 0x24
 800193e:	e9c0 4100 	strd	r4, r1, [r0]
 8001942:	e9c0 3303 	strd	r3, r3, [r0, #12]
 8001946:	e9c0 2305 	strd	r2, r3, [r0, #20]
 800194a:	e9c0 3307 	strd	r3, r3, [r0, #28]
 800194e:	f002 ff39 	bl	80047c4 <HAL_UART_Init>
 8001952:	b900      	cbnz	r0, 8001956 <MX_USART2_UART_Init+0x2a>
 8001954:	bd10      	pop	{r4, pc}
 8001956:	e8bd 4010 	ldmia.w	sp!, {r4, lr}
 800195a:	f7ff be8b 	b.w	8001674 <Error_Handler>
 800195e:	bf00      	nop
 8001960:	200003cc 	.word	0x200003cc
 8001964:	40004400 	.word	0x40004400

08001968 <HAL_UART_MspInit>:
 8001968:	b530      	push	{r4, r5, lr}
 800196a:	2580      	movs	r5, #128	; 0x80
 800196c:	b0af      	sub	sp, #188	; 0xbc
 800196e:	2100      	movs	r1, #0
 8001970:	4604      	mov	r4, r0
 8001972:	462a      	mov	r2, r5
 8001974:	a80e      	add	r0, sp, #56	; 0x38
 8001976:	9108      	str	r1, [sp, #32]
 8001978:	e9cd 1109 	strd	r1, r1, [sp, #36]	; 0x24
 800197c:	e9cd 110b 	strd	r1, r1, [sp, #44]	; 0x2c
 8001980:	f007 fc22 	bl	80091c8 <memset>
 8001984:	6823      	ldr	r3, [r4, #0]
 8001986:	4a98      	ldr	r2, [pc, #608]	; (8001be8 <HAL_UART_MspInit+0x280>)
 8001988:	4293      	cmp	r3, r2
 800198a:	d04a      	beq.n	8001a22 <HAL_UART_MspInit+0xba>
 800198c:	4a97      	ldr	r2, [pc, #604]	; (8001bec <HAL_UART_MspInit+0x284>)
 800198e:	4293      	cmp	r3, r2
 8001990:	f000 8088 	beq.w	8001aa4 <HAL_UART_MspInit+0x13c>
 8001994:	4a96      	ldr	r2, [pc, #600]	; (8001bf0 <HAL_UART_MspInit+0x288>)
 8001996:	4293      	cmp	r3, r2
 8001998:	f000 80dd 	beq.w	8001b56 <HAL_UART_MspInit+0x1ee>
 800199c:	4a95      	ldr	r2, [pc, #596]	; (8001bf4 <HAL_UART_MspInit+0x28c>)
 800199e:	4293      	cmp	r3, r2
 80019a0:	d001      	beq.n	80019a6 <HAL_UART_MspInit+0x3e>
 80019a2:	b02f      	add	sp, #188	; 0xbc
 80019a4:	bd30      	pop	{r4, r5, pc}
 80019a6:	a80e      	add	r0, sp, #56	; 0x38
 80019a8:	950e      	str	r5, [sp, #56]	; 0x38
 80019aa:	f001 fcb9 	bl	8003320 <HAL_RCCEx_PeriphCLKConfig>
 80019ae:	2800      	cmp	r0, #0
 80019b0:	f040 8116 	bne.w	8001be0 <HAL_UART_MspInit+0x278>
 80019b4:	4b90      	ldr	r3, [pc, #576]	; (8001bf8 <HAL_UART_MspInit+0x290>)
 80019b6:	2004      	movs	r0, #4
 80019b8:	2102      	movs	r1, #2
 80019ba:	2407      	movs	r4, #7
 80019bc:	6c1a      	ldr	r2, [r3, #64]	; 0x40
 80019be:	f442 3200 	orr.w	r2, r2, #131072	; 0x20000
 80019c2:	641a      	str	r2, [r3, #64]	; 0x40
 80019c4:	6c1a      	ldr	r2, [r3, #64]	; 0x40
 80019c6:	f402 3200 	and.w	r2, r2, #131072	; 0x20000
 80019ca:	9206      	str	r2, [sp, #24]
 80019cc:	9a06      	ldr	r2, [sp, #24]
 80019ce:	6b1a      	ldr	r2, [r3, #48]	; 0x30
 80019d0:	f042 0201 	orr.w	r2, r2, #1
 80019d4:	631a      	str	r2, [r3, #48]	; 0x30
 80019d6:	6b1b      	ldr	r3, [r3, #48]	; 0x30
 80019d8:	940c      	str	r4, [sp, #48]	; 0x30
 80019da:	f003 0301 	and.w	r3, r3, #1
 80019de:	e9cd 0108 	strd	r0, r1, [sp, #32]
 80019e2:	2000      	movs	r0, #0
 80019e4:	2103      	movs	r1, #3
 80019e6:	9307      	str	r3, [sp, #28]
 80019e8:	9b07      	ldr	r3, [sp, #28]
 80019ea:	e9cd 010a 	strd	r0, r1, [sp, #40]	; 0x28
 80019ee:	a908      	add	r1, sp, #32
 80019f0:	4882      	ldr	r0, [pc, #520]	; (8001bfc <HAL_UART_MspInit+0x294>)
 80019f2:	f000 fff9 	bl	80029e8 <HAL_GPIO_Init>
 80019f6:	2208      	movs	r2, #8
 80019f8:	2302      	movs	r3, #2
 80019fa:	a908      	add	r1, sp, #32
 80019fc:	487f      	ldr	r0, [pc, #508]	; (8001bfc <HAL_UART_MspInit+0x294>)
 80019fe:	940c      	str	r4, [sp, #48]	; 0x30
 8001a00:	e9cd 2308 	strd	r2, r3, [sp, #32]
 8001a04:	2303      	movs	r3, #3
 8001a06:	2201      	movs	r2, #1
 8001a08:	e9cd 230a 	strd	r2, r3, [sp, #40]	; 0x28
 8001a0c:	f000 ffec 	bl	80029e8 <HAL_GPIO_Init>
 8001a10:	2026      	movs	r0, #38	; 0x26
 8001a12:	2200      	movs	r2, #0
 8001a14:	2105      	movs	r1, #5
 8001a16:	f000 fce9 	bl	80023ec <HAL_NVIC_SetPriority>
 8001a1a:	2026      	movs	r0, #38	; 0x26
 8001a1c:	f000 fd24 	bl	8002468 <HAL_NVIC_EnableIRQ>
 8001a20:	e7bf      	b.n	80019a2 <HAL_UART_MspInit+0x3a>
 8001a22:	f44f 7300 	mov.w	r3, #512	; 0x200
 8001a26:	a80e      	add	r0, sp, #56	; 0x38
 8001a28:	930e      	str	r3, [sp, #56]	; 0x38
 8001a2a:	f001 fc79 	bl	8003320 <HAL_RCCEx_PeriphCLKConfig>
 8001a2e:	2800      	cmp	r0, #0
 8001a30:	f040 80ca 	bne.w	8001bc8 <HAL_UART_MspInit+0x260>
 8001a34:	4b70      	ldr	r3, [pc, #448]	; (8001bf8 <HAL_UART_MspInit+0x290>)
 8001a36:	2001      	movs	r0, #1
 8001a38:	2102      	movs	r1, #2
 8001a3a:	2408      	movs	r4, #8
 8001a3c:	6c1a      	ldr	r2, [r3, #64]	; 0x40
 8001a3e:	f442 2200 	orr.w	r2, r2, #524288	; 0x80000
 8001a42:	641a      	str	r2, [r3, #64]	; 0x40
 8001a44:	6c1a      	ldr	r2, [r3, #64]	; 0x40
 8001a46:	f402 2200 	and.w	r2, r2, #524288	; 0x80000
 8001a4a:	9200      	str	r2, [sp, #0]
 8001a4c:	9a00      	ldr	r2, [sp, #0]
 8001a4e:	6b1a      	ldr	r2, [r3, #48]	; 0x30
 8001a50:	f042 0201 	orr.w	r2, r2, #1
 8001a54:	631a      	str	r2, [r3, #48]	; 0x30
 8001a56:	6b1b      	ldr	r3, [r3, #48]	; 0x30
 8001a58:	940c      	str	r4, [sp, #48]	; 0x30
 8001a5a:	f003 0301 	and.w	r3, r3, #1
 8001a5e:	e9cd 0108 	strd	r0, r1, [sp, #32]
 8001a62:	2000      	movs	r0, #0
 8001a64:	2103      	movs	r1, #3
 8001a66:	9301      	str	r3, [sp, #4]
 8001a68:	9b01      	ldr	r3, [sp, #4]
 8001a6a:	e9cd 010a 	strd	r0, r1, [sp, #40]	; 0x28
 8001a6e:	a908      	add	r1, sp, #32
 8001a70:	4862      	ldr	r0, [pc, #392]	; (8001bfc <HAL_UART_MspInit+0x294>)
 8001a72:	f000 ffb9 	bl	80029e8 <HAL_GPIO_Init>
 8001a76:	2202      	movs	r2, #2
 8001a78:	2302      	movs	r3, #2
 8001a7a:	a908      	add	r1, sp, #32
 8001a7c:	485f      	ldr	r0, [pc, #380]	; (8001bfc <HAL_UART_MspInit+0x294>)
 8001a7e:	940c      	str	r4, [sp, #48]	; 0x30
 8001a80:	e9cd 2308 	strd	r2, r3, [sp, #32]
 8001a84:	2303      	movs	r3, #3
 8001a86:	2201      	movs	r2, #1
 8001a88:	e9cd 230a 	strd	r2, r3, [sp, #40]	; 0x28
 8001a8c:	f000 ffac 	bl	80029e8 <HAL_GPIO_Init>
 8001a90:	2200      	movs	r2, #0
 8001a92:	2105      	movs	r1, #5
 8001a94:	2034      	movs	r0, #52	; 0x34
 8001a96:	f000 fca9 	bl	80023ec <HAL_NVIC_SetPriority>
 8001a9a:	2034      	movs	r0, #52	; 0x34
 8001a9c:	f000 fce4 	bl	8002468 <HAL_NVIC_EnableIRQ>
 8001aa0:	b02f      	add	sp, #188	; 0xbc
 8001aa2:	bd30      	pop	{r4, r5, pc}
 8001aa4:	f44f 5380 	mov.w	r3, #4096	; 0x1000
 8001aa8:	a80e      	add	r0, sp, #56	; 0x38
 8001aaa:	930e      	str	r3, [sp, #56]	; 0x38
 8001aac:	f001 fc38 	bl	8003320 <HAL_RCCEx_PeriphCLKConfig>
 8001ab0:	2800      	cmp	r0, #0
 8001ab2:	f040 808c 	bne.w	8001bce <HAL_UART_MspInit+0x266>
 8001ab6:	4b50      	ldr	r3, [pc, #320]	; (8001bf8 <HAL_UART_MspInit+0x290>)
 8001ab8:	2508      	movs	r5, #8
 8001aba:	4851      	ldr	r0, [pc, #324]	; (8001c00 <HAL_UART_MspInit+0x298>)
 8001abc:	6c1a      	ldr	r2, [r3, #64]	; 0x40
 8001abe:	f042 4280 	orr.w	r2, r2, #1073741824	; 0x40000000
 8001ac2:	641a      	str	r2, [r3, #64]	; 0x40
 8001ac4:	6c1a      	ldr	r2, [r3, #64]	; 0x40
 8001ac6:	f002 4280 	and.w	r2, r2, #1073741824	; 0x40000000
 8001aca:	9202      	str	r2, [sp, #8]
 8001acc:	9a02      	ldr	r2, [sp, #8]
 8001ace:	6b1a      	ldr	r2, [r3, #48]	; 0x30
 8001ad0:	f042 0220 	orr.w	r2, r2, #32
 8001ad4:	631a      	str	r2, [r3, #48]	; 0x30
 8001ad6:	2240      	movs	r2, #64	; 0x40
 8001ad8:	6b1b      	ldr	r3, [r3, #48]	; 0x30
 8001ada:	950c      	str	r5, [sp, #48]	; 0x30
 8001adc:	f003 0320 	and.w	r3, r3, #32
 8001ae0:	9303      	str	r3, [sp, #12]
 8001ae2:	2302      	movs	r3, #2
 8001ae4:	9903      	ldr	r1, [sp, #12]
 8001ae6:	a908      	add	r1, sp, #32
 8001ae8:	e9cd 2308 	strd	r2, r3, [sp, #32]
 8001aec:	2201      	movs	r2, #1
 8001aee:	2303      	movs	r3, #3
 8001af0:	e9cd 230a 	strd	r2, r3, [sp, #40]	; 0x28
 8001af4:	f000 ff78 	bl	80029e8 <HAL_GPIO_Init>
 8001af8:	2280      	movs	r2, #128	; 0x80
 8001afa:	2302      	movs	r3, #2
 8001afc:	a908      	add	r1, sp, #32
 8001afe:	4840      	ldr	r0, [pc, #256]	; (8001c00 <HAL_UART_MspInit+0x298>)
 8001b00:	950c      	str	r5, [sp, #48]	; 0x30
 8001b02:	4d40      	ldr	r5, [pc, #256]	; (8001c04 <HAL_UART_MspInit+0x29c>)
 8001b04:	e9cd 2308 	strd	r2, r3, [sp, #32]
 8001b08:	2200      	movs	r2, #0
 8001b0a:	2303      	movs	r3, #3
 8001b0c:	e9cd 230a 	strd	r2, r3, [sp, #40]	; 0x28
 8001b10:	f000 ff6a 	bl	80029e8 <HAL_GPIO_Init>
 8001b14:	f04f 6220 	mov.w	r2, #167772160	; 0xa000000
 8001b18:	493b      	ldr	r1, [pc, #236]	; (8001c08 <HAL_UART_MspInit+0x2a0>)
 8001b1a:	2300      	movs	r3, #0
 8001b1c:	4628      	mov	r0, r5
 8001b1e:	626b      	str	r3, [r5, #36]	; 0x24
 8001b20:	e9c5 1200 	strd	r1, r2, [r5]
 8001b24:	f44f 6280 	mov.w	r2, #1024	; 0x400
 8001b28:	e9c5 3302 	strd	r3, r3, [r5, #8]
 8001b2c:	e9c5 3305 	strd	r3, r3, [r5, #20]
 8001b30:	612a      	str	r2, [r5, #16]
 8001b32:	e9c5 3307 	strd	r3, r3, [r5, #28]
 8001b36:	f000 fcf3 	bl	8002520 <HAL_DMA_Init>
 8001b3a:	2800      	cmp	r0, #0
 8001b3c:	d14a      	bne.n	8001bd4 <HAL_UART_MspInit+0x26c>
 8001b3e:	2200      	movs	r2, #0
 8001b40:	2105      	movs	r1, #5
 8001b42:	2052      	movs	r0, #82	; 0x52
 8001b44:	6765      	str	r5, [r4, #116]	; 0x74
 8001b46:	63ac      	str	r4, [r5, #56]	; 0x38
 8001b48:	f000 fc50 	bl	80023ec <HAL_NVIC_SetPriority>
 8001b4c:	2052      	movs	r0, #82	; 0x52
 8001b4e:	f000 fc8b 	bl	8002468 <HAL_NVIC_EnableIRQ>
 8001b52:	b02f      	add	sp, #188	; 0xbc
 8001b54:	bd30      	pop	{r4, r5, pc}
 8001b56:	2340      	movs	r3, #64	; 0x40
 8001b58:	a80e      	add	r0, sp, #56	; 0x38
 8001b5a:	930e      	str	r3, [sp, #56]	; 0x38
 8001b5c:	f001 fbe0 	bl	8003320 <HAL_RCCEx_PeriphCLKConfig>
 8001b60:	2800      	cmp	r0, #0
 8001b62:	d13a      	bne.n	8001bda <HAL_UART_MspInit+0x272>
 8001b64:	4b24      	ldr	r3, [pc, #144]	; (8001bf8 <HAL_UART_MspInit+0x290>)
 8001b66:	f44f 7000 	mov.w	r0, #512	; 0x200
 8001b6a:	2102      	movs	r1, #2
 8001b6c:	2407      	movs	r4, #7
 8001b6e:	6c5a      	ldr	r2, [r3, #68]	; 0x44
 8001b70:	f042 0210 	orr.w	r2, r2, #16
 8001b74:	645a      	str	r2, [r3, #68]	; 0x44
 8001b76:	6c5a      	ldr	r2, [r3, #68]	; 0x44
 8001b78:	f002 0210 	and.w	r2, r2, #16
 8001b7c:	9204      	str	r2, [sp, #16]
 8001b7e:	9a04      	ldr	r2, [sp, #16]
 8001b80:	6b1a      	ldr	r2, [r3, #48]	; 0x30
 8001b82:	f042 0201 	orr.w	r2, r2, #1
 8001b86:	631a      	str	r2, [r3, #48]	; 0x30
 8001b88:	6b1b      	ldr	r3, [r3, #48]	; 0x30
 8001b8a:	940c      	str	r4, [sp, #48]	; 0x30
 8001b8c:	f003 0301 	and.w	r3, r3, #1
 8001b90:	e9cd 0108 	strd	r0, r1, [sp, #32]
 8001b94:	2000      	movs	r0, #0
 8001b96:	2103      	movs	r1, #3
 8001b98:	9305      	str	r3, [sp, #20]
 8001b9a:	9b05      	ldr	r3, [sp, #20]
 8001b9c:	e9cd 010a 	strd	r0, r1, [sp, #40]	; 0x28
 8001ba0:	a908      	add	r1, sp, #32
 8001ba2:	4816      	ldr	r0, [pc, #88]	; (8001bfc <HAL_UART_MspInit+0x294>)
 8001ba4:	f000 ff20 	bl	80029e8 <HAL_GPIO_Init>
 8001ba8:	f44f 6280 	mov.w	r2, #1024	; 0x400
 8001bac:	2302      	movs	r3, #2
 8001bae:	a908      	add	r1, sp, #32
 8001bb0:	4812      	ldr	r0, [pc, #72]	; (8001bfc <HAL_UART_MspInit+0x294>)
 8001bb2:	940c      	str	r4, [sp, #48]	; 0x30
 8001bb4:	e9cd 2308 	strd	r2, r3, [sp, #32]
 8001bb8:	2201      	movs	r2, #1
 8001bba:	2303      	movs	r3, #3
 8001bbc:	e9cd 230a 	strd	r2, r3, [sp, #40]	; 0x28
 8001bc0:	f000 ff12 	bl	80029e8 <HAL_GPIO_Init>
 8001bc4:	b02f      	add	sp, #188	; 0xbc
 8001bc6:	bd30      	pop	{r4, r5, pc}
 8001bc8:	f7ff fd54 	bl	8001674 <Error_Handler>
 8001bcc:	e732      	b.n	8001a34 <HAL_UART_MspInit+0xcc>
 8001bce:	f7ff fd51 	bl	8001674 <Error_Handler>
 8001bd2:	e770      	b.n	8001ab6 <HAL_UART_MspInit+0x14e>
 8001bd4:	f7ff fd4e 	bl	8001674 <Error_Handler>
 8001bd8:	e7b1      	b.n	8001b3e <HAL_UART_MspInit+0x1d6>
 8001bda:	f7ff fd4b 	bl	8001674 <Error_Handler>
 8001bde:	e7c1      	b.n	8001b64 <HAL_UART_MspInit+0x1fc>
 8001be0:	f7ff fd48 	bl	8001674 <Error_Handler>
 8001be4:	e6e6      	b.n	80019b4 <HAL_UART_MspInit+0x4c>
 8001be6:	bf00      	nop
 8001be8:	40004c00 	.word	0x40004c00
 8001bec:	40007800 	.word	0x40007800
 8001bf0:	40011000 	.word	0x40011000
 8001bf4:	40004400 	.word	0x40004400
 8001bf8:	40023800 	.word	0x40023800
 8001bfc:	40020000 	.word	0x40020000
 8001c00:	40021400 	.word	0x40021400
 8001c04:	200002e4 	.word	0x200002e4
 8001c08:	40026058 	.word	0x40026058

08001c0c <Reset_Handler>:
 8001c0c:	f8df d034 	ldr.w	sp, [pc, #52]	; 8001c44 <LoopFillZerobss+0x12>
 8001c10:	480d      	ldr	r0, [pc, #52]	; (8001c48 <LoopFillZerobss+0x16>)
 8001c12:	490e      	ldr	r1, [pc, #56]	; (8001c4c <LoopFillZerobss+0x1a>)
 8001c14:	4a0e      	ldr	r2, [pc, #56]	; (8001c50 <LoopFillZerobss+0x1e>)
 8001c16:	2300      	movs	r3, #0
 8001c18:	e002      	b.n	8001c20 <LoopCopyDataInit>

08001c1a <CopyDataInit>:
 8001c1a:	58d4      	ldr	r4, [r2, r3]
 8001c1c:	50c4      	str	r4, [r0, r3]
 8001c1e:	3304      	adds	r3, #4

08001c20 <LoopCopyDataInit>:
 8001c20:	18c4      	adds	r4, r0, r3
 8001c22:	428c      	cmp	r4, r1
 8001c24:	d3f9      	bcc.n	8001c1a <CopyDataInit>
 8001c26:	4a0b      	ldr	r2, [pc, #44]	; (8001c54 <LoopFillZerobss+0x22>)
 8001c28:	4c0b      	ldr	r4, [pc, #44]	; (8001c58 <LoopFillZerobss+0x26>)
 8001c2a:	2300      	movs	r3, #0
 8001c2c:	e001      	b.n	8001c32 <LoopFillZerobss>

08001c2e <FillZerobss>:
 8001c2e:	6013      	str	r3, [r2, #0]
 8001c30:	3204      	adds	r2, #4

08001c32 <LoopFillZerobss>:
 8001c32:	42a2      	cmp	r2, r4
 8001c34:	d3fb      	bcc.n	8001c2e <FillZerobss>
 8001c36:	f7ff fe15 	bl	8001864 <SystemInit>
 8001c3a:	f007 fa93 	bl	8009164 <__libc_init_array>
 8001c3e:	f7ff fc87 	bl	8001550 <main>
 8001c42:	4770      	bx	lr
 8001c44:	20040000 	.word	0x20040000
 8001c48:	20000000 	.word	0x20000000
 8001c4c:	20000200 	.word	0x20000200
 8001c50:	0800c8b4 	.word	0x0800c8b4
 8001c54:	20000200 	.word	0x20000200
 8001c58:	200108ac 	.word	0x200108ac

08001c5c <ADC_IRQHandler>:
 8001c5c:	e7fe      	b.n	8001c5c <ADC_IRQHandler>
	...

08001c60 <HAL_Init>:
 8001c60:	b508      	push	{r3, lr}
 8001c62:	2003      	movs	r0, #3
 8001c64:	f000 fbb0 	bl	80023c8 <HAL_NVIC_SetPriorityGrouping>
 8001c68:	200f      	movs	r0, #15
 8001c6a:	f7ff fd25 	bl	80016b8 <HAL_InitTick>
 8001c6e:	f7ff fd03 	bl	8001678 <HAL_MspInit>
 8001c72:	2000      	movs	r0, #0
 8001c74:	bd08      	pop	{r3, pc}
 8001c76:	bf00      	nop

08001c78 <HAL_IncTick>:
 8001c78:	4a03      	ldr	r2, [pc, #12]	; (8001c88 <HAL_IncTick+0x10>)
 8001c7a:	4b04      	ldr	r3, [pc, #16]	; (8001c8c <HAL_IncTick+0x14>)
 8001c7c:	6811      	ldr	r1, [r2, #0]
 8001c7e:	781b      	ldrb	r3, [r3, #0]
 8001c80:	440b      	add	r3, r1
 8001c82:	6013      	str	r3, [r2, #0]
 8001c84:	4770      	bx	lr
 8001c86:	bf00      	nop
 8001c88:	20000564 	.word	0x20000564
 8001c8c:	20000004 	.word	0x20000004

08001c90 <HAL_GetTick>:
 8001c90:	4b01      	ldr	r3, [pc, #4]	; (8001c98 <HAL_GetTick+0x8>)
 8001c92:	6818      	ldr	r0, [r3, #0]
 8001c94:	4770      	bx	lr
 8001c96:	bf00      	nop
 8001c98:	20000564 	.word	0x20000564

08001c9c <HAL_CAN_Init>:
 8001c9c:	2800      	cmp	r0, #0
 8001c9e:	f000 8082 	beq.w	8001da6 <HAL_CAN_Init+0x10a>
 8001ca2:	b538      	push	{r3, r4, r5, lr}
 8001ca4:	f890 3020 	ldrb.w	r3, [r0, #32]
 8001ca8:	4604      	mov	r4, r0
 8001caa:	2b00      	cmp	r3, #0
 8001cac:	d078      	beq.n	8001da0 <HAL_CAN_Init+0x104>
 8001cae:	6822      	ldr	r2, [r4, #0]
 8001cb0:	6813      	ldr	r3, [r2, #0]
 8001cb2:	f043 0301 	orr.w	r3, r3, #1
 8001cb6:	6013      	str	r3, [r2, #0]
 8001cb8:	f7ff ffea 	bl	8001c90 <HAL_GetTick>
 8001cbc:	4605      	mov	r5, r0
 8001cbe:	e004      	b.n	8001cca <HAL_CAN_Init+0x2e>
 8001cc0:	f7ff ffe6 	bl	8001c90 <HAL_GetTick>
 8001cc4:	1b43      	subs	r3, r0, r5
 8001cc6:	2b0a      	cmp	r3, #10
 8001cc8:	d861      	bhi.n	8001d8e <HAL_CAN_Init+0xf2>
 8001cca:	6823      	ldr	r3, [r4, #0]
 8001ccc:	685a      	ldr	r2, [r3, #4]
 8001cce:	07d1      	lsls	r1, r2, #31
 8001cd0:	d5f6      	bpl.n	8001cc0 <HAL_CAN_Init+0x24>
 8001cd2:	681a      	ldr	r2, [r3, #0]
 8001cd4:	f022 0202 	bic.w	r2, r2, #2
 8001cd8:	601a      	str	r2, [r3, #0]
 8001cda:	f7ff ffd9 	bl	8001c90 <HAL_GetTick>
 8001cde:	4605      	mov	r5, r0
 8001ce0:	e004      	b.n	8001cec <HAL_CAN_Init+0x50>
 8001ce2:	f7ff ffd5 	bl	8001c90 <HAL_GetTick>
 8001ce6:	1b40      	subs	r0, r0, r5
 8001ce8:	280a      	cmp	r0, #10
 8001cea:	d850      	bhi.n	8001d8e <HAL_CAN_Init+0xf2>
 8001cec:	6823      	ldr	r3, [r4, #0]
 8001cee:	685a      	ldr	r2, [r3, #4]
 8001cf0:	0792      	lsls	r2, r2, #30
 8001cf2:	d4f6      	bmi.n	8001ce2 <HAL_CAN_Init+0x46>
 8001cf4:	7e22      	ldrb	r2, [r4, #24]
 8001cf6:	2a01      	cmp	r2, #1
 8001cf8:	681a      	ldr	r2, [r3, #0]
 8001cfa:	bf0c      	ite	eq
 8001cfc:	f042 0280 	orreq.w	r2, r2, #128	; 0x80
 8001d00:	f022 0280 	bicne.w	r2, r2, #128	; 0x80
 8001d04:	601a      	str	r2, [r3, #0]
 8001d06:	7e63      	ldrb	r3, [r4, #25]
 8001d08:	6822      	ldr	r2, [r4, #0]
 8001d0a:	2b01      	cmp	r3, #1
 8001d0c:	6813      	ldr	r3, [r2, #0]
 8001d0e:	bf0c      	ite	eq
 8001d10:	f043 0340 	orreq.w	r3, r3, #64	; 0x40
 8001d14:	f023 0340 	bicne.w	r3, r3, #64	; 0x40
 8001d18:	6013      	str	r3, [r2, #0]
 8001d1a:	7ea3      	ldrb	r3, [r4, #26]
 8001d1c:	6822      	ldr	r2, [r4, #0]
 8001d1e:	2b01      	cmp	r3, #1
 8001d20:	6813      	ldr	r3, [r2, #0]
 8001d22:	bf0c      	ite	eq
 8001d24:	f043 0320 	orreq.w	r3, r3, #32
 8001d28:	f023 0320 	bicne.w	r3, r3, #32
 8001d2c:	6013      	str	r3, [r2, #0]
 8001d2e:	7ee3      	ldrb	r3, [r4, #27]
 8001d30:	6822      	ldr	r2, [r4, #0]
 8001d32:	2b01      	cmp	r3, #1
 8001d34:	6813      	ldr	r3, [r2, #0]
 8001d36:	bf0c      	ite	eq
 8001d38:	f023 0310 	biceq.w	r3, r3, #16
 8001d3c:	f043 0310 	orrne.w	r3, r3, #16
 8001d40:	6013      	str	r3, [r2, #0]
 8001d42:	7f23      	ldrb	r3, [r4, #28]
 8001d44:	6822      	ldr	r2, [r4, #0]
 8001d46:	2b01      	cmp	r3, #1
 8001d48:	6813      	ldr	r3, [r2, #0]
 8001d4a:	bf0c      	ite	eq
 8001d4c:	f043 0308 	orreq.w	r3, r3, #8
 8001d50:	f023 0308 	bicne.w	r3, r3, #8
 8001d54:	6013      	str	r3, [r2, #0]
 8001d56:	7f63      	ldrb	r3, [r4, #29]
 8001d58:	6822      	ldr	r2, [r4, #0]
 8001d5a:	2b01      	cmp	r3, #1
 8001d5c:	6813      	ldr	r3, [r2, #0]
 8001d5e:	bf0c      	ite	eq
 8001d60:	f043 0304 	orreq.w	r3, r3, #4
 8001d64:	f023 0304 	bicne.w	r3, r3, #4
 8001d68:	6013      	str	r3, [r2, #0]
 8001d6a:	e9d4 3102 	ldrd	r3, r1, [r4, #8]
 8001d6e:	e9d4 2004 	ldrd	r2, r0, [r4, #16]
 8001d72:	430b      	orrs	r3, r1
 8001d74:	6821      	ldr	r1, [r4, #0]
 8001d76:	4313      	orrs	r3, r2
 8001d78:	6862      	ldr	r2, [r4, #4]
 8001d7a:	4303      	orrs	r3, r0
 8001d7c:	3a01      	subs	r2, #1
 8001d7e:	2000      	movs	r0, #0
 8001d80:	4313      	orrs	r3, r2
 8001d82:	2201      	movs	r2, #1
 8001d84:	61cb      	str	r3, [r1, #28]
 8001d86:	6260      	str	r0, [r4, #36]	; 0x24
 8001d88:	f884 2020 	strb.w	r2, [r4, #32]
 8001d8c:	bd38      	pop	{r3, r4, r5, pc}
 8001d8e:	6a63      	ldr	r3, [r4, #36]	; 0x24
 8001d90:	2205      	movs	r2, #5
 8001d92:	2001      	movs	r0, #1
 8001d94:	f443 3300 	orr.w	r3, r3, #131072	; 0x20000
 8001d98:	6263      	str	r3, [r4, #36]	; 0x24
 8001d9a:	f884 2020 	strb.w	r2, [r4, #32]
 8001d9e:	bd38      	pop	{r3, r4, r5, pc}
 8001da0:	f7ff f8ca 	bl	8000f38 <HAL_CAN_MspInit>
 8001da4:	e783      	b.n	8001cae <HAL_CAN_Init+0x12>
 8001da6:	2001      	movs	r0, #1
 8001da8:	4770      	bx	lr
 8001daa:	bf00      	nop

08001dac <HAL_CAN_ConfigFilter>:
 8001dac:	f890 2020 	ldrb.w	r2, [r0, #32]
 8001db0:	4603      	mov	r3, r0
 8001db2:	3a01      	subs	r2, #1
 8001db4:	2a01      	cmp	r2, #1
 8001db6:	d905      	bls.n	8001dc4 <HAL_CAN_ConfigFilter+0x18>
 8001db8:	6a42      	ldr	r2, [r0, #36]	; 0x24
 8001dba:	2001      	movs	r0, #1
 8001dbc:	f442 2280 	orr.w	r2, r2, #262144	; 0x40000
 8001dc0:	625a      	str	r2, [r3, #36]	; 0x24
 8001dc2:	4770      	bx	lr
 8001dc4:	b470      	push	{r4, r5, r6}
 8001dc6:	6803      	ldr	r3, [r0, #0]
 8001dc8:	2401      	movs	r4, #1
 8001dca:	f8d3 0200 	ldr.w	r0, [r3, #512]	; 0x200
 8001dce:	4320      	orrs	r0, r4
 8001dd0:	f8c3 0200 	str.w	r0, [r3, #512]	; 0x200
 8001dd4:	694a      	ldr	r2, [r1, #20]
 8001dd6:	f8d3 021c 	ldr.w	r0, [r3, #540]	; 0x21c
 8001dda:	f002 021f 	and.w	r2, r2, #31
 8001dde:	fa04 f202 	lsl.w	r2, r4, r2
 8001de2:	ea20 0002 	bic.w	r0, r0, r2
 8001de6:	f8c3 021c 	str.w	r0, [r3, #540]	; 0x21c
 8001dea:	43d0      	mvns	r0, r2
 8001dec:	69cc      	ldr	r4, [r1, #28]
 8001dee:	b9b4      	cbnz	r4, 8001e1e <HAL_CAN_ConfigFilter+0x72>
 8001df0:	f8d3 420c 	ldr.w	r4, [r3, #524]	; 0x20c
 8001df4:	4004      	ands	r4, r0
 8001df6:	f8c3 420c 	str.w	r4, [r3, #524]	; 0x20c
 8001dfa:	68ce      	ldr	r6, [r1, #12]
 8001dfc:	694c      	ldr	r4, [r1, #20]
 8001dfe:	888d      	ldrh	r5, [r1, #4]
 8001e00:	3448      	adds	r4, #72	; 0x48
 8001e02:	ea45 4506 	orr.w	r5, r5, r6, lsl #16
 8001e06:	f843 5034 	str.w	r5, [r3, r4, lsl #3]
 8001e0a:	694c      	ldr	r4, [r1, #20]
 8001e0c:	880d      	ldrh	r5, [r1, #0]
 8001e0e:	688e      	ldr	r6, [r1, #8]
 8001e10:	3448      	adds	r4, #72	; 0x48
 8001e12:	ea45 4506 	orr.w	r5, r5, r6, lsl #16
 8001e16:	eb03 04c4 	add.w	r4, r3, r4, lsl #3
 8001e1a:	6065      	str	r5, [r4, #4]
 8001e1c:	69cc      	ldr	r4, [r1, #28]
 8001e1e:	2c01      	cmp	r4, #1
 8001e20:	d115      	bne.n	8001e4e <HAL_CAN_ConfigFilter+0xa2>
 8001e22:	f8d3 420c 	ldr.w	r4, [r3, #524]	; 0x20c
 8001e26:	4314      	orrs	r4, r2
 8001e28:	f8c3 420c 	str.w	r4, [r3, #524]	; 0x20c
 8001e2c:	680e      	ldr	r6, [r1, #0]
 8001e2e:	694c      	ldr	r4, [r1, #20]
 8001e30:	888d      	ldrh	r5, [r1, #4]
 8001e32:	3448      	adds	r4, #72	; 0x48
 8001e34:	ea45 4506 	orr.w	r5, r5, r6, lsl #16
 8001e38:	f843 5034 	str.w	r5, [r3, r4, lsl #3]
 8001e3c:	694c      	ldr	r4, [r1, #20]
 8001e3e:	898d      	ldrh	r5, [r1, #12]
 8001e40:	688e      	ldr	r6, [r1, #8]
 8001e42:	3448      	adds	r4, #72	; 0x48
 8001e44:	ea45 4506 	orr.w	r5, r5, r6, lsl #16
 8001e48:	eb03 04c4 	add.w	r4, r3, r4, lsl #3
 8001e4c:	6065      	str	r5, [r4, #4]
 8001e4e:	698c      	ldr	r4, [r1, #24]
 8001e50:	bb14      	cbnz	r4, 8001e98 <HAL_CAN_ConfigFilter+0xec>
 8001e52:	f8d3 4204 	ldr.w	r4, [r3, #516]	; 0x204
 8001e56:	4004      	ands	r4, r0
 8001e58:	f8c3 4204 	str.w	r4, [r3, #516]	; 0x204
 8001e5c:	690c      	ldr	r4, [r1, #16]
 8001e5e:	b9ac      	cbnz	r4, 8001e8c <HAL_CAN_ConfigFilter+0xe0>
 8001e60:	f8d3 4214 	ldr.w	r4, [r3, #532]	; 0x214
 8001e64:	4020      	ands	r0, r4
 8001e66:	f8c3 0214 	str.w	r0, [r3, #532]	; 0x214
 8001e6a:	6a09      	ldr	r1, [r1, #32]
 8001e6c:	2901      	cmp	r1, #1
 8001e6e:	d104      	bne.n	8001e7a <HAL_CAN_ConfigFilter+0xce>
 8001e70:	f8d3 121c 	ldr.w	r1, [r3, #540]	; 0x21c
 8001e74:	430a      	orrs	r2, r1
 8001e76:	f8c3 221c 	str.w	r2, [r3, #540]	; 0x21c
 8001e7a:	f8d3 2200 	ldr.w	r2, [r3, #512]	; 0x200
 8001e7e:	2000      	movs	r0, #0
 8001e80:	f022 0201 	bic.w	r2, r2, #1
 8001e84:	f8c3 2200 	str.w	r2, [r3, #512]	; 0x200
 8001e88:	bc70      	pop	{r4, r5, r6}
 8001e8a:	4770      	bx	lr
 8001e8c:	f8d3 0214 	ldr.w	r0, [r3, #532]	; 0x214
 8001e90:	4310      	orrs	r0, r2
 8001e92:	f8c3 0214 	str.w	r0, [r3, #532]	; 0x214
 8001e96:	e7e8      	b.n	8001e6a <HAL_CAN_ConfigFilter+0xbe>
 8001e98:	f8d3 4204 	ldr.w	r4, [r3, #516]	; 0x204
 8001e9c:	4314      	orrs	r4, r2
 8001e9e:	f8c3 4204 	str.w	r4, [r3, #516]	; 0x204
 8001ea2:	e7db      	b.n	8001e5c <HAL_CAN_ConfigFilter+0xb0>

08001ea4 <HAL_CAN_Start>:
 8001ea4:	b570      	push	{r4, r5, r6, lr}
 8001ea6:	f890 3020 	ldrb.w	r3, [r0, #32]
 8001eaa:	4604      	mov	r4, r0
 8001eac:	2b01      	cmp	r3, #1
 8001eae:	d006      	beq.n	8001ebe <HAL_CAN_Start+0x1a>
 8001eb0:	6a43      	ldr	r3, [r0, #36]	; 0x24
 8001eb2:	2601      	movs	r6, #1
 8001eb4:	f443 2300 	orr.w	r3, r3, #524288	; 0x80000
 8001eb8:	6243      	str	r3, [r0, #36]	; 0x24
 8001eba:	4630      	mov	r0, r6
 8001ebc:	bd70      	pop	{r4, r5, r6, pc}
 8001ebe:	6802      	ldr	r2, [r0, #0]
 8001ec0:	b2de      	uxtb	r6, r3
 8001ec2:	2302      	movs	r3, #2
 8001ec4:	f880 3020 	strb.w	r3, [r0, #32]
 8001ec8:	6813      	ldr	r3, [r2, #0]
 8001eca:	f023 0301 	bic.w	r3, r3, #1
 8001ece:	6013      	str	r3, [r2, #0]
 8001ed0:	f7ff fede 	bl	8001c90 <HAL_GetTick>
 8001ed4:	4605      	mov	r5, r0
 8001ed6:	e004      	b.n	8001ee2 <HAL_CAN_Start+0x3e>
 8001ed8:	f7ff feda 	bl	8001c90 <HAL_GetTick>
 8001edc:	1b43      	subs	r3, r0, r5
 8001ede:	2b0a      	cmp	r3, #10
 8001ee0:	d808      	bhi.n	8001ef4 <HAL_CAN_Start+0x50>
 8001ee2:	6823      	ldr	r3, [r4, #0]
 8001ee4:	685b      	ldr	r3, [r3, #4]
 8001ee6:	f013 0301 	ands.w	r3, r3, #1
 8001eea:	d1f5      	bne.n	8001ed8 <HAL_CAN_Start+0x34>
 8001eec:	461e      	mov	r6, r3
 8001eee:	6263      	str	r3, [r4, #36]	; 0x24
 8001ef0:	4630      	mov	r0, r6
 8001ef2:	bd70      	pop	{r4, r5, r6, pc}
 8001ef4:	6a63      	ldr	r3, [r4, #36]	; 0x24
 8001ef6:	2205      	movs	r2, #5
 8001ef8:	4630      	mov	r0, r6
 8001efa:	f443 3300 	orr.w	r3, r3, #131072	; 0x20000
 8001efe:	6263      	str	r3, [r4, #36]	; 0x24
 8001f00:	f884 2020 	strb.w	r2, [r4, #32]
 8001f04:	bd70      	pop	{r4, r5, r6, pc}
 8001f06:	bf00      	nop

08001f08 <HAL_CAN_AddTxMessage>:
 8001f08:	b530      	push	{r4, r5, lr}
 8001f0a:	4684      	mov	ip, r0
 8001f0c:	f890 0020 	ldrb.w	r0, [r0, #32]
 8001f10:	3801      	subs	r0, #1
 8001f12:	f8dc 4000 	ldr.w	r4, [ip]
 8001f16:	2801      	cmp	r0, #1
 8001f18:	68a4      	ldr	r4, [r4, #8]
 8001f1a:	d841      	bhi.n	8001fa0 <HAL_CAN_AddTxMessage+0x98>
 8001f1c:	f014 5fe0 	tst.w	r4, #469762048	; 0x1c000000
 8001f20:	d036      	beq.n	8001f90 <HAL_CAN_AddTxMessage+0x88>
 8001f22:	f3c4 6401 	ubfx	r4, r4, #24, #2
 8001f26:	2001      	movs	r0, #1
 8001f28:	40a0      	lsls	r0, r4
 8001f2a:	6018      	str	r0, [r3, #0]
 8001f2c:	688b      	ldr	r3, [r1, #8]
 8001f2e:	2b00      	cmp	r3, #0
 8001f30:	d03e      	beq.n	8001fb0 <HAL_CAN_AddTxMessage+0xa8>
 8001f32:	68c8      	ldr	r0, [r1, #12]
 8001f34:	f8dc 5000 	ldr.w	r5, [ip]
 8001f38:	4303      	orrs	r3, r0
 8001f3a:	6848      	ldr	r0, [r1, #4]
 8001f3c:	ea43 03c0 	orr.w	r3, r3, r0, lsl #3
 8001f40:	f104 0018 	add.w	r0, r4, #24
 8001f44:	ea4f 1e00 	mov.w	lr, r0, lsl #4
 8001f48:	f845 300e 	str.w	r3, [r5, lr]
 8001f4c:	f8dc 3000 	ldr.w	r3, [ip]
 8001f50:	eb03 1300 	add.w	r3, r3, r0, lsl #4
 8001f54:	6908      	ldr	r0, [r1, #16]
 8001f56:	6058      	str	r0, [r3, #4]
 8001f58:	7d0b      	ldrb	r3, [r1, #20]
 8001f5a:	2b01      	cmp	r3, #1
 8001f5c:	d035      	beq.n	8001fca <HAL_CAN_AddTxMessage+0xc2>
 8001f5e:	ea4f 1e04 	mov.w	lr, r4, lsl #4
 8001f62:	f8dc 1000 	ldr.w	r1, [ip]
 8001f66:	2000      	movs	r0, #0
 8001f68:	6853      	ldr	r3, [r2, #4]
 8001f6a:	4471      	add	r1, lr
 8001f6c:	f8c1 318c 	str.w	r3, [r1, #396]	; 0x18c
 8001f70:	f8dc 1000 	ldr.w	r1, [ip]
 8001f74:	6813      	ldr	r3, [r2, #0]
 8001f76:	4471      	add	r1, lr
 8001f78:	f8c1 3188 	str.w	r3, [r1, #392]	; 0x188
 8001f7c:	f8dc 3000 	ldr.w	r3, [ip]
 8001f80:	4473      	add	r3, lr
 8001f82:	f8d3 2180 	ldr.w	r2, [r3, #384]	; 0x180
 8001f86:	f042 0201 	orr.w	r2, r2, #1
 8001f8a:	f8c3 2180 	str.w	r2, [r3, #384]	; 0x180
 8001f8e:	bd30      	pop	{r4, r5, pc}
 8001f90:	f8dc 3024 	ldr.w	r3, [ip, #36]	; 0x24
 8001f94:	2001      	movs	r0, #1
 8001f96:	f443 1300 	orr.w	r3, r3, #2097152	; 0x200000
 8001f9a:	f8cc 3024 	str.w	r3, [ip, #36]	; 0x24
 8001f9e:	bd30      	pop	{r4, r5, pc}
 8001fa0:	f8dc 3024 	ldr.w	r3, [ip, #36]	; 0x24
 8001fa4:	2001      	movs	r0, #1
 8001fa6:	f443 2380 	orr.w	r3, r3, #262144	; 0x40000
 8001faa:	f8cc 3024 	str.w	r3, [ip, #36]	; 0x24
 8001fae:	bd30      	pop	{r4, r5, pc}
 8001fb0:	6808      	ldr	r0, [r1, #0]
 8001fb2:	68cb      	ldr	r3, [r1, #12]
 8001fb4:	f8dc 5000 	ldr.w	r5, [ip]
 8001fb8:	ea43 5340 	orr.w	r3, r3, r0, lsl #21
 8001fbc:	f104 0018 	add.w	r0, r4, #24
 8001fc0:	ea4f 1e00 	mov.w	lr, r0, lsl #4
 8001fc4:	f845 300e 	str.w	r3, [r5, lr]
 8001fc8:	e7c0      	b.n	8001f4c <HAL_CAN_AddTxMessage+0x44>
 8001fca:	f8dc 3000 	ldr.w	r3, [ip]
 8001fce:	ea4f 1e04 	mov.w	lr, r4, lsl #4
 8001fd2:	eb03 1404 	add.w	r4, r3, r4, lsl #4
 8001fd6:	f8d4 3184 	ldr.w	r3, [r4, #388]	; 0x184
 8001fda:	f443 7380 	orr.w	r3, r3, #256	; 0x100
 8001fde:	f8c4 3184 	str.w	r3, [r4, #388]	; 0x184
 8001fe2:	e7be      	b.n	8001f62 <HAL_CAN_AddTxMessage+0x5a>

08001fe4 <HAL_CAN_GetRxMessage>:
 8001fe4:	4684      	mov	ip, r0
 8001fe6:	f890 0020 	ldrb.w	r0, [r0, #32]
 8001fea:	3801      	subs	r0, #1
 8001fec:	2801      	cmp	r0, #1
 8001fee:	f200 8085 	bhi.w	80020fc <HAL_CAN_GetRxMessage+0x118>
 8001ff2:	b510      	push	{r4, lr}
 8001ff4:	f8dc 4000 	ldr.w	r4, [ip]
 8001ff8:	b951      	cbnz	r1, 8002010 <HAL_CAN_GetRxMessage+0x2c>
 8001ffa:	68e0      	ldr	r0, [r4, #12]
 8001ffc:	0780      	lsls	r0, r0, #30
 8001ffe:	d10a      	bne.n	8002016 <HAL_CAN_GetRxMessage+0x32>
 8002000:	f8dc 3024 	ldr.w	r3, [ip, #36]	; 0x24
 8002004:	2001      	movs	r0, #1
 8002006:	f443 1300 	orr.w	r3, r3, #2097152	; 0x200000
 800200a:	f8cc 3024 	str.w	r3, [ip, #36]	; 0x24
 800200e:	bd10      	pop	{r4, pc}
 8002010:	6920      	ldr	r0, [r4, #16]
 8002012:	0780      	lsls	r0, r0, #30
 8002014:	d0f4      	beq.n	8002000 <HAL_CAN_GetRxMessage+0x1c>
 8002016:	f101 001b 	add.w	r0, r1, #27
 800201a:	ea4f 1e00 	mov.w	lr, r0, lsl #4
 800201e:	f854 400e 	ldr.w	r4, [r4, lr]
 8002022:	f004 0404 	and.w	r4, r4, #4
 8002026:	6094      	str	r4, [r2, #8]
 8002028:	2c00      	cmp	r4, #0
 800202a:	d06f      	beq.n	800210c <HAL_CAN_GetRxMessage+0x128>
 800202c:	f8dc 4000 	ldr.w	r4, [ip]
 8002030:	f854 400e 	ldr.w	r4, [r4, lr]
 8002034:	08e4      	lsrs	r4, r4, #3
 8002036:	6054      	str	r4, [r2, #4]
 8002038:	f8dc 4000 	ldr.w	r4, [ip]
 800203c:	0100      	lsls	r0, r0, #4
 800203e:	5824      	ldr	r4, [r4, r0]
 8002040:	f004 0402 	and.w	r4, r4, #2
 8002044:	60d4      	str	r4, [r2, #12]
 8002046:	f8dc 4000 	ldr.w	r4, [ip]
 800204a:	4404      	add	r4, r0
 800204c:	6864      	ldr	r4, [r4, #4]
 800204e:	f004 040f 	and.w	r4, r4, #15
 8002052:	6114      	str	r4, [r2, #16]
 8002054:	f8dc 4000 	ldr.w	r4, [ip]
 8002058:	4404      	add	r4, r0
 800205a:	6864      	ldr	r4, [r4, #4]
 800205c:	f3c4 2407 	ubfx	r4, r4, #8, #8
 8002060:	6194      	str	r4, [r2, #24]
 8002062:	f8dc 4000 	ldr.w	r4, [ip]
 8002066:	4420      	add	r0, r4
 8002068:	6840      	ldr	r0, [r0, #4]
 800206a:	0c00      	lsrs	r0, r0, #16
 800206c:	6150      	str	r0, [r2, #20]
 800206e:	f8dc 2000 	ldr.w	r2, [ip]
 8002072:	eb02 1201 	add.w	r2, r2, r1, lsl #4
 8002076:	f8d2 21b8 	ldr.w	r2, [r2, #440]	; 0x1b8
 800207a:	701a      	strb	r2, [r3, #0]
 800207c:	f8dc 2000 	ldr.w	r2, [ip]
 8002080:	eb02 1201 	add.w	r2, r2, r1, lsl #4
 8002084:	f8d2 21b8 	ldr.w	r2, [r2, #440]	; 0x1b8
 8002088:	0a12      	lsrs	r2, r2, #8
 800208a:	705a      	strb	r2, [r3, #1]
 800208c:	f8dc 2000 	ldr.w	r2, [ip]
 8002090:	eb02 1201 	add.w	r2, r2, r1, lsl #4
 8002094:	f8d2 21b8 	ldr.w	r2, [r2, #440]	; 0x1b8
 8002098:	0c12      	lsrs	r2, r2, #16
 800209a:	709a      	strb	r2, [r3, #2]
 800209c:	f8dc 2000 	ldr.w	r2, [ip]
 80020a0:	eb02 1201 	add.w	r2, r2, r1, lsl #4
 80020a4:	f8d2 21b8 	ldr.w	r2, [r2, #440]	; 0x1b8
 80020a8:	0e12      	lsrs	r2, r2, #24
 80020aa:	70da      	strb	r2, [r3, #3]
 80020ac:	f8dc 2000 	ldr.w	r2, [ip]
 80020b0:	eb02 1201 	add.w	r2, r2, r1, lsl #4
 80020b4:	f8d2 21bc 	ldr.w	r2, [r2, #444]	; 0x1bc
 80020b8:	711a      	strb	r2, [r3, #4]
 80020ba:	f8dc 2000 	ldr.w	r2, [ip]
 80020be:	eb02 1201 	add.w	r2, r2, r1, lsl #4
 80020c2:	f8d2 21bc 	ldr.w	r2, [r2, #444]	; 0x1bc
 80020c6:	0a12      	lsrs	r2, r2, #8
 80020c8:	715a      	strb	r2, [r3, #5]
 80020ca:	f8dc 2000 	ldr.w	r2, [ip]
 80020ce:	eb02 1201 	add.w	r2, r2, r1, lsl #4
 80020d2:	f8d2 21bc 	ldr.w	r2, [r2, #444]	; 0x1bc
 80020d6:	0c12      	lsrs	r2, r2, #16
 80020d8:	719a      	strb	r2, [r3, #6]
 80020da:	f8dc 2000 	ldr.w	r2, [ip]
 80020de:	eb02 1201 	add.w	r2, r2, r1, lsl #4
 80020e2:	f8d2 21bc 	ldr.w	r2, [r2, #444]	; 0x1bc
 80020e6:	0e12      	lsrs	r2, r2, #24
 80020e8:	71da      	strb	r2, [r3, #7]
 80020ea:	f8dc 2000 	ldr.w	r2, [ip]
 80020ee:	b9a1      	cbnz	r1, 800211a <HAL_CAN_GetRxMessage+0x136>
 80020f0:	68d3      	ldr	r3, [r2, #12]
 80020f2:	4608      	mov	r0, r1
 80020f4:	f043 0320 	orr.w	r3, r3, #32
 80020f8:	60d3      	str	r3, [r2, #12]
 80020fa:	bd10      	pop	{r4, pc}
 80020fc:	f8dc 3024 	ldr.w	r3, [ip, #36]	; 0x24
 8002100:	2001      	movs	r0, #1
 8002102:	f443 2380 	orr.w	r3, r3, #262144	; 0x40000
 8002106:	f8cc 3024 	str.w	r3, [ip, #36]	; 0x24
 800210a:	4770      	bx	lr
 800210c:	f8dc 4000 	ldr.w	r4, [ip]
 8002110:	f854 400e 	ldr.w	r4, [r4, lr]
 8002114:	0d64      	lsrs	r4, r4, #21
 8002116:	6014      	str	r4, [r2, #0]
 8002118:	e78e      	b.n	8002038 <HAL_CAN_GetRxMessage+0x54>
 800211a:	6913      	ldr	r3, [r2, #16]
 800211c:	2000      	movs	r0, #0
 800211e:	f043 0320 	orr.w	r3, r3, #32
 8002122:	6113      	str	r3, [r2, #16]
 8002124:	bd10      	pop	{r4, pc}
 8002126:	bf00      	nop

08002128 <HAL_CAN_ActivateNotification>:
 8002128:	f890 2020 	ldrb.w	r2, [r0, #32]
 800212c:	4603      	mov	r3, r0
 800212e:	3a01      	subs	r2, #1
 8002130:	2a01      	cmp	r2, #1
 8002132:	d905      	bls.n	8002140 <HAL_CAN_ActivateNotification+0x18>
 8002134:	6a42      	ldr	r2, [r0, #36]	; 0x24
 8002136:	2001      	movs	r0, #1
 8002138:	f442 2280 	orr.w	r2, r2, #262144	; 0x40000
 800213c:	625a      	str	r2, [r3, #36]	; 0x24
 800213e:	4770      	bx	lr
 8002140:	6802      	ldr	r2, [r0, #0]
 8002142:	2000      	movs	r0, #0
 8002144:	6953      	ldr	r3, [r2, #20]
 8002146:	4319      	orrs	r1, r3
 8002148:	6151      	str	r1, [r2, #20]
 800214a:	4770      	bx	lr

0800214c <HAL_CAN_TxMailbox0CompleteCallback>:
 800214c:	4770      	bx	lr
 800214e:	bf00      	nop

08002150 <HAL_CAN_TxMailbox1CompleteCallback>:
 8002150:	4770      	bx	lr
 8002152:	bf00      	nop

08002154 <HAL_CAN_TxMailbox2CompleteCallback>:
 8002154:	4770      	bx	lr
 8002156:	bf00      	nop

08002158 <HAL_CAN_TxMailbox0AbortCallback>:
 8002158:	4770      	bx	lr
 800215a:	bf00      	nop

0800215c <HAL_CAN_TxMailbox1AbortCallback>:
 800215c:	4770      	bx	lr
 800215e:	bf00      	nop

08002160 <HAL_CAN_TxMailbox2AbortCallback>:
 8002160:	4770      	bx	lr
 8002162:	bf00      	nop

08002164 <HAL_CAN_RxFifo0FullCallback>:
 8002164:	4770      	bx	lr
 8002166:	bf00      	nop

08002168 <HAL_CAN_RxFifo1MsgPendingCallback>:
 8002168:	4770      	bx	lr
 800216a:	bf00      	nop

0800216c <HAL_CAN_RxFifo1FullCallback>:
 800216c:	4770      	bx	lr
 800216e:	bf00      	nop

08002170 <HAL_CAN_SleepCallback>:
 8002170:	4770      	bx	lr
 8002172:	bf00      	nop

08002174 <HAL_CAN_WakeUpFromRxMsgCallback>:
 8002174:	4770      	bx	lr
 8002176:	bf00      	nop

08002178 <HAL_CAN_IRQHandler>:
 8002178:	e92d 4ff8 	stmdb	sp!, {r3, r4, r5, r6, r7, r8, r9, sl, fp, lr}
 800217c:	6803      	ldr	r3, [r0, #0]
 800217e:	4605      	mov	r5, r0
 8002180:	695c      	ldr	r4, [r3, #20]
 8002182:	f8d3 8004 	ldr.w	r8, [r3, #4]
 8002186:	f014 0601 	ands.w	r6, r4, #1
 800218a:	689f      	ldr	r7, [r3, #8]
 800218c:	f8d3 b00c 	ldr.w	fp, [r3, #12]
 8002190:	f8d3 a010 	ldr.w	sl, [r3, #16]
 8002194:	f8d3 9018 	ldr.w	r9, [r3, #24]
 8002198:	d025      	beq.n	80021e6 <HAL_CAN_IRQHandler+0x6e>
 800219a:	f017 0601 	ands.w	r6, r7, #1
 800219e:	f040 8092 	bne.w	80022c6 <HAL_CAN_IRQHandler+0x14e>
 80021a2:	f44f 5200 	mov.w	r2, #8192	; 0x2000
 80021a6:	f44f 4180 	mov.w	r1, #16384	; 0x4000
 80021aa:	05f8      	lsls	r0, r7, #23
 80021ac:	d50d      	bpl.n	80021ca <HAL_CAN_IRQHandler+0x52>
 80021ae:	682b      	ldr	r3, [r5, #0]
 80021b0:	f44f 7080 	mov.w	r0, #256	; 0x100
 80021b4:	6098      	str	r0, [r3, #8]
 80021b6:	05bb      	lsls	r3, r7, #22
 80021b8:	f100 80c1 	bmi.w	800233e <HAL_CAN_IRQHandler+0x1c6>
 80021bc:	0578      	lsls	r0, r7, #21
 80021be:	f100 80e2 	bmi.w	8002386 <HAL_CAN_IRQHandler+0x20e>
 80021c2:	053b      	lsls	r3, r7, #20
 80021c4:	f140 80ee 	bpl.w	80023a4 <HAL_CAN_IRQHandler+0x22c>
 80021c8:	460e      	mov	r6, r1
 80021ca:	03f8      	lsls	r0, r7, #15
 80021cc:	d50b      	bpl.n	80021e6 <HAL_CAN_IRQHandler+0x6e>
 80021ce:	682b      	ldr	r3, [r5, #0]
 80021d0:	f44f 3280 	mov.w	r2, #65536	; 0x10000
 80021d4:	03b9      	lsls	r1, r7, #14
 80021d6:	609a      	str	r2, [r3, #8]
 80021d8:	f100 80bd 	bmi.w	8002356 <HAL_CAN_IRQHandler+0x1de>
 80021dc:	037a      	lsls	r2, r7, #13
 80021de:	f140 80cd 	bpl.w	800237c <HAL_CAN_IRQHandler+0x204>
 80021e2:	f446 4600 	orr.w	r6, r6, #32768	; 0x8000
 80021e6:	0727      	lsls	r7, r4, #28
 80021e8:	d502      	bpl.n	80021f0 <HAL_CAN_IRQHandler+0x78>
 80021ea:	f01b 0f10 	tst.w	fp, #16
 80021ee:	d164      	bne.n	80022ba <HAL_CAN_IRQHandler+0x142>
 80021f0:	0760      	lsls	r0, r4, #29
 80021f2:	d503      	bpl.n	80021fc <HAL_CAN_IRQHandler+0x84>
 80021f4:	f01b 0f08 	tst.w	fp, #8
 80021f8:	f040 808f 	bne.w	800231a <HAL_CAN_IRQHandler+0x1a2>
 80021fc:	07a1      	lsls	r1, r4, #30
 80021fe:	d504      	bpl.n	800220a <HAL_CAN_IRQHandler+0x92>
 8002200:	682b      	ldr	r3, [r5, #0]
 8002202:	68db      	ldr	r3, [r3, #12]
 8002204:	079a      	lsls	r2, r3, #30
 8002206:	f040 808f 	bne.w	8002328 <HAL_CAN_IRQHandler+0x1b0>
 800220a:	0663      	lsls	r3, r4, #25
 800220c:	d502      	bpl.n	8002214 <HAL_CAN_IRQHandler+0x9c>
 800220e:	f01a 0f10 	tst.w	sl, #16
 8002212:	d14c      	bne.n	80022ae <HAL_CAN_IRQHandler+0x136>
 8002214:	06a7      	lsls	r7, r4, #26
 8002216:	d502      	bpl.n	800221e <HAL_CAN_IRQHandler+0xa6>
 8002218:	f01a 0f08 	tst.w	sl, #8
 800221c:	d176      	bne.n	800230c <HAL_CAN_IRQHandler+0x194>
 800221e:	06e0      	lsls	r0, r4, #27
 8002220:	d503      	bpl.n	800222a <HAL_CAN_IRQHandler+0xb2>
 8002222:	682b      	ldr	r3, [r5, #0]
 8002224:	691b      	ldr	r3, [r3, #16]
 8002226:	0799      	lsls	r1, r3, #30
 8002228:	d165      	bne.n	80022f6 <HAL_CAN_IRQHandler+0x17e>
 800222a:	03a2      	lsls	r2, r4, #14
 800222c:	d502      	bpl.n	8002234 <HAL_CAN_IRQHandler+0xbc>
 800222e:	f018 0f10 	tst.w	r8, #16
 8002232:	d164      	bne.n	80022fe <HAL_CAN_IRQHandler+0x186>
 8002234:	03e3      	lsls	r3, r4, #15
 8002236:	d502      	bpl.n	800223e <HAL_CAN_IRQHandler+0xc6>
 8002238:	f018 0f08 	tst.w	r8, #8
 800223c:	d178      	bne.n	8002330 <HAL_CAN_IRQHandler+0x1b8>
 800223e:	0427      	lsls	r7, r4, #16
 8002240:	d532      	bpl.n	80022a8 <HAL_CAN_IRQHandler+0x130>
 8002242:	f018 0f04 	tst.w	r8, #4
 8002246:	d02c      	beq.n	80022a2 <HAL_CAN_IRQHandler+0x12a>
 8002248:	05e0      	lsls	r0, r4, #23
 800224a:	d504      	bpl.n	8002256 <HAL_CAN_IRQHandler+0xde>
 800224c:	f019 0f01 	tst.w	r9, #1
 8002250:	bf18      	it	ne
 8002252:	f046 0601 	orrne.w	r6, r6, #1
 8002256:	05a1      	lsls	r1, r4, #22
 8002258:	d504      	bpl.n	8002264 <HAL_CAN_IRQHandler+0xec>
 800225a:	f019 0f02 	tst.w	r9, #2
 800225e:	bf18      	it	ne
 8002260:	f046 0602 	orrne.w	r6, r6, #2
 8002264:	0562      	lsls	r2, r4, #21
 8002266:	d504      	bpl.n	8002272 <HAL_CAN_IRQHandler+0xfa>
 8002268:	f019 0f04 	tst.w	r9, #4
 800226c:	bf18      	it	ne
 800226e:	f046 0604 	orrne.w	r6, r6, #4
 8002272:	0523      	lsls	r3, r4, #20
 8002274:	d515      	bpl.n	80022a2 <HAL_CAN_IRQHandler+0x12a>
 8002276:	f019 0970 	ands.w	r9, r9, #112	; 0x70
 800227a:	d012      	beq.n	80022a2 <HAL_CAN_IRQHandler+0x12a>
 800227c:	f1b9 0f40 	cmp.w	r9, #64	; 0x40
 8002280:	f000 809f 	beq.w	80023c2 <HAL_CAN_IRQHandler+0x24a>
 8002284:	d86b      	bhi.n	800235e <HAL_CAN_IRQHandler+0x1e6>
 8002286:	f1b9 0f20 	cmp.w	r9, #32
 800228a:	f000 8088 	beq.w	800239e <HAL_CAN_IRQHandler+0x226>
 800228e:	f1b9 0f30 	cmp.w	r9, #48	; 0x30
 8002292:	d16d      	bne.n	8002370 <HAL_CAN_IRQHandler+0x1f8>
 8002294:	f046 0620 	orr.w	r6, r6, #32
 8002298:	682a      	ldr	r2, [r5, #0]
 800229a:	6993      	ldr	r3, [r2, #24]
 800229c:	f023 0370 	bic.w	r3, r3, #112	; 0x70
 80022a0:	6193      	str	r3, [r2, #24]
 80022a2:	682b      	ldr	r3, [r5, #0]
 80022a4:	2204      	movs	r2, #4
 80022a6:	605a      	str	r2, [r3, #4]
 80022a8:	b9ee      	cbnz	r6, 80022e6 <HAL_CAN_IRQHandler+0x16e>
 80022aa:	e8bd 8ff8 	ldmia.w	sp!, {r3, r4, r5, r6, r7, r8, r9, sl, fp, pc}
 80022ae:	682b      	ldr	r3, [r5, #0]
 80022b0:	2210      	movs	r2, #16
 80022b2:	f446 6680 	orr.w	r6, r6, #1024	; 0x400
 80022b6:	611a      	str	r2, [r3, #16]
 80022b8:	e7ac      	b.n	8002214 <HAL_CAN_IRQHandler+0x9c>
 80022ba:	682b      	ldr	r3, [r5, #0]
 80022bc:	2210      	movs	r2, #16
 80022be:	f446 7600 	orr.w	r6, r6, #512	; 0x200
 80022c2:	60da      	str	r2, [r3, #12]
 80022c4:	e794      	b.n	80021f0 <HAL_CAN_IRQHandler+0x78>
 80022c6:	2201      	movs	r2, #1
 80022c8:	609a      	str	r2, [r3, #8]
 80022ca:	07bb      	lsls	r3, r7, #30
 80022cc:	d43b      	bmi.n	8002346 <HAL_CAN_IRQHandler+0x1ce>
 80022ce:	077e      	lsls	r6, r7, #29
 80022d0:	d45b      	bmi.n	800238a <HAL_CAN_IRQHandler+0x212>
 80022d2:	f017 0608 	ands.w	r6, r7, #8
 80022d6:	d069      	beq.n	80023ac <HAL_CAN_IRQHandler+0x234>
 80022d8:	f44f 5240 	mov.w	r2, #12288	; 0x3000
 80022dc:	f44f 41a0 	mov.w	r1, #20480	; 0x5000
 80022e0:	f44f 5680 	mov.w	r6, #4096	; 0x1000
 80022e4:	e761      	b.n	80021aa <HAL_CAN_IRQHandler+0x32>
 80022e6:	6a6b      	ldr	r3, [r5, #36]	; 0x24
 80022e8:	4628      	mov	r0, r5
 80022ea:	431e      	orrs	r6, r3
 80022ec:	626e      	str	r6, [r5, #36]	; 0x24
 80022ee:	f006 fef9 	bl	80090e4 <HAL_CAN_ErrorCallback>
 80022f2:	e8bd 8ff8 	ldmia.w	sp!, {r3, r4, r5, r6, r7, r8, r9, sl, fp, pc}
 80022f6:	4628      	mov	r0, r5
 80022f8:	f7ff ff36 	bl	8002168 <HAL_CAN_RxFifo1MsgPendingCallback>
 80022fc:	e795      	b.n	800222a <HAL_CAN_IRQHandler+0xb2>
 80022fe:	682b      	ldr	r3, [r5, #0]
 8002300:	2210      	movs	r2, #16
 8002302:	4628      	mov	r0, r5
 8002304:	605a      	str	r2, [r3, #4]
 8002306:	f7ff ff33 	bl	8002170 <HAL_CAN_SleepCallback>
 800230a:	e793      	b.n	8002234 <HAL_CAN_IRQHandler+0xbc>
 800230c:	682b      	ldr	r3, [r5, #0]
 800230e:	2208      	movs	r2, #8
 8002310:	4628      	mov	r0, r5
 8002312:	611a      	str	r2, [r3, #16]
 8002314:	f7ff ff2a 	bl	800216c <HAL_CAN_RxFifo1FullCallback>
 8002318:	e781      	b.n	800221e <HAL_CAN_IRQHandler+0xa6>
 800231a:	682b      	ldr	r3, [r5, #0]
 800231c:	2208      	movs	r2, #8
 800231e:	4628      	mov	r0, r5
 8002320:	60da      	str	r2, [r3, #12]
 8002322:	f7ff ff1f 	bl	8002164 <HAL_CAN_RxFifo0FullCallback>
 8002326:	e769      	b.n	80021fc <HAL_CAN_IRQHandler+0x84>
 8002328:	4628      	mov	r0, r5
 800232a:	f006 fea9 	bl	8009080 <HAL_CAN_RxFifo0MsgPendingCallback>
 800232e:	e76c      	b.n	800220a <HAL_CAN_IRQHandler+0x92>
 8002330:	682b      	ldr	r3, [r5, #0]
 8002332:	2208      	movs	r2, #8
 8002334:	4628      	mov	r0, r5
 8002336:	605a      	str	r2, [r3, #4]
 8002338:	f7ff ff1c 	bl	8002174 <HAL_CAN_WakeUpFromRxMsgCallback>
 800233c:	e77f      	b.n	800223e <HAL_CAN_IRQHandler+0xc6>
 800233e:	4628      	mov	r0, r5
 8002340:	f7ff ff06 	bl	8002150 <HAL_CAN_TxMailbox1CompleteCallback>
 8002344:	e741      	b.n	80021ca <HAL_CAN_IRQHandler+0x52>
 8002346:	f7ff ff01 	bl	800214c <HAL_CAN_TxMailbox0CompleteCallback>
 800234a:	2600      	movs	r6, #0
 800234c:	f44f 5200 	mov.w	r2, #8192	; 0x2000
 8002350:	f44f 4180 	mov.w	r1, #16384	; 0x4000
 8002354:	e729      	b.n	80021aa <HAL_CAN_IRQHandler+0x32>
 8002356:	4628      	mov	r0, r5
 8002358:	f7ff fefc 	bl	8002154 <HAL_CAN_TxMailbox2CompleteCallback>
 800235c:	e743      	b.n	80021e6 <HAL_CAN_IRQHandler+0x6e>
 800235e:	f1b9 0f50 	cmp.w	r9, #80	; 0x50
 8002362:	d019      	beq.n	8002398 <HAL_CAN_IRQHandler+0x220>
 8002364:	f1b9 0f60 	cmp.w	r9, #96	; 0x60
 8002368:	d196      	bne.n	8002298 <HAL_CAN_IRQHandler+0x120>
 800236a:	f446 7680 	orr.w	r6, r6, #256	; 0x100
 800236e:	e793      	b.n	8002298 <HAL_CAN_IRQHandler+0x120>
 8002370:	f1b9 0f10 	cmp.w	r9, #16
 8002374:	d190      	bne.n	8002298 <HAL_CAN_IRQHandler+0x120>
 8002376:	f046 0608 	orr.w	r6, r6, #8
 800237a:	e78d      	b.n	8002298 <HAL_CAN_IRQHandler+0x120>
 800237c:	033b      	lsls	r3, r7, #12
 800237e:	d51c      	bpl.n	80023ba <HAL_CAN_IRQHandler+0x242>
 8002380:	f446 3680 	orr.w	r6, r6, #65536	; 0x10000
 8002384:	e72f      	b.n	80021e6 <HAL_CAN_IRQHandler+0x6e>
 8002386:	4616      	mov	r6, r2
 8002388:	e71f      	b.n	80021ca <HAL_CAN_IRQHandler+0x52>
 800238a:	f44f 5220 	mov.w	r2, #10240	; 0x2800
 800238e:	f44f 4190 	mov.w	r1, #18432	; 0x4800
 8002392:	f44f 6600 	mov.w	r6, #2048	; 0x800
 8002396:	e708      	b.n	80021aa <HAL_CAN_IRQHandler+0x32>
 8002398:	f046 0680 	orr.w	r6, r6, #128	; 0x80
 800239c:	e77c      	b.n	8002298 <HAL_CAN_IRQHandler+0x120>
 800239e:	f046 0610 	orr.w	r6, r6, #16
 80023a2:	e779      	b.n	8002298 <HAL_CAN_IRQHandler+0x120>
 80023a4:	4628      	mov	r0, r5
 80023a6:	f7ff fed9 	bl	800215c <HAL_CAN_TxMailbox1AbortCallback>
 80023aa:	e70e      	b.n	80021ca <HAL_CAN_IRQHandler+0x52>
 80023ac:	f7ff fed4 	bl	8002158 <HAL_CAN_TxMailbox0AbortCallback>
 80023b0:	f44f 5200 	mov.w	r2, #8192	; 0x2000
 80023b4:	f44f 4180 	mov.w	r1, #16384	; 0x4000
 80023b8:	e6f7      	b.n	80021aa <HAL_CAN_IRQHandler+0x32>
 80023ba:	4628      	mov	r0, r5
 80023bc:	f7ff fed0 	bl	8002160 <HAL_CAN_TxMailbox2AbortCallback>
 80023c0:	e711      	b.n	80021e6 <HAL_CAN_IRQHandler+0x6e>
 80023c2:	f046 0640 	orr.w	r6, r6, #64	; 0x40
 80023c6:	e767      	b.n	8002298 <HAL_CAN_IRQHandler+0x120>

080023c8 <HAL_NVIC_SetPriorityGrouping>:
 80023c8:	4906      	ldr	r1, [pc, #24]	; (80023e4 <HAL_NVIC_SetPriorityGrouping+0x1c>)
 80023ca:	f64f 0cff 	movw	ip, #63743	; 0xf8ff
 80023ce:	0200      	lsls	r0, r0, #8
 80023d0:	4b05      	ldr	r3, [pc, #20]	; (80023e8 <HAL_NVIC_SetPriorityGrouping+0x20>)
 80023d2:	68ca      	ldr	r2, [r1, #12]
 80023d4:	f400 60e0 	and.w	r0, r0, #1792	; 0x700
 80023d8:	ea02 020c 	and.w	r2, r2, ip
 80023dc:	4310      	orrs	r0, r2
 80023de:	4303      	orrs	r3, r0
 80023e0:	60cb      	str	r3, [r1, #12]
 80023e2:	4770      	bx	lr
 80023e4:	e000ed00 	.word	0xe000ed00
 80023e8:	05fa0000 	.word	0x05fa0000

080023ec <HAL_NVIC_SetPriority>:
 80023ec:	4b1b      	ldr	r3, [pc, #108]	; (800245c <HAL_NVIC_SetPriority+0x70>)
 80023ee:	b500      	push	{lr}
 80023f0:	68db      	ldr	r3, [r3, #12]
 80023f2:	f3c3 2302 	ubfx	r3, r3, #8, #3
 80023f6:	f1c3 0e07 	rsb	lr, r3, #7
 80023fa:	f103 0c04 	add.w	ip, r3, #4
 80023fe:	f1be 0f04 	cmp.w	lr, #4
 8002402:	bf28      	it	cs
 8002404:	f04f 0e04 	movcs.w	lr, #4
 8002408:	f1bc 0f06 	cmp.w	ip, #6
 800240c:	d91a      	bls.n	8002444 <HAL_NVIC_SetPriority+0x58>
 800240e:	3b03      	subs	r3, #3
 8002410:	f04f 3cff 	mov.w	ip, #4294967295
 8002414:	fa0c fc03 	lsl.w	ip, ip, r3
 8002418:	ea22 020c 	bic.w	r2, r2, ip
 800241c:	f04f 3cff 	mov.w	ip, #4294967295
 8002420:	2800      	cmp	r0, #0
 8002422:	fa0c fc0e 	lsl.w	ip, ip, lr
 8002426:	ea21 010c 	bic.w	r1, r1, ip
 800242a:	fa01 f103 	lsl.w	r1, r1, r3
 800242e:	ea41 0102 	orr.w	r1, r1, r2
 8002432:	db0a      	blt.n	800244a <HAL_NVIC_SetPriority+0x5e>
 8002434:	0109      	lsls	r1, r1, #4
 8002436:	4b0a      	ldr	r3, [pc, #40]	; (8002460 <HAL_NVIC_SetPriority+0x74>)
 8002438:	b2c9      	uxtb	r1, r1
 800243a:	4403      	add	r3, r0
 800243c:	f883 1300 	strb.w	r1, [r3, #768]	; 0x300
 8002440:	f85d fb04 	ldr.w	pc, [sp], #4
 8002444:	2200      	movs	r2, #0
 8002446:	4613      	mov	r3, r2
 8002448:	e7e8      	b.n	800241c <HAL_NVIC_SetPriority+0x30>
 800244a:	f000 000f 	and.w	r0, r0, #15
 800244e:	0109      	lsls	r1, r1, #4
 8002450:	4b04      	ldr	r3, [pc, #16]	; (8002464 <HAL_NVIC_SetPriority+0x78>)
 8002452:	b2c9      	uxtb	r1, r1
 8002454:	4403      	add	r3, r0
 8002456:	7619      	strb	r1, [r3, #24]
 8002458:	f85d fb04 	ldr.w	pc, [sp], #4
 800245c:	e000ed00 	.word	0xe000ed00
 8002460:	e000e100 	.word	0xe000e100
 8002464:	e000ecfc 	.word	0xe000ecfc

08002468 <HAL_NVIC_EnableIRQ>:
 8002468:	2800      	cmp	r0, #0
 800246a:	db07      	blt.n	800247c <HAL_NVIC_EnableIRQ+0x14>
 800246c:	f000 011f 	and.w	r1, r0, #31
 8002470:	2301      	movs	r3, #1
 8002472:	0940      	lsrs	r0, r0, #5
 8002474:	4a02      	ldr	r2, [pc, #8]	; (8002480 <HAL_NVIC_EnableIRQ+0x18>)
 8002476:	408b      	lsls	r3, r1
 8002478:	f842 3020 	str.w	r3, [r2, r0, lsl #2]
 800247c:	4770      	bx	lr
 800247e:	bf00      	nop
 8002480:	e000e100 	.word	0xe000e100

08002484 <HAL_MPU_Disable>:
 8002484:	f3bf 8f5f 	dmb	sy
 8002488:	4b04      	ldr	r3, [pc, #16]	; (800249c <HAL_MPU_Disable+0x18>)
 800248a:	2100      	movs	r1, #0
 800248c:	6a5a      	ldr	r2, [r3, #36]	; 0x24
 800248e:	f422 3280 	bic.w	r2, r2, #65536	; 0x10000
 8002492:	625a      	str	r2, [r3, #36]	; 0x24
 8002494:	f8c3 1094 	str.w	r1, [r3, #148]	; 0x94
 8002498:	4770      	bx	lr
 800249a:	bf00      	nop
 800249c:	e000ed00 	.word	0xe000ed00

080024a0 <HAL_MPU_Enable>:
 80024a0:	4b06      	ldr	r3, [pc, #24]	; (80024bc <HAL_MPU_Enable+0x1c>)
 80024a2:	f040 0001 	orr.w	r0, r0, #1
 80024a6:	f8c3 0094 	str.w	r0, [r3, #148]	; 0x94
 80024aa:	6a5a      	ldr	r2, [r3, #36]	; 0x24
 80024ac:	f442 3280 	orr.w	r2, r2, #65536	; 0x10000
 80024b0:	625a      	str	r2, [r3, #36]	; 0x24
 80024b2:	f3bf 8f4f 	dsb	sy
 80024b6:	f3bf 8f6f 	isb	sy
 80024ba:	4770      	bx	lr
 80024bc:	e000ed00 	.word	0xe000ed00

080024c0 <HAL_MPU_ConfigRegion>:
 80024c0:	7843      	ldrb	r3, [r0, #1]
 80024c2:	4a16      	ldr	r2, [pc, #88]	; (800251c <HAL_MPU_ConfigRegion+0x5c>)
 80024c4:	f8c2 3098 	str.w	r3, [r2, #152]	; 0x98
 80024c8:	7803      	ldrb	r3, [r0, #0]
 80024ca:	b313      	cbz	r3, 8002512 <HAL_MPU_ConfigRegion+0x52>
 80024cc:	6843      	ldr	r3, [r0, #4]
 80024ce:	f8c2 309c 	str.w	r3, [r2, #156]	; 0x9c
 80024d2:	7ac3      	ldrb	r3, [r0, #11]
 80024d4:	f890 c00c 	ldrb.w	ip, [r0, #12]
 80024d8:	061b      	lsls	r3, r3, #24
 80024da:	7801      	ldrb	r1, [r0, #0]
 80024dc:	ea43 730c 	orr.w	r3, r3, ip, lsl #28
 80024e0:	f890 c00a 	ldrb.w	ip, [r0, #10]
 80024e4:	430b      	orrs	r3, r1
 80024e6:	7b41      	ldrb	r1, [r0, #13]
 80024e8:	ea43 43cc 	orr.w	r3, r3, ip, lsl #19
 80024ec:	f890 c00e 	ldrb.w	ip, [r0, #14]
 80024f0:	ea43 4381 	orr.w	r3, r3, r1, lsl #18
 80024f4:	7bc1      	ldrb	r1, [r0, #15]
 80024f6:	ea43 434c 	orr.w	r3, r3, ip, lsl #17
 80024fa:	f890 c009 	ldrb.w	ip, [r0, #9]
 80024fe:	ea43 4301 	orr.w	r3, r3, r1, lsl #16
 8002502:	7a01      	ldrb	r1, [r0, #8]
 8002504:	ea43 230c 	orr.w	r3, r3, ip, lsl #8
 8002508:	ea43 0341 	orr.w	r3, r3, r1, lsl #1
 800250c:	f8c2 30a0 	str.w	r3, [r2, #160]	; 0xa0
 8002510:	4770      	bx	lr
 8002512:	f8c2 309c 	str.w	r3, [r2, #156]	; 0x9c
 8002516:	f8c2 30a0 	str.w	r3, [r2, #160]	; 0xa0
 800251a:	4770      	bx	lr
 800251c:	e000ed00 	.word	0xe000ed00

08002520 <HAL_DMA_Init>:
 8002520:	b538      	push	{r3, r4, r5, lr}
 8002522:	4604      	mov	r4, r0
 8002524:	f7ff fbb4 	bl	8001c90 <HAL_GetTick>
 8002528:	2c00      	cmp	r4, #0
 800252a:	d066      	beq.n	80025fa <HAL_DMA_Init+0xda>
 800252c:	6822      	ldr	r2, [r4, #0]
 800252e:	2300      	movs	r3, #0
 8002530:	2102      	movs	r1, #2
 8002532:	4605      	mov	r5, r0
 8002534:	f884 3034 	strb.w	r3, [r4, #52]	; 0x34
 8002538:	f884 1035 	strb.w	r1, [r4, #53]	; 0x35
 800253c:	6813      	ldr	r3, [r2, #0]
 800253e:	f023 0301 	bic.w	r3, r3, #1
 8002542:	6013      	str	r3, [r2, #0]
 8002544:	e004      	b.n	8002550 <HAL_DMA_Init+0x30>
 8002546:	f7ff fba3 	bl	8001c90 <HAL_GetTick>
 800254a:	1b43      	subs	r3, r0, r5
 800254c:	2b05      	cmp	r3, #5
 800254e:	d84d      	bhi.n	80025ec <HAL_DMA_Init+0xcc>
 8002550:	6823      	ldr	r3, [r4, #0]
 8002552:	681a      	ldr	r2, [r3, #0]
 8002554:	07d1      	lsls	r1, r2, #31
 8002556:	d4f6      	bmi.n	8002546 <HAL_DMA_Init+0x26>
 8002558:	e9d4 2001 	ldrd	r2, r0, [r4, #4]
 800255c:	68e1      	ldr	r1, [r4, #12]
 800255e:	4302      	orrs	r2, r0
 8002560:	681d      	ldr	r5, [r3, #0]
 8002562:	6a60      	ldr	r0, [r4, #36]	; 0x24
 8002564:	430a      	orrs	r2, r1
 8002566:	6921      	ldr	r1, [r4, #16]
 8002568:	2804      	cmp	r0, #4
 800256a:	ea42 0201 	orr.w	r2, r2, r1
 800256e:	6961      	ldr	r1, [r4, #20]
 8002570:	ea42 0201 	orr.w	r2, r2, r1
 8002574:	69a1      	ldr	r1, [r4, #24]
 8002576:	ea42 0201 	orr.w	r2, r2, r1
 800257a:	69e1      	ldr	r1, [r4, #28]
 800257c:	ea42 0201 	orr.w	r2, r2, r1
 8002580:	6a21      	ldr	r1, [r4, #32]
 8002582:	ea42 0201 	orr.w	r2, r2, r1
 8002586:	4935      	ldr	r1, [pc, #212]	; (800265c <HAL_DMA_Init+0x13c>)
 8002588:	ea01 0105 	and.w	r1, r1, r5
 800258c:	ea42 0201 	orr.w	r2, r2, r1
 8002590:	d103      	bne.n	800259a <HAL_DMA_Init+0x7a>
 8002592:	e9d4 100b 	ldrd	r1, r0, [r4, #44]	; 0x2c
 8002596:	4301      	orrs	r1, r0
 8002598:	430a      	orrs	r2, r1
 800259a:	601a      	str	r2, [r3, #0]
 800259c:	6821      	ldr	r1, [r4, #0]
 800259e:	6a62      	ldr	r2, [r4, #36]	; 0x24
 80025a0:	694b      	ldr	r3, [r1, #20]
 80025a2:	2a04      	cmp	r2, #4
 80025a4:	f023 0307 	bic.w	r3, r3, #7
 80025a8:	ea43 0302 	orr.w	r3, r3, r2
 80025ac:	d027      	beq.n	80025fe <HAL_DMA_Init+0xde>
 80025ae:	614b      	str	r3, [r1, #20]
 80025b0:	6820      	ldr	r0, [r4, #0]
 80025b2:	4b2b      	ldr	r3, [pc, #172]	; (8002660 <HAL_DMA_Init+0x140>)
 80025b4:	b2c2      	uxtb	r2, r0
 80025b6:	492b      	ldr	r1, [pc, #172]	; (8002664 <HAL_DMA_Init+0x144>)
 80025b8:	3a10      	subs	r2, #16
 80025ba:	fba3 5302 	umull	r5, r3, r3, r2
 80025be:	2a5f      	cmp	r2, #95	; 0x5f
 80025c0:	f04f 023f 	mov.w	r2, #63	; 0x3f
 80025c4:	ea4f 1313 	mov.w	r3, r3, lsr #4
 80025c8:	5cc9      	ldrb	r1, [r1, r3]
 80025ca:	4b27      	ldr	r3, [pc, #156]	; (8002668 <HAL_DMA_Init+0x148>)
 80025cc:	fa02 f201 	lsl.w	r2, r2, r1
 80025d0:	65e1      	str	r1, [r4, #92]	; 0x5c
 80025d2:	ea03 0300 	and.w	r3, r3, r0
 80025d6:	f04f 0000 	mov.w	r0, #0
 80025da:	bf88      	it	hi
 80025dc:	3304      	addhi	r3, #4
 80025de:	65a3      	str	r3, [r4, #88]	; 0x58
 80025e0:	609a      	str	r2, [r3, #8]
 80025e2:	2301      	movs	r3, #1
 80025e4:	6560      	str	r0, [r4, #84]	; 0x54
 80025e6:	f884 3035 	strb.w	r3, [r4, #53]	; 0x35
 80025ea:	bd38      	pop	{r3, r4, r5, pc}
 80025ec:	2303      	movs	r3, #3
 80025ee:	2220      	movs	r2, #32
 80025f0:	4618      	mov	r0, r3
 80025f2:	6562      	str	r2, [r4, #84]	; 0x54
 80025f4:	f884 3035 	strb.w	r3, [r4, #53]	; 0x35
 80025f8:	bd38      	pop	{r3, r4, r5, pc}
 80025fa:	2001      	movs	r0, #1
 80025fc:	bd38      	pop	{r3, r4, r5, pc}
 80025fe:	e9d4 200a 	ldrd	r2, r0, [r4, #40]	; 0x28
 8002602:	4313      	orrs	r3, r2
 8002604:	2800      	cmp	r0, #0
 8002606:	d0d2      	beq.n	80025ae <HAL_DMA_Init+0x8e>
 8002608:	69a5      	ldr	r5, [r4, #24]
 800260a:	b17d      	cbz	r5, 800262c <HAL_DMA_Init+0x10c>
 800260c:	f5b5 5f00 	cmp.w	r5, #8192	; 0x2000
 8002610:	d016      	beq.n	8002640 <HAL_DMA_Init+0x120>
 8002612:	2a02      	cmp	r2, #2
 8002614:	d903      	bls.n	800261e <HAL_DMA_Init+0xfe>
 8002616:	2a03      	cmp	r2, #3
 8002618:	d1c9      	bne.n	80025ae <HAL_DMA_Init+0x8e>
 800261a:	01c2      	lsls	r2, r0, #7
 800261c:	d5c7      	bpl.n	80025ae <HAL_DMA_Init+0x8e>
 800261e:	2301      	movs	r3, #1
 8002620:	2240      	movs	r2, #64	; 0x40
 8002622:	4618      	mov	r0, r3
 8002624:	6562      	str	r2, [r4, #84]	; 0x54
 8002626:	f884 3035 	strb.w	r3, [r4, #53]	; 0x35
 800262a:	bd38      	pop	{r3, r4, r5, pc}
 800262c:	2a01      	cmp	r2, #1
 800262e:	d003      	beq.n	8002638 <HAL_DMA_Init+0x118>
 8002630:	f032 0202 	bics.w	r2, r2, #2
 8002634:	d1bb      	bne.n	80025ae <HAL_DMA_Init+0x8e>
 8002636:	e7f0      	b.n	800261a <HAL_DMA_Init+0xfa>
 8002638:	f1b0 7fc0 	cmp.w	r0, #25165824	; 0x1800000
 800263c:	d1b7      	bne.n	80025ae <HAL_DMA_Init+0x8e>
 800263e:	e7ee      	b.n	800261e <HAL_DMA_Init+0xfe>
 8002640:	2a03      	cmp	r2, #3
 8002642:	d8b4      	bhi.n	80025ae <HAL_DMA_Init+0x8e>
 8002644:	a501      	add	r5, pc, #4	; (adr r5, 800264c <HAL_DMA_Init+0x12c>)
 8002646:	f855 f022 	ldr.w	pc, [r5, r2, lsl #2]
 800264a:	bf00      	nop
 800264c:	0800261f 	.word	0x0800261f
 8002650:	0800261b 	.word	0x0800261b
 8002654:	0800261f 	.word	0x0800261f
 8002658:	08002639 	.word	0x08002639
 800265c:	e010803f 	.word	0xe010803f
 8002660:	aaaaaaab 	.word	0xaaaaaaab
 8002664:	0800c02c 	.word	0x0800c02c
 8002668:	fffffc00 	.word	0xfffffc00

0800266c <HAL_DMA_Start_IT>:
 800266c:	b430      	push	{r4, r5}
 800266e:	4684      	mov	ip, r0
 8002670:	6d84      	ldr	r4, [r0, #88]	; 0x58
 8002672:	f890 0034 	ldrb.w	r0, [r0, #52]	; 0x34
 8002676:	2801      	cmp	r0, #1
 8002678:	d04d      	beq.n	8002716 <HAL_DMA_Start_IT+0xaa>
 800267a:	2001      	movs	r0, #1
 800267c:	f88c 0034 	strb.w	r0, [ip, #52]	; 0x34
 8002680:	f89c 0035 	ldrb.w	r0, [ip, #53]	; 0x35
 8002684:	2801      	cmp	r0, #1
 8002686:	d005      	beq.n	8002694 <HAL_DMA_Start_IT+0x28>
 8002688:	2300      	movs	r3, #0
 800268a:	2002      	movs	r0, #2
 800268c:	f88c 3034 	strb.w	r3, [ip, #52]	; 0x34
 8002690:	bc30      	pop	{r4, r5}
 8002692:	4770      	bx	lr
 8002694:	2002      	movs	r0, #2
 8002696:	f8dc 5000 	ldr.w	r5, [ip]
 800269a:	f88c 0035 	strb.w	r0, [ip, #53]	; 0x35
 800269e:	2000      	movs	r0, #0
 80026a0:	f8cc 0054 	str.w	r0, [ip, #84]	; 0x54
 80026a4:	6828      	ldr	r0, [r5, #0]
 80026a6:	f420 2080 	bic.w	r0, r0, #262144	; 0x40000
 80026aa:	6028      	str	r0, [r5, #0]
 80026ac:	f8dc 0000 	ldr.w	r0, [ip]
 80026b0:	6043      	str	r3, [r0, #4]
 80026b2:	f8dc 3008 	ldr.w	r3, [ip, #8]
 80026b6:	2b40      	cmp	r3, #64	; 0x40
 80026b8:	f8dc 3000 	ldr.w	r3, [ip]
 80026bc:	d026      	beq.n	800270c <HAL_DMA_Start_IT+0xa0>
 80026be:	6099      	str	r1, [r3, #8]
 80026c0:	f8dc 3000 	ldr.w	r3, [ip]
 80026c4:	60da      	str	r2, [r3, #12]
 80026c6:	f8dc 205c 	ldr.w	r2, [ip, #92]	; 0x5c
 80026ca:	233f      	movs	r3, #63	; 0x3f
 80026cc:	4093      	lsls	r3, r2
 80026ce:	60a3      	str	r3, [r4, #8]
 80026d0:	f8dc 2000 	ldr.w	r2, [ip]
 80026d4:	6813      	ldr	r3, [r2, #0]
 80026d6:	f043 0316 	orr.w	r3, r3, #22
 80026da:	6013      	str	r3, [r2, #0]
 80026dc:	f8dc 2000 	ldr.w	r2, [ip]
 80026e0:	6953      	ldr	r3, [r2, #20]
 80026e2:	f043 0380 	orr.w	r3, r3, #128	; 0x80
 80026e6:	6153      	str	r3, [r2, #20]
 80026e8:	f8dc 3040 	ldr.w	r3, [ip, #64]	; 0x40
 80026ec:	b12b      	cbz	r3, 80026fa <HAL_DMA_Start_IT+0x8e>
 80026ee:	f8dc 2000 	ldr.w	r2, [ip]
 80026f2:	6813      	ldr	r3, [r2, #0]
 80026f4:	f043 0308 	orr.w	r3, r3, #8
 80026f8:	6013      	str	r3, [r2, #0]
 80026fa:	f8dc 2000 	ldr.w	r2, [ip]
 80026fe:	2000      	movs	r0, #0
 8002700:	6813      	ldr	r3, [r2, #0]
 8002702:	f043 0301 	orr.w	r3, r3, #1
 8002706:	6013      	str	r3, [r2, #0]
 8002708:	bc30      	pop	{r4, r5}
 800270a:	4770      	bx	lr
 800270c:	609a      	str	r2, [r3, #8]
 800270e:	f8dc 3000 	ldr.w	r3, [ip]
 8002712:	60d9      	str	r1, [r3, #12]
 8002714:	e7d7      	b.n	80026c6 <HAL_DMA_Start_IT+0x5a>
 8002716:	2002      	movs	r0, #2
 8002718:	bc30      	pop	{r4, r5}
 800271a:	4770      	bx	lr

0800271c <HAL_DMA_Abort>:
 800271c:	b570      	push	{r4, r5, r6, lr}
 800271e:	4604      	mov	r4, r0
 8002720:	6d86      	ldr	r6, [r0, #88]	; 0x58
 8002722:	f7ff fab5 	bl	8001c90 <HAL_GetTick>
 8002726:	f894 3035 	ldrb.w	r3, [r4, #53]	; 0x35
 800272a:	2b02      	cmp	r3, #2
 800272c:	d006      	beq.n	800273c <HAL_DMA_Abort+0x20>
 800272e:	2280      	movs	r2, #128	; 0x80
 8002730:	2300      	movs	r3, #0
 8002732:	2001      	movs	r0, #1
 8002734:	6562      	str	r2, [r4, #84]	; 0x54
 8002736:	f884 3034 	strb.w	r3, [r4, #52]	; 0x34
 800273a:	bd70      	pop	{r4, r5, r6, pc}
 800273c:	6822      	ldr	r2, [r4, #0]
 800273e:	4605      	mov	r5, r0
 8002740:	6813      	ldr	r3, [r2, #0]
 8002742:	f023 0316 	bic.w	r3, r3, #22
 8002746:	6013      	str	r3, [r2, #0]
 8002748:	6822      	ldr	r2, [r4, #0]
 800274a:	6953      	ldr	r3, [r2, #20]
 800274c:	f023 0380 	bic.w	r3, r3, #128	; 0x80
 8002750:	6153      	str	r3, [r2, #20]
 8002752:	6c23      	ldr	r3, [r4, #64]	; 0x40
 8002754:	b34b      	cbz	r3, 80027aa <HAL_DMA_Abort+0x8e>
 8002756:	6822      	ldr	r2, [r4, #0]
 8002758:	6813      	ldr	r3, [r2, #0]
 800275a:	f023 0308 	bic.w	r3, r3, #8
 800275e:	6013      	str	r3, [r2, #0]
 8002760:	6822      	ldr	r2, [r4, #0]
 8002762:	6813      	ldr	r3, [r2, #0]
 8002764:	f023 0301 	bic.w	r3, r3, #1
 8002768:	6013      	str	r3, [r2, #0]
 800276a:	e004      	b.n	8002776 <HAL_DMA_Abort+0x5a>
 800276c:	f7ff fa90 	bl	8001c90 <HAL_GetTick>
 8002770:	1b43      	subs	r3, r0, r5
 8002772:	2b05      	cmp	r3, #5
 8002774:	d80f      	bhi.n	8002796 <HAL_DMA_Abort+0x7a>
 8002776:	6823      	ldr	r3, [r4, #0]
 8002778:	681b      	ldr	r3, [r3, #0]
 800277a:	f013 0301 	ands.w	r3, r3, #1
 800277e:	d1f5      	bne.n	800276c <HAL_DMA_Abort+0x50>
 8002780:	6de1      	ldr	r1, [r4, #92]	; 0x5c
 8002782:	223f      	movs	r2, #63	; 0x3f
 8002784:	4618      	mov	r0, r3
 8002786:	408a      	lsls	r2, r1
 8002788:	2101      	movs	r1, #1
 800278a:	60b2      	str	r2, [r6, #8]
 800278c:	f884 1035 	strb.w	r1, [r4, #53]	; 0x35
 8002790:	f884 3034 	strb.w	r3, [r4, #52]	; 0x34
 8002794:	bd70      	pop	{r4, r5, r6, pc}
 8002796:	2303      	movs	r3, #3
 8002798:	2120      	movs	r1, #32
 800279a:	2200      	movs	r2, #0
 800279c:	6561      	str	r1, [r4, #84]	; 0x54
 800279e:	4618      	mov	r0, r3
 80027a0:	f884 3035 	strb.w	r3, [r4, #53]	; 0x35
 80027a4:	f884 2034 	strb.w	r2, [r4, #52]	; 0x34
 80027a8:	bd70      	pop	{r4, r5, r6, pc}
 80027aa:	6ca3      	ldr	r3, [r4, #72]	; 0x48
 80027ac:	2b00      	cmp	r3, #0
 80027ae:	d1d2      	bne.n	8002756 <HAL_DMA_Abort+0x3a>
 80027b0:	e7d6      	b.n	8002760 <HAL_DMA_Abort+0x44>
 80027b2:	bf00      	nop

080027b4 <HAL_DMA_Abort_IT>:
 80027b4:	f890 2035 	ldrb.w	r2, [r0, #53]	; 0x35
 80027b8:	4603      	mov	r3, r0
 80027ba:	2a02      	cmp	r2, #2
 80027bc:	d003      	beq.n	80027c6 <HAL_DMA_Abort_IT+0x12>
 80027be:	2280      	movs	r2, #128	; 0x80
 80027c0:	2001      	movs	r0, #1
 80027c2:	655a      	str	r2, [r3, #84]	; 0x54
 80027c4:	4770      	bx	lr
 80027c6:	6802      	ldr	r2, [r0, #0]
 80027c8:	2105      	movs	r1, #5
 80027ca:	2000      	movs	r0, #0
 80027cc:	f883 1035 	strb.w	r1, [r3, #53]	; 0x35
 80027d0:	6813      	ldr	r3, [r2, #0]
 80027d2:	f023 0301 	bic.w	r3, r3, #1
 80027d6:	6013      	str	r3, [r2, #0]
 80027d8:	4770      	bx	lr
 80027da:	bf00      	nop

080027dc <HAL_DMA_IRQHandler>:
 80027dc:	e92d 41f0 	stmdb	sp!, {r4, r5, r6, r7, r8, lr}
 80027e0:	2200      	movs	r2, #0
 80027e2:	4b7f      	ldr	r3, [pc, #508]	; (80029e0 <HAL_DMA_IRQHandler+0x204>)
 80027e4:	b082      	sub	sp, #8
 80027e6:	4680      	mov	r8, r0
 80027e8:	681d      	ldr	r5, [r3, #0]
 80027ea:	9201      	str	r2, [sp, #4]
 80027ec:	2208      	movs	r2, #8
 80027ee:	e9d0 6316 	ldrd	r6, r3, [r0, #88]	; 0x58
 80027f2:	6834      	ldr	r4, [r6, #0]
 80027f4:	fa02 f103 	lsl.w	r1, r2, r3
 80027f8:	4221      	tst	r1, r4
 80027fa:	d004      	beq.n	8002806 <HAL_DMA_IRQHandler+0x2a>
 80027fc:	6801      	ldr	r1, [r0, #0]
 80027fe:	680f      	ldr	r7, [r1, #0]
 8002800:	0778      	lsls	r0, r7, #29
 8002802:	f100 80ba 	bmi.w	800297a <HAL_DMA_IRQHandler+0x19e>
 8002806:	2201      	movs	r2, #1
 8002808:	409a      	lsls	r2, r3
 800280a:	4222      	tst	r2, r4
 800280c:	d005      	beq.n	800281a <HAL_DMA_IRQHandler+0x3e>
 800280e:	f8d8 1000 	ldr.w	r1, [r8]
 8002812:	6949      	ldr	r1, [r1, #20]
 8002814:	060f      	lsls	r7, r1, #24
 8002816:	f100 80a6 	bmi.w	8002966 <HAL_DMA_IRQHandler+0x18a>
 800281a:	2204      	movs	r2, #4
 800281c:	409a      	lsls	r2, r3
 800281e:	4222      	tst	r2, r4
 8002820:	d005      	beq.n	800282e <HAL_DMA_IRQHandler+0x52>
 8002822:	f8d8 1000 	ldr.w	r1, [r8]
 8002826:	6809      	ldr	r1, [r1, #0]
 8002828:	0788      	lsls	r0, r1, #30
 800282a:	f100 8092 	bmi.w	8002952 <HAL_DMA_IRQHandler+0x176>
 800282e:	2210      	movs	r2, #16
 8002830:	409a      	lsls	r2, r3
 8002832:	4222      	tst	r2, r4
 8002834:	d004      	beq.n	8002840 <HAL_DMA_IRQHandler+0x64>
 8002836:	f8d8 1000 	ldr.w	r1, [r8]
 800283a:	6809      	ldr	r1, [r1, #0]
 800283c:	0709      	lsls	r1, r1, #28
 800283e:	d473      	bmi.n	8002928 <HAL_DMA_IRQHandler+0x14c>
 8002840:	2220      	movs	r2, #32
 8002842:	fa02 f303 	lsl.w	r3, r2, r3
 8002846:	4223      	tst	r3, r4
 8002848:	d018      	beq.n	800287c <HAL_DMA_IRQHandler+0xa0>
 800284a:	f8d8 2000 	ldr.w	r2, [r8]
 800284e:	6812      	ldr	r2, [r2, #0]
 8002850:	06d4      	lsls	r4, r2, #27
 8002852:	d513      	bpl.n	800287c <HAL_DMA_IRQHandler+0xa0>
 8002854:	60b3      	str	r3, [r6, #8]
 8002856:	f898 3035 	ldrb.w	r3, [r8, #53]	; 0x35
 800285a:	2b05      	cmp	r3, #5
 800285c:	d03c      	beq.n	80028d8 <HAL_DMA_IRQHandler+0xfc>
 800285e:	f8d8 3000 	ldr.w	r3, [r8]
 8002862:	681a      	ldr	r2, [r3, #0]
 8002864:	0350      	lsls	r0, r2, #13
 8002866:	f140 80a1 	bpl.w	80029ac <HAL_DMA_IRQHandler+0x1d0>
 800286a:	681b      	ldr	r3, [r3, #0]
 800286c:	0319      	lsls	r1, r3, #12
 800286e:	f140 80ac 	bpl.w	80029ca <HAL_DMA_IRQHandler+0x1ee>
 8002872:	f8d8 303c 	ldr.w	r3, [r8, #60]	; 0x3c
 8002876:	b10b      	cbz	r3, 800287c <HAL_DMA_IRQHandler+0xa0>
 8002878:	4640      	mov	r0, r8
 800287a:	4798      	blx	r3
 800287c:	f8d8 3054 	ldr.w	r3, [r8, #84]	; 0x54
 8002880:	2b00      	cmp	r3, #0
 8002882:	d04e      	beq.n	8002922 <HAL_DMA_IRQHandler+0x146>
 8002884:	f8d8 3054 	ldr.w	r3, [r8, #84]	; 0x54
 8002888:	07da      	lsls	r2, r3, #31
 800288a:	d51d      	bpl.n	80028c8 <HAL_DMA_IRQHandler+0xec>
 800288c:	f8d8 2000 	ldr.w	r2, [r8]
 8002890:	2305      	movs	r3, #5
 8002892:	4954      	ldr	r1, [pc, #336]	; (80029e4 <HAL_DMA_IRQHandler+0x208>)
 8002894:	f888 3035 	strb.w	r3, [r8, #53]	; 0x35
 8002898:	6813      	ldr	r3, [r2, #0]
 800289a:	fba1 1505 	umull	r1, r5, r1, r5
 800289e:	f023 0301 	bic.w	r3, r3, #1
 80028a2:	0aad      	lsrs	r5, r5, #10
 80028a4:	6013      	str	r3, [r2, #0]
 80028a6:	e004      	b.n	80028b2 <HAL_DMA_IRQHandler+0xd6>
 80028a8:	f8d8 3000 	ldr.w	r3, [r8]
 80028ac:	681b      	ldr	r3, [r3, #0]
 80028ae:	07db      	lsls	r3, r3, #31
 80028b0:	d504      	bpl.n	80028bc <HAL_DMA_IRQHandler+0xe0>
 80028b2:	9b01      	ldr	r3, [sp, #4]
 80028b4:	3301      	adds	r3, #1
 80028b6:	42ab      	cmp	r3, r5
 80028b8:	9301      	str	r3, [sp, #4]
 80028ba:	d9f5      	bls.n	80028a8 <HAL_DMA_IRQHandler+0xcc>
 80028bc:	2201      	movs	r2, #1
 80028be:	2300      	movs	r3, #0
 80028c0:	f888 2035 	strb.w	r2, [r8, #53]	; 0x35
 80028c4:	f888 3034 	strb.w	r3, [r8, #52]	; 0x34
 80028c8:	f8d8 304c 	ldr.w	r3, [r8, #76]	; 0x4c
 80028cc:	b34b      	cbz	r3, 8002922 <HAL_DMA_IRQHandler+0x146>
 80028ce:	4640      	mov	r0, r8
 80028d0:	b002      	add	sp, #8
 80028d2:	e8bd 41f0 	ldmia.w	sp!, {r4, r5, r6, r7, r8, lr}
 80028d6:	4718      	bx	r3
 80028d8:	f8d8 2000 	ldr.w	r2, [r8]
 80028dc:	6813      	ldr	r3, [r2, #0]
 80028de:	f023 0316 	bic.w	r3, r3, #22
 80028e2:	6013      	str	r3, [r2, #0]
 80028e4:	f8d8 2000 	ldr.w	r2, [r8]
 80028e8:	6953      	ldr	r3, [r2, #20]
 80028ea:	f023 0380 	bic.w	r3, r3, #128	; 0x80
 80028ee:	6153      	str	r3, [r2, #20]
 80028f0:	f8d8 3040 	ldr.w	r3, [r8, #64]	; 0x40
 80028f4:	2b00      	cmp	r3, #0
 80028f6:	d06e      	beq.n	80029d6 <HAL_DMA_IRQHandler+0x1fa>
 80028f8:	f8d8 2000 	ldr.w	r2, [r8]
 80028fc:	6813      	ldr	r3, [r2, #0]
 80028fe:	f023 0308 	bic.w	r3, r3, #8
 8002902:	6013      	str	r3, [r2, #0]
 8002904:	f8d8 205c 	ldr.w	r2, [r8, #92]	; 0x5c
 8002908:	233f      	movs	r3, #63	; 0x3f
 800290a:	2101      	movs	r1, #1
 800290c:	4093      	lsls	r3, r2
 800290e:	2200      	movs	r2, #0
 8002910:	60b3      	str	r3, [r6, #8]
 8002912:	f8d8 3050 	ldr.w	r3, [r8, #80]	; 0x50
 8002916:	f888 1035 	strb.w	r1, [r8, #53]	; 0x35
 800291a:	f888 2034 	strb.w	r2, [r8, #52]	; 0x34
 800291e:	2b00      	cmp	r3, #0
 8002920:	d1d5      	bne.n	80028ce <HAL_DMA_IRQHandler+0xf2>
 8002922:	b002      	add	sp, #8
 8002924:	e8bd 81f0 	ldmia.w	sp!, {r4, r5, r6, r7, r8, pc}
 8002928:	60b2      	str	r2, [r6, #8]
 800292a:	f8d8 3000 	ldr.w	r3, [r8]
 800292e:	681a      	ldr	r2, [r3, #0]
 8002930:	0352      	lsls	r2, r2, #13
 8002932:	d433      	bmi.n	800299c <HAL_DMA_IRQHandler+0x1c0>
 8002934:	681a      	ldr	r2, [r3, #0]
 8002936:	05d7      	lsls	r7, r2, #23
 8002938:	d403      	bmi.n	8002942 <HAL_DMA_IRQHandler+0x166>
 800293a:	681a      	ldr	r2, [r3, #0]
 800293c:	f022 0208 	bic.w	r2, r2, #8
 8002940:	601a      	str	r2, [r3, #0]
 8002942:	f8d8 3040 	ldr.w	r3, [r8, #64]	; 0x40
 8002946:	b10b      	cbz	r3, 800294c <HAL_DMA_IRQHandler+0x170>
 8002948:	4640      	mov	r0, r8
 800294a:	4798      	blx	r3
 800294c:	f8d8 305c 	ldr.w	r3, [r8, #92]	; 0x5c
 8002950:	e776      	b.n	8002840 <HAL_DMA_IRQHandler+0x64>
 8002952:	60b2      	str	r2, [r6, #8]
 8002954:	f8d8 3054 	ldr.w	r3, [r8, #84]	; 0x54
 8002958:	f043 0304 	orr.w	r3, r3, #4
 800295c:	f8c8 3054 	str.w	r3, [r8, #84]	; 0x54
 8002960:	f8d8 305c 	ldr.w	r3, [r8, #92]	; 0x5c
 8002964:	e763      	b.n	800282e <HAL_DMA_IRQHandler+0x52>
 8002966:	60b2      	str	r2, [r6, #8]
 8002968:	f8d8 3054 	ldr.w	r3, [r8, #84]	; 0x54
 800296c:	f043 0302 	orr.w	r3, r3, #2
 8002970:	f8c8 3054 	str.w	r3, [r8, #84]	; 0x54
 8002974:	f8d8 305c 	ldr.w	r3, [r8, #92]	; 0x5c
 8002978:	e74f      	b.n	800281a <HAL_DMA_IRQHandler+0x3e>
 800297a:	680b      	ldr	r3, [r1, #0]
 800297c:	f023 0304 	bic.w	r3, r3, #4
 8002980:	600b      	str	r3, [r1, #0]
 8002982:	f8d8 305c 	ldr.w	r3, [r8, #92]	; 0x5c
 8002986:	409a      	lsls	r2, r3
 8002988:	60b2      	str	r2, [r6, #8]
 800298a:	f8d8 3054 	ldr.w	r3, [r8, #84]	; 0x54
 800298e:	f043 0301 	orr.w	r3, r3, #1
 8002992:	f8c8 3054 	str.w	r3, [r8, #84]	; 0x54
 8002996:	f8d8 305c 	ldr.w	r3, [r8, #92]	; 0x5c
 800299a:	e734      	b.n	8002806 <HAL_DMA_IRQHandler+0x2a>
 800299c:	681b      	ldr	r3, [r3, #0]
 800299e:	031b      	lsls	r3, r3, #12
 80029a0:	d5cf      	bpl.n	8002942 <HAL_DMA_IRQHandler+0x166>
 80029a2:	f8d8 3048 	ldr.w	r3, [r8, #72]	; 0x48
 80029a6:	2b00      	cmp	r3, #0
 80029a8:	d1ce      	bne.n	8002948 <HAL_DMA_IRQHandler+0x16c>
 80029aa:	e7cf      	b.n	800294c <HAL_DMA_IRQHandler+0x170>
 80029ac:	681a      	ldr	r2, [r3, #0]
 80029ae:	f412 7280 	ands.w	r2, r2, #256	; 0x100
 80029b2:	f47f af5e 	bne.w	8002872 <HAL_DMA_IRQHandler+0x96>
 80029b6:	6819      	ldr	r1, [r3, #0]
 80029b8:	f021 0110 	bic.w	r1, r1, #16
 80029bc:	6019      	str	r1, [r3, #0]
 80029be:	2301      	movs	r3, #1
 80029c0:	f888 2034 	strb.w	r2, [r8, #52]	; 0x34
 80029c4:	f888 3035 	strb.w	r3, [r8, #53]	; 0x35
 80029c8:	e753      	b.n	8002872 <HAL_DMA_IRQHandler+0x96>
 80029ca:	f8d8 3044 	ldr.w	r3, [r8, #68]	; 0x44
 80029ce:	2b00      	cmp	r3, #0
 80029d0:	f47f af52 	bne.w	8002878 <HAL_DMA_IRQHandler+0x9c>
 80029d4:	e752      	b.n	800287c <HAL_DMA_IRQHandler+0xa0>
 80029d6:	f8d8 3048 	ldr.w	r3, [r8, #72]	; 0x48
 80029da:	2b00      	cmp	r3, #0
 80029dc:	d18c      	bne.n	80028f8 <HAL_DMA_IRQHandler+0x11c>
 80029de:	e791      	b.n	8002904 <HAL_DMA_IRQHandler+0x128>
 80029e0:	20000000 	.word	0x20000000
 80029e4:	1b4e81b5 	.word	0x1b4e81b5

080029e8 <HAL_GPIO_Init>:
 80029e8:	f04f 0c00 	mov.w	ip, #0
 80029ec:	e92d 4ff0 	stmdb	sp!, {r4, r5, r6, r7, r8, r9, sl, fp, lr}
 80029f0:	4662      	mov	r2, ip
 80029f2:	b083      	sub	sp, #12
 80029f4:	4e7e      	ldr	r6, [pc, #504]	; (8002bf0 <HAL_GPIO_Init+0x208>)
 80029f6:	f8df 8214 	ldr.w	r8, [pc, #532]	; 8002c0c <HAL_GPIO_Init+0x224>
 80029fa:	4d7e      	ldr	r5, [pc, #504]	; (8002bf4 <HAL_GPIO_Init+0x20c>)
 80029fc:	e005      	b.n	8002a0a <HAL_GPIO_Init+0x22>
 80029fe:	3201      	adds	r2, #1
 8002a00:	f10c 0c02 	add.w	ip, ip, #2
 8002a04:	2a10      	cmp	r2, #16
 8002a06:	f000 80ad 	beq.w	8002b64 <HAL_GPIO_Init+0x17c>
 8002a0a:	2301      	movs	r3, #1
 8002a0c:	680c      	ldr	r4, [r1, #0]
 8002a0e:	4093      	lsls	r3, r2
 8002a10:	ea03 0e04 	and.w	lr, r3, r4
 8002a14:	43a3      	bics	r3, r4
 8002a16:	d1f2      	bne.n	80029fe <HAL_GPIO_Init+0x16>
 8002a18:	684b      	ldr	r3, [r1, #4]
 8002a1a:	f003 0303 	and.w	r3, r3, #3
 8002a1e:	1e5c      	subs	r4, r3, #1
 8002a20:	2c01      	cmp	r4, #1
 8002a22:	f04f 0403 	mov.w	r4, #3
 8002a26:	fa04 f40c 	lsl.w	r4, r4, ip
 8002a2a:	f240 809e 	bls.w	8002b6a <HAL_GPIO_Init+0x182>
 8002a2e:	43e4      	mvns	r4, r4
 8002a30:	2b03      	cmp	r3, #3
 8002a32:	d026      	beq.n	8002a82 <HAL_GPIO_Init+0x9a>
 8002a34:	68c3      	ldr	r3, [r0, #12]
 8002a36:	ea03 0904 	and.w	r9, r3, r4
 8002a3a:	688b      	ldr	r3, [r1, #8]
 8002a3c:	fa03 f30c 	lsl.w	r3, r3, ip
 8002a40:	ea43 0309 	orr.w	r3, r3, r9
 8002a44:	60c3      	str	r3, [r0, #12]
 8002a46:	684b      	ldr	r3, [r1, #4]
 8002a48:	f003 0303 	and.w	r3, r3, #3
 8002a4c:	2b02      	cmp	r3, #2
 8002a4e:	d118      	bne.n	8002a82 <HAL_GPIO_Init+0x9a>
 8002a50:	f002 0307 	and.w	r3, r2, #7
 8002a54:	ea4f 09d2 	mov.w	r9, r2, lsr #3
 8002a58:	ea4f 0b83 	mov.w	fp, r3, lsl #2
 8002a5c:	230f      	movs	r3, #15
 8002a5e:	eb00 0989 	add.w	r9, r0, r9, lsl #2
 8002a62:	fa03 f30b 	lsl.w	r3, r3, fp
 8002a66:	f8d9 a020 	ldr.w	sl, [r9, #32]
 8002a6a:	ea2a 0a03 	bic.w	sl, sl, r3
 8002a6e:	690b      	ldr	r3, [r1, #16]
 8002a70:	fa03 f30b 	lsl.w	r3, r3, fp
 8002a74:	ea43 030a 	orr.w	r3, r3, sl
 8002a78:	f8c9 3020 	str.w	r3, [r9, #32]
 8002a7c:	684b      	ldr	r3, [r1, #4]
 8002a7e:	f003 0303 	and.w	r3, r3, #3
 8002a82:	f8d0 9000 	ldr.w	r9, [r0]
 8002a86:	fa03 f30c 	lsl.w	r3, r3, ip
 8002a8a:	ea09 0404 	and.w	r4, r9, r4
 8002a8e:	4323      	orrs	r3, r4
 8002a90:	6003      	str	r3, [r0, #0]
 8002a92:	684b      	ldr	r3, [r1, #4]
 8002a94:	f413 3f40 	tst.w	r3, #196608	; 0x30000
 8002a98:	d0b1      	beq.n	80029fe <HAL_GPIO_Init+0x16>
 8002a9a:	6c73      	ldr	r3, [r6, #68]	; 0x44
 8002a9c:	f022 0403 	bic.w	r4, r2, #3
 8002aa0:	f002 0903 	and.w	r9, r2, #3
 8002aa4:	4540      	cmp	r0, r8
 8002aa6:	f443 4380 	orr.w	r3, r3, #16384	; 0x4000
 8002aaa:	f104 4480 	add.w	r4, r4, #1073741824	; 0x40000000
 8002aae:	ea4f 0989 	mov.w	r9, r9, lsl #2
 8002ab2:	6473      	str	r3, [r6, #68]	; 0x44
 8002ab4:	f504 349c 	add.w	r4, r4, #79872	; 0x13800
 8002ab8:	6c73      	ldr	r3, [r6, #68]	; 0x44
 8002aba:	f403 4380 	and.w	r3, r3, #16384	; 0x4000
 8002abe:	9301      	str	r3, [sp, #4]
 8002ac0:	9b01      	ldr	r3, [sp, #4]
 8002ac2:	f04f 030f 	mov.w	r3, #15
 8002ac6:	f8d4 a008 	ldr.w	sl, [r4, #8]
 8002aca:	fa03 f309 	lsl.w	r3, r3, r9
 8002ace:	ea2a 0303 	bic.w	r3, sl, r3
 8002ad2:	d01e      	beq.n	8002b12 <HAL_GPIO_Init+0x12a>
 8002ad4:	4f48      	ldr	r7, [pc, #288]	; (8002bf8 <HAL_GPIO_Init+0x210>)
 8002ad6:	42b8      	cmp	r0, r7
 8002ad8:	d060      	beq.n	8002b9c <HAL_GPIO_Init+0x1b4>
 8002ada:	4f48      	ldr	r7, [pc, #288]	; (8002bfc <HAL_GPIO_Init+0x214>)
 8002adc:	42b8      	cmp	r0, r7
 8002ade:	d064      	beq.n	8002baa <HAL_GPIO_Init+0x1c2>
 8002ae0:	4f47      	ldr	r7, [pc, #284]	; (8002c00 <HAL_GPIO_Init+0x218>)
 8002ae2:	42b8      	cmp	r0, r7
 8002ae4:	d068      	beq.n	8002bb8 <HAL_GPIO_Init+0x1d0>
 8002ae6:	4f47      	ldr	r7, [pc, #284]	; (8002c04 <HAL_GPIO_Init+0x21c>)
 8002ae8:	42b8      	cmp	r0, r7
 8002aea:	d06c      	beq.n	8002bc6 <HAL_GPIO_Init+0x1de>
 8002aec:	4f46      	ldr	r7, [pc, #280]	; (8002c08 <HAL_GPIO_Init+0x220>)
 8002aee:	42b8      	cmp	r0, r7
 8002af0:	d070      	beq.n	8002bd4 <HAL_GPIO_Init+0x1ec>
 8002af2:	f8df a11c 	ldr.w	sl, [pc, #284]	; 8002c10 <HAL_GPIO_Init+0x228>
 8002af6:	4550      	cmp	r0, sl
 8002af8:	d073      	beq.n	8002be2 <HAL_GPIO_Init+0x1fa>
 8002afa:	f8df a118 	ldr.w	sl, [pc, #280]	; 8002c14 <HAL_GPIO_Init+0x22c>
 8002afe:	4550      	cmp	r0, sl
 8002b00:	bf0c      	ite	eq
 8002b02:	f04f 0a07 	moveq.w	sl, #7
 8002b06:	f04f 0a08 	movne.w	sl, #8
 8002b0a:	fa0a f909 	lsl.w	r9, sl, r9
 8002b0e:	ea43 0309 	orr.w	r3, r3, r9
 8002b12:	60a3      	str	r3, [r4, #8]
 8002b14:	ea6f 040e 	mvn.w	r4, lr
 8002b18:	684f      	ldr	r7, [r1, #4]
 8002b1a:	3201      	adds	r2, #1
 8002b1c:	68ab      	ldr	r3, [r5, #8]
 8002b1e:	f10c 0c02 	add.w	ip, ip, #2
 8002b22:	02ff      	lsls	r7, r7, #11
 8002b24:	bf54      	ite	pl
 8002b26:	4023      	andpl	r3, r4
 8002b28:	ea4e 0303 	orrmi.w	r3, lr, r3
 8002b2c:	60ab      	str	r3, [r5, #8]
 8002b2e:	684f      	ldr	r7, [r1, #4]
 8002b30:	68eb      	ldr	r3, [r5, #12]
 8002b32:	02bf      	lsls	r7, r7, #10
 8002b34:	bf54      	ite	pl
 8002b36:	4023      	andpl	r3, r4
 8002b38:	ea4e 0303 	orrmi.w	r3, lr, r3
 8002b3c:	60eb      	str	r3, [r5, #12]
 8002b3e:	684f      	ldr	r7, [r1, #4]
 8002b40:	686b      	ldr	r3, [r5, #4]
 8002b42:	03bf      	lsls	r7, r7, #14
 8002b44:	bf54      	ite	pl
 8002b46:	4023      	andpl	r3, r4
 8002b48:	ea4e 0303 	orrmi.w	r3, lr, r3
 8002b4c:	606b      	str	r3, [r5, #4]
 8002b4e:	684f      	ldr	r7, [r1, #4]
 8002b50:	682b      	ldr	r3, [r5, #0]
 8002b52:	03ff      	lsls	r7, r7, #15
 8002b54:	bf54      	ite	pl
 8002b56:	401c      	andpl	r4, r3
 8002b58:	ea4e 0403 	orrmi.w	r4, lr, r3
 8002b5c:	2a10      	cmp	r2, #16
 8002b5e:	602c      	str	r4, [r5, #0]
 8002b60:	f47f af53 	bne.w	8002a0a <HAL_GPIO_Init+0x22>
 8002b64:	b003      	add	sp, #12
 8002b66:	e8bd 8ff0 	ldmia.w	sp!, {r4, r5, r6, r7, r8, r9, sl, fp, pc}
 8002b6a:	6883      	ldr	r3, [r0, #8]
 8002b6c:	ea23 0904 	bic.w	r9, r3, r4
 8002b70:	68cb      	ldr	r3, [r1, #12]
 8002b72:	43e4      	mvns	r4, r4
 8002b74:	fa03 f30c 	lsl.w	r3, r3, ip
 8002b78:	ea43 0309 	orr.w	r3, r3, r9
 8002b7c:	6083      	str	r3, [r0, #8]
 8002b7e:	684b      	ldr	r3, [r1, #4]
 8002b80:	f8d0 9004 	ldr.w	r9, [r0, #4]
 8002b84:	f3c3 1300 	ubfx	r3, r3, #4, #1
 8002b88:	ea29 090e 	bic.w	r9, r9, lr
 8002b8c:	4093      	lsls	r3, r2
 8002b8e:	ea43 0309 	orr.w	r3, r3, r9
 8002b92:	6043      	str	r3, [r0, #4]
 8002b94:	684b      	ldr	r3, [r1, #4]
 8002b96:	f003 0303 	and.w	r3, r3, #3
 8002b9a:	e749      	b.n	8002a30 <HAL_GPIO_Init+0x48>
 8002b9c:	f04f 0a01 	mov.w	sl, #1
 8002ba0:	fa0a f909 	lsl.w	r9, sl, r9
 8002ba4:	ea43 0309 	orr.w	r3, r3, r9
 8002ba8:	e7b3      	b.n	8002b12 <HAL_GPIO_Init+0x12a>
 8002baa:	f04f 0a02 	mov.w	sl, #2
 8002bae:	fa0a f909 	lsl.w	r9, sl, r9
 8002bb2:	ea43 0309 	orr.w	r3, r3, r9
 8002bb6:	e7ac      	b.n	8002b12 <HAL_GPIO_Init+0x12a>
 8002bb8:	f04f 0a03 	mov.w	sl, #3
 8002bbc:	fa0a f909 	lsl.w	r9, sl, r9
 8002bc0:	ea43 0309 	orr.w	r3, r3, r9
 8002bc4:	e7a5      	b.n	8002b12 <HAL_GPIO_Init+0x12a>
 8002bc6:	f04f 0a04 	mov.w	sl, #4
 8002bca:	fa0a f909 	lsl.w	r9, sl, r9
 8002bce:	ea43 0309 	orr.w	r3, r3, r9
 8002bd2:	e79e      	b.n	8002b12 <HAL_GPIO_Init+0x12a>
 8002bd4:	f04f 0a05 	mov.w	sl, #5
 8002bd8:	fa0a f909 	lsl.w	r9, sl, r9
 8002bdc:	ea43 0309 	orr.w	r3, r3, r9
 8002be0:	e797      	b.n	8002b12 <HAL_GPIO_Init+0x12a>
 8002be2:	f04f 0a06 	mov.w	sl, #6
 8002be6:	fa0a f909 	lsl.w	r9, sl, r9
 8002bea:	ea43 0309 	orr.w	r3, r3, r9
 8002bee:	e790      	b.n	8002b12 <HAL_GPIO_Init+0x12a>
 8002bf0:	40023800 	.word	0x40023800
 8002bf4:	40013c00 	.word	0x40013c00
 8002bf8:	40020400 	.word	0x40020400
 8002bfc:	40020800 	.word	0x40020800
 8002c00:	40020c00 	.word	0x40020c00
 8002c04:	40021000 	.word	0x40021000
 8002c08:	40021400 	.word	0x40021400
 8002c0c:	40020000 	.word	0x40020000
 8002c10:	40021800 	.word	0x40021800
 8002c14:	40021c00 	.word	0x40021c00

08002c18 <HAL_GPIO_WritePin>:
 8002c18:	b902      	cbnz	r2, 8002c1c <HAL_GPIO_WritePin+0x4>
 8002c1a:	0409      	lsls	r1, r1, #16
 8002c1c:	6181      	str	r1, [r0, #24]
 8002c1e:	4770      	bx	lr

08002c20 <HAL_GPIO_TogglePin>:
 8002c20:	6943      	ldr	r3, [r0, #20]
 8002c22:	ea01 0203 	and.w	r2, r1, r3
 8002c26:	ea21 0103 	bic.w	r1, r1, r3
 8002c2a:	ea41 4102 	orr.w	r1, r1, r2, lsl #16
 8002c2e:	6181      	str	r1, [r0, #24]
 8002c30:	4770      	bx	lr
 8002c32:	bf00      	nop

08002c34 <HAL_IWDG_Init>:
 8002c34:	b340      	cbz	r0, 8002c88 <HAL_IWDG_Init+0x54>
 8002c36:	f64c 41cc 	movw	r1, #52428	; 0xcccc
 8002c3a:	f245 5255 	movw	r2, #21845	; 0x5555
 8002c3e:	b538      	push	{r3, r4, r5, lr}
 8002c40:	6803      	ldr	r3, [r0, #0]
 8002c42:	4604      	mov	r4, r0
 8002c44:	6019      	str	r1, [r3, #0]
 8002c46:	6803      	ldr	r3, [r0, #0]
 8002c48:	601a      	str	r2, [r3, #0]
 8002c4a:	e9d0 3200 	ldrd	r3, r2, [r0]
 8002c4e:	605a      	str	r2, [r3, #4]
 8002c50:	6803      	ldr	r3, [r0, #0]
 8002c52:	6882      	ldr	r2, [r0, #8]
 8002c54:	609a      	str	r2, [r3, #8]
 8002c56:	f7ff f81b 	bl	8001c90 <HAL_GetTick>
 8002c5a:	6823      	ldr	r3, [r4, #0]
 8002c5c:	4605      	mov	r5, r0
 8002c5e:	68da      	ldr	r2, [r3, #12]
 8002c60:	0751      	lsls	r1, r2, #29
 8002c62:	d00a      	beq.n	8002c7a <HAL_IWDG_Init+0x46>
 8002c64:	f7ff f814 	bl	8001c90 <HAL_GetTick>
 8002c68:	1b43      	subs	r3, r0, r5
 8002c6a:	2b31      	cmp	r3, #49	; 0x31
 8002c6c:	6823      	ldr	r3, [r4, #0]
 8002c6e:	d9f6      	bls.n	8002c5e <HAL_IWDG_Init+0x2a>
 8002c70:	68da      	ldr	r2, [r3, #12]
 8002c72:	0752      	lsls	r2, r2, #29
 8002c74:	d0f3      	beq.n	8002c5e <HAL_IWDG_Init+0x2a>
 8002c76:	2003      	movs	r0, #3
 8002c78:	bd38      	pop	{r3, r4, r5, pc}
 8002c7a:	6919      	ldr	r1, [r3, #16]
 8002c7c:	68e2      	ldr	r2, [r4, #12]
 8002c7e:	4291      	cmp	r1, r2
 8002c80:	d004      	beq.n	8002c8c <HAL_IWDG_Init+0x58>
 8002c82:	2000      	movs	r0, #0
 8002c84:	611a      	str	r2, [r3, #16]
 8002c86:	bd38      	pop	{r3, r4, r5, pc}
 8002c88:	2001      	movs	r0, #1
 8002c8a:	4770      	bx	lr
 8002c8c:	f64a 22aa 	movw	r2, #43690	; 0xaaaa
 8002c90:	2000      	movs	r0, #0
 8002c92:	601a      	str	r2, [r3, #0]
 8002c94:	bd38      	pop	{r3, r4, r5, pc}
 8002c96:	bf00      	nop

08002c98 <HAL_IWDG_Refresh>:
 8002c98:	4603      	mov	r3, r0
 8002c9a:	f64a 22aa 	movw	r2, #43690	; 0xaaaa
 8002c9e:	2000      	movs	r0, #0
 8002ca0:	681b      	ldr	r3, [r3, #0]
 8002ca2:	601a      	str	r2, [r3, #0]
 8002ca4:	4770      	bx	lr
 8002ca6:	bf00      	nop

08002ca8 <HAL_RCC_OscConfig>:
 8002ca8:	2800      	cmp	r0, #0
 8002caa:	f000 81b8 	beq.w	800301e <HAL_RCC_OscConfig+0x376>
 8002cae:	e92d 41f0 	stmdb	sp!, {r4, r5, r6, r7, r8, lr}
 8002cb2:	6803      	ldr	r3, [r0, #0]
 8002cb4:	b082      	sub	sp, #8
 8002cb6:	4604      	mov	r4, r0
 8002cb8:	07dd      	lsls	r5, r3, #31
 8002cba:	d530      	bpl.n	8002d1e <HAL_RCC_OscConfig+0x76>
 8002cbc:	499e      	ldr	r1, [pc, #632]	; (8002f38 <HAL_RCC_OscConfig+0x290>)
 8002cbe:	688a      	ldr	r2, [r1, #8]
 8002cc0:	f002 020c 	and.w	r2, r2, #12
 8002cc4:	2a04      	cmp	r2, #4
 8002cc6:	f000 80f0 	beq.w	8002eaa <HAL_RCC_OscConfig+0x202>
 8002cca:	688a      	ldr	r2, [r1, #8]
 8002ccc:	f002 020c 	and.w	r2, r2, #12
 8002cd0:	2a08      	cmp	r2, #8
 8002cd2:	f000 80e6 	beq.w	8002ea2 <HAL_RCC_OscConfig+0x1fa>
 8002cd6:	6863      	ldr	r3, [r4, #4]
 8002cd8:	f5b3 3f80 	cmp.w	r3, #65536	; 0x10000
 8002cdc:	f000 80ef 	beq.w	8002ebe <HAL_RCC_OscConfig+0x216>
 8002ce0:	2b00      	cmp	r3, #0
 8002ce2:	f040 8139 	bne.w	8002f58 <HAL_RCC_OscConfig+0x2b0>
 8002ce6:	4b94      	ldr	r3, [pc, #592]	; (8002f38 <HAL_RCC_OscConfig+0x290>)
 8002ce8:	681a      	ldr	r2, [r3, #0]
 8002cea:	f422 3280 	bic.w	r2, r2, #65536	; 0x10000
 8002cee:	601a      	str	r2, [r3, #0]
 8002cf0:	681a      	ldr	r2, [r3, #0]
 8002cf2:	f422 2280 	bic.w	r2, r2, #262144	; 0x40000
 8002cf6:	601a      	str	r2, [r3, #0]
 8002cf8:	6863      	ldr	r3, [r4, #4]
 8002cfa:	2b00      	cmp	r3, #0
 8002cfc:	f000 8106 	beq.w	8002f0c <HAL_RCC_OscConfig+0x264>
 8002d00:	f7fe ffc6 	bl	8001c90 <HAL_GetTick>
 8002d04:	4e8c      	ldr	r6, [pc, #560]	; (8002f38 <HAL_RCC_OscConfig+0x290>)
 8002d06:	4605      	mov	r5, r0
 8002d08:	e005      	b.n	8002d16 <HAL_RCC_OscConfig+0x6e>
 8002d0a:	f7fe ffc1 	bl	8001c90 <HAL_GetTick>
 8002d0e:	1b40      	subs	r0, r0, r5
 8002d10:	2864      	cmp	r0, #100	; 0x64
 8002d12:	f200 80f7 	bhi.w	8002f04 <HAL_RCC_OscConfig+0x25c>
 8002d16:	6833      	ldr	r3, [r6, #0]
 8002d18:	039a      	lsls	r2, r3, #14
 8002d1a:	d5f6      	bpl.n	8002d0a <HAL_RCC_OscConfig+0x62>
 8002d1c:	6823      	ldr	r3, [r4, #0]
 8002d1e:	079f      	lsls	r7, r3, #30
 8002d20:	d529      	bpl.n	8002d76 <HAL_RCC_OscConfig+0xce>
 8002d22:	4b85      	ldr	r3, [pc, #532]	; (8002f38 <HAL_RCC_OscConfig+0x290>)
 8002d24:	689a      	ldr	r2, [r3, #8]
 8002d26:	f012 0f0c 	tst.w	r2, #12
 8002d2a:	f000 8093 	beq.w	8002e54 <HAL_RCC_OscConfig+0x1ac>
 8002d2e:	689a      	ldr	r2, [r3, #8]
 8002d30:	f002 020c 	and.w	r2, r2, #12
 8002d34:	2a08      	cmp	r2, #8
 8002d36:	f000 8089 	beq.w	8002e4c <HAL_RCC_OscConfig+0x1a4>
 8002d3a:	68e3      	ldr	r3, [r4, #12]
 8002d3c:	4d7e      	ldr	r5, [pc, #504]	; (8002f38 <HAL_RCC_OscConfig+0x290>)
 8002d3e:	2b00      	cmp	r3, #0
 8002d40:	f000 8118 	beq.w	8002f74 <HAL_RCC_OscConfig+0x2cc>
 8002d44:	682b      	ldr	r3, [r5, #0]
 8002d46:	f043 0301 	orr.w	r3, r3, #1
 8002d4a:	602b      	str	r3, [r5, #0]
 8002d4c:	f7fe ffa0 	bl	8001c90 <HAL_GetTick>
 8002d50:	4606      	mov	r6, r0
 8002d52:	e005      	b.n	8002d60 <HAL_RCC_OscConfig+0xb8>
 8002d54:	f7fe ff9c 	bl	8001c90 <HAL_GetTick>
 8002d58:	1b80      	subs	r0, r0, r6
 8002d5a:	2802      	cmp	r0, #2
 8002d5c:	f200 80d2 	bhi.w	8002f04 <HAL_RCC_OscConfig+0x25c>
 8002d60:	682b      	ldr	r3, [r5, #0]
 8002d62:	0798      	lsls	r0, r3, #30
 8002d64:	d5f6      	bpl.n	8002d54 <HAL_RCC_OscConfig+0xac>
 8002d66:	682b      	ldr	r3, [r5, #0]
 8002d68:	6922      	ldr	r2, [r4, #16]
 8002d6a:	f023 03f8 	bic.w	r3, r3, #248	; 0xf8
 8002d6e:	ea43 03c2 	orr.w	r3, r3, r2, lsl #3
 8002d72:	602b      	str	r3, [r5, #0]
 8002d74:	6823      	ldr	r3, [r4, #0]
 8002d76:	071a      	lsls	r2, r3, #28
 8002d78:	d453      	bmi.n	8002e22 <HAL_RCC_OscConfig+0x17a>
 8002d7a:	075d      	lsls	r5, r3, #29
 8002d7c:	d531      	bpl.n	8002de2 <HAL_RCC_OscConfig+0x13a>
 8002d7e:	4b6e      	ldr	r3, [pc, #440]	; (8002f38 <HAL_RCC_OscConfig+0x290>)
 8002d80:	6c1a      	ldr	r2, [r3, #64]	; 0x40
 8002d82:	00d0      	lsls	r0, r2, #3
 8002d84:	f140 8082 	bpl.w	8002e8c <HAL_RCC_OscConfig+0x1e4>
 8002d88:	2500      	movs	r5, #0
 8002d8a:	4e6c      	ldr	r6, [pc, #432]	; (8002f3c <HAL_RCC_OscConfig+0x294>)
 8002d8c:	6833      	ldr	r3, [r6, #0]
 8002d8e:	05d9      	lsls	r1, r3, #23
 8002d90:	f140 80a8 	bpl.w	8002ee4 <HAL_RCC_OscConfig+0x23c>
 8002d94:	68a3      	ldr	r3, [r4, #8]
 8002d96:	2b01      	cmp	r3, #1
 8002d98:	f000 80fe 	beq.w	8002f98 <HAL_RCC_OscConfig+0x2f0>
 8002d9c:	2b00      	cmp	r3, #0
 8002d9e:	f040 8101 	bne.w	8002fa4 <HAL_RCC_OscConfig+0x2fc>
 8002da2:	4b65      	ldr	r3, [pc, #404]	; (8002f38 <HAL_RCC_OscConfig+0x290>)
 8002da4:	6f1a      	ldr	r2, [r3, #112]	; 0x70
 8002da6:	f022 0201 	bic.w	r2, r2, #1
 8002daa:	671a      	str	r2, [r3, #112]	; 0x70
 8002dac:	6f1a      	ldr	r2, [r3, #112]	; 0x70
 8002dae:	f022 0204 	bic.w	r2, r2, #4
 8002db2:	671a      	str	r2, [r3, #112]	; 0x70
 8002db4:	68a3      	ldr	r3, [r4, #8]
 8002db6:	2b00      	cmp	r3, #0
 8002db8:	f000 80b6 	beq.w	8002f28 <HAL_RCC_OscConfig+0x280>
 8002dbc:	f7fe ff68 	bl	8001c90 <HAL_GetTick>
 8002dc0:	4f5d      	ldr	r7, [pc, #372]	; (8002f38 <HAL_RCC_OscConfig+0x290>)
 8002dc2:	f241 3888 	movw	r8, #5000	; 0x1388
 8002dc6:	4606      	mov	r6, r0
 8002dc8:	e005      	b.n	8002dd6 <HAL_RCC_OscConfig+0x12e>
 8002dca:	f7fe ff61 	bl	8001c90 <HAL_GetTick>
 8002dce:	1b80      	subs	r0, r0, r6
 8002dd0:	4540      	cmp	r0, r8
 8002dd2:	f200 8097 	bhi.w	8002f04 <HAL_RCC_OscConfig+0x25c>
 8002dd6:	6f3b      	ldr	r3, [r7, #112]	; 0x70
 8002dd8:	079b      	lsls	r3, r3, #30
 8002dda:	d5f6      	bpl.n	8002dca <HAL_RCC_OscConfig+0x122>
 8002ddc:	2d00      	cmp	r5, #0
 8002dde:	f040 8118 	bne.w	8003012 <HAL_RCC_OscConfig+0x36a>
 8002de2:	69a0      	ldr	r0, [r4, #24]
 8002de4:	b1c8      	cbz	r0, 8002e1a <HAL_RCC_OscConfig+0x172>
 8002de6:	4d54      	ldr	r5, [pc, #336]	; (8002f38 <HAL_RCC_OscConfig+0x290>)
 8002de8:	68ab      	ldr	r3, [r5, #8]
 8002dea:	f003 030c 	and.w	r3, r3, #12
 8002dee:	2b08      	cmp	r3, #8
 8002df0:	f000 80e5 	beq.w	8002fbe <HAL_RCC_OscConfig+0x316>
 8002df4:	682b      	ldr	r3, [r5, #0]
 8002df6:	2802      	cmp	r0, #2
 8002df8:	f023 7380 	bic.w	r3, r3, #16777216	; 0x1000000
 8002dfc:	602b      	str	r3, [r5, #0]
 8002dfe:	f000 8110 	beq.w	8003022 <HAL_RCC_OscConfig+0x37a>
 8002e02:	f7fe ff45 	bl	8001c90 <HAL_GetTick>
 8002e06:	4604      	mov	r4, r0
 8002e08:	e004      	b.n	8002e14 <HAL_RCC_OscConfig+0x16c>
 8002e0a:	f7fe ff41 	bl	8001c90 <HAL_GetTick>
 8002e0e:	1b00      	subs	r0, r0, r4
 8002e10:	2802      	cmp	r0, #2
 8002e12:	d877      	bhi.n	8002f04 <HAL_RCC_OscConfig+0x25c>
 8002e14:	682b      	ldr	r3, [r5, #0]
 8002e16:	019b      	lsls	r3, r3, #6
 8002e18:	d4f7      	bmi.n	8002e0a <HAL_RCC_OscConfig+0x162>
 8002e1a:	2000      	movs	r0, #0
 8002e1c:	b002      	add	sp, #8
 8002e1e:	e8bd 81f0 	ldmia.w	sp!, {r4, r5, r6, r7, r8, pc}
 8002e22:	6963      	ldr	r3, [r4, #20]
 8002e24:	4d44      	ldr	r5, [pc, #272]	; (8002f38 <HAL_RCC_OscConfig+0x290>)
 8002e26:	b303      	cbz	r3, 8002e6a <HAL_RCC_OscConfig+0x1c2>
 8002e28:	6f6b      	ldr	r3, [r5, #116]	; 0x74
 8002e2a:	f043 0301 	orr.w	r3, r3, #1
 8002e2e:	676b      	str	r3, [r5, #116]	; 0x74
 8002e30:	f7fe ff2e 	bl	8001c90 <HAL_GetTick>
 8002e34:	4606      	mov	r6, r0
 8002e36:	e004      	b.n	8002e42 <HAL_RCC_OscConfig+0x19a>
 8002e38:	f7fe ff2a 	bl	8001c90 <HAL_GetTick>
 8002e3c:	1b80      	subs	r0, r0, r6
 8002e3e:	2802      	cmp	r0, #2
 8002e40:	d860      	bhi.n	8002f04 <HAL_RCC_OscConfig+0x25c>
 8002e42:	6f6b      	ldr	r3, [r5, #116]	; 0x74
 8002e44:	079b      	lsls	r3, r3, #30
 8002e46:	d5f7      	bpl.n	8002e38 <HAL_RCC_OscConfig+0x190>
 8002e48:	6823      	ldr	r3, [r4, #0]
 8002e4a:	e796      	b.n	8002d7a <HAL_RCC_OscConfig+0xd2>
 8002e4c:	685b      	ldr	r3, [r3, #4]
 8002e4e:	025e      	lsls	r6, r3, #9
 8002e50:	f53f af73 	bmi.w	8002d3a <HAL_RCC_OscConfig+0x92>
 8002e54:	4b38      	ldr	r3, [pc, #224]	; (8002f38 <HAL_RCC_OscConfig+0x290>)
 8002e56:	681b      	ldr	r3, [r3, #0]
 8002e58:	079d      	lsls	r5, r3, #30
 8002e5a:	d536      	bpl.n	8002eca <HAL_RCC_OscConfig+0x222>
 8002e5c:	68e3      	ldr	r3, [r4, #12]
 8002e5e:	2b01      	cmp	r3, #1
 8002e60:	d033      	beq.n	8002eca <HAL_RCC_OscConfig+0x222>
 8002e62:	2001      	movs	r0, #1
 8002e64:	b002      	add	sp, #8
 8002e66:	e8bd 81f0 	ldmia.w	sp!, {r4, r5, r6, r7, r8, pc}
 8002e6a:	6f6b      	ldr	r3, [r5, #116]	; 0x74
 8002e6c:	f023 0301 	bic.w	r3, r3, #1
 8002e70:	676b      	str	r3, [r5, #116]	; 0x74
 8002e72:	f7fe ff0d 	bl	8001c90 <HAL_GetTick>
 8002e76:	4606      	mov	r6, r0
 8002e78:	e004      	b.n	8002e84 <HAL_RCC_OscConfig+0x1dc>
 8002e7a:	f7fe ff09 	bl	8001c90 <HAL_GetTick>
 8002e7e:	1b80      	subs	r0, r0, r6
 8002e80:	2802      	cmp	r0, #2
 8002e82:	d83f      	bhi.n	8002f04 <HAL_RCC_OscConfig+0x25c>
 8002e84:	6f6b      	ldr	r3, [r5, #116]	; 0x74
 8002e86:	079f      	lsls	r7, r3, #30
 8002e88:	d4f7      	bmi.n	8002e7a <HAL_RCC_OscConfig+0x1d2>
 8002e8a:	e7dd      	b.n	8002e48 <HAL_RCC_OscConfig+0x1a0>
 8002e8c:	6c1a      	ldr	r2, [r3, #64]	; 0x40
 8002e8e:	2501      	movs	r5, #1
 8002e90:	f042 5280 	orr.w	r2, r2, #268435456	; 0x10000000
 8002e94:	641a      	str	r2, [r3, #64]	; 0x40
 8002e96:	6c1b      	ldr	r3, [r3, #64]	; 0x40
 8002e98:	f003 5380 	and.w	r3, r3, #268435456	; 0x10000000
 8002e9c:	9301      	str	r3, [sp, #4]
 8002e9e:	9b01      	ldr	r3, [sp, #4]
 8002ea0:	e773      	b.n	8002d8a <HAL_RCC_OscConfig+0xe2>
 8002ea2:	684a      	ldr	r2, [r1, #4]
 8002ea4:	0250      	lsls	r0, r2, #9
 8002ea6:	f57f af16 	bpl.w	8002cd6 <HAL_RCC_OscConfig+0x2e>
 8002eaa:	4a23      	ldr	r2, [pc, #140]	; (8002f38 <HAL_RCC_OscConfig+0x290>)
 8002eac:	6812      	ldr	r2, [r2, #0]
 8002eae:	0391      	lsls	r1, r2, #14
 8002eb0:	f57f af35 	bpl.w	8002d1e <HAL_RCC_OscConfig+0x76>
 8002eb4:	6862      	ldr	r2, [r4, #4]
 8002eb6:	2a00      	cmp	r2, #0
 8002eb8:	f47f af31 	bne.w	8002d1e <HAL_RCC_OscConfig+0x76>
 8002ebc:	e7d1      	b.n	8002e62 <HAL_RCC_OscConfig+0x1ba>
 8002ebe:	4a1e      	ldr	r2, [pc, #120]	; (8002f38 <HAL_RCC_OscConfig+0x290>)
 8002ec0:	6813      	ldr	r3, [r2, #0]
 8002ec2:	f443 3380 	orr.w	r3, r3, #65536	; 0x10000
 8002ec6:	6013      	str	r3, [r2, #0]
 8002ec8:	e716      	b.n	8002cf8 <HAL_RCC_OscConfig+0x50>
 8002eca:	4a1b      	ldr	r2, [pc, #108]	; (8002f38 <HAL_RCC_OscConfig+0x290>)
 8002ecc:	6921      	ldr	r1, [r4, #16]
 8002ece:	6813      	ldr	r3, [r2, #0]
 8002ed0:	f023 03f8 	bic.w	r3, r3, #248	; 0xf8
 8002ed4:	ea43 03c1 	orr.w	r3, r3, r1, lsl #3
 8002ed8:	6013      	str	r3, [r2, #0]
 8002eda:	6823      	ldr	r3, [r4, #0]
 8002edc:	071a      	lsls	r2, r3, #28
 8002ede:	f57f af4c 	bpl.w	8002d7a <HAL_RCC_OscConfig+0xd2>
 8002ee2:	e79e      	b.n	8002e22 <HAL_RCC_OscConfig+0x17a>
 8002ee4:	6833      	ldr	r3, [r6, #0]
 8002ee6:	f443 7380 	orr.w	r3, r3, #256	; 0x100
 8002eea:	6033      	str	r3, [r6, #0]
 8002eec:	f7fe fed0 	bl	8001c90 <HAL_GetTick>
 8002ef0:	4607      	mov	r7, r0
 8002ef2:	6833      	ldr	r3, [r6, #0]
 8002ef4:	05da      	lsls	r2, r3, #23
 8002ef6:	f53f af4d 	bmi.w	8002d94 <HAL_RCC_OscConfig+0xec>
 8002efa:	f7fe fec9 	bl	8001c90 <HAL_GetTick>
 8002efe:	1bc0      	subs	r0, r0, r7
 8002f00:	2864      	cmp	r0, #100	; 0x64
 8002f02:	d9f6      	bls.n	8002ef2 <HAL_RCC_OscConfig+0x24a>
 8002f04:	2003      	movs	r0, #3
 8002f06:	b002      	add	sp, #8
 8002f08:	e8bd 81f0 	ldmia.w	sp!, {r4, r5, r6, r7, r8, pc}
 8002f0c:	f7fe fec0 	bl	8001c90 <HAL_GetTick>
 8002f10:	4e09      	ldr	r6, [pc, #36]	; (8002f38 <HAL_RCC_OscConfig+0x290>)
 8002f12:	4605      	mov	r5, r0
 8002f14:	e004      	b.n	8002f20 <HAL_RCC_OscConfig+0x278>
 8002f16:	f7fe febb 	bl	8001c90 <HAL_GetTick>
 8002f1a:	1b40      	subs	r0, r0, r5
 8002f1c:	2864      	cmp	r0, #100	; 0x64
 8002f1e:	d8f1      	bhi.n	8002f04 <HAL_RCC_OscConfig+0x25c>
 8002f20:	6833      	ldr	r3, [r6, #0]
 8002f22:	039b      	lsls	r3, r3, #14
 8002f24:	d4f7      	bmi.n	8002f16 <HAL_RCC_OscConfig+0x26e>
 8002f26:	e6f9      	b.n	8002d1c <HAL_RCC_OscConfig+0x74>
 8002f28:	f7fe feb2 	bl	8001c90 <HAL_GetTick>
 8002f2c:	4f02      	ldr	r7, [pc, #8]	; (8002f38 <HAL_RCC_OscConfig+0x290>)
 8002f2e:	f241 3888 	movw	r8, #5000	; 0x1388
 8002f32:	4606      	mov	r6, r0
 8002f34:	e009      	b.n	8002f4a <HAL_RCC_OscConfig+0x2a2>
 8002f36:	bf00      	nop
 8002f38:	40023800 	.word	0x40023800
 8002f3c:	40007000 	.word	0x40007000
 8002f40:	f7fe fea6 	bl	8001c90 <HAL_GetTick>
 8002f44:	1b80      	subs	r0, r0, r6
 8002f46:	4540      	cmp	r0, r8
 8002f48:	d8dc      	bhi.n	8002f04 <HAL_RCC_OscConfig+0x25c>
 8002f4a:	6f3b      	ldr	r3, [r7, #112]	; 0x70
 8002f4c:	0798      	lsls	r0, r3, #30
 8002f4e:	d4f7      	bmi.n	8002f40 <HAL_RCC_OscConfig+0x298>
 8002f50:	2d00      	cmp	r5, #0
 8002f52:	f43f af46 	beq.w	8002de2 <HAL_RCC_OscConfig+0x13a>
 8002f56:	e05c      	b.n	8003012 <HAL_RCC_OscConfig+0x36a>
 8002f58:	f5b3 2fa0 	cmp.w	r3, #327680	; 0x50000
 8002f5c:	4b49      	ldr	r3, [pc, #292]	; (8003084 <HAL_RCC_OscConfig+0x3dc>)
 8002f5e:	681a      	ldr	r2, [r3, #0]
 8002f60:	f47f aec3 	bne.w	8002cea <HAL_RCC_OscConfig+0x42>
 8002f64:	f442 2280 	orr.w	r2, r2, #262144	; 0x40000
 8002f68:	601a      	str	r2, [r3, #0]
 8002f6a:	681a      	ldr	r2, [r3, #0]
 8002f6c:	f442 3280 	orr.w	r2, r2, #65536	; 0x10000
 8002f70:	601a      	str	r2, [r3, #0]
 8002f72:	e6c1      	b.n	8002cf8 <HAL_RCC_OscConfig+0x50>
 8002f74:	682b      	ldr	r3, [r5, #0]
 8002f76:	f023 0301 	bic.w	r3, r3, #1
 8002f7a:	602b      	str	r3, [r5, #0]
 8002f7c:	f7fe fe88 	bl	8001c90 <HAL_GetTick>
 8002f80:	4606      	mov	r6, r0
 8002f82:	e004      	b.n	8002f8e <HAL_RCC_OscConfig+0x2e6>
 8002f84:	f7fe fe84 	bl	8001c90 <HAL_GetTick>
 8002f88:	1b80      	subs	r0, r0, r6
 8002f8a:	2802      	cmp	r0, #2
 8002f8c:	d8ba      	bhi.n	8002f04 <HAL_RCC_OscConfig+0x25c>
 8002f8e:	682b      	ldr	r3, [r5, #0]
 8002f90:	0799      	lsls	r1, r3, #30
 8002f92:	d4f7      	bmi.n	8002f84 <HAL_RCC_OscConfig+0x2dc>
 8002f94:	6823      	ldr	r3, [r4, #0]
 8002f96:	e6ee      	b.n	8002d76 <HAL_RCC_OscConfig+0xce>
 8002f98:	4a3a      	ldr	r2, [pc, #232]	; (8003084 <HAL_RCC_OscConfig+0x3dc>)
 8002f9a:	6f13      	ldr	r3, [r2, #112]	; 0x70
 8002f9c:	f043 0301 	orr.w	r3, r3, #1
 8002fa0:	6713      	str	r3, [r2, #112]	; 0x70
 8002fa2:	e707      	b.n	8002db4 <HAL_RCC_OscConfig+0x10c>
 8002fa4:	2b05      	cmp	r3, #5
 8002fa6:	4b37      	ldr	r3, [pc, #220]	; (8003084 <HAL_RCC_OscConfig+0x3dc>)
 8002fa8:	6f1a      	ldr	r2, [r3, #112]	; 0x70
 8002faa:	f47f aefc 	bne.w	8002da6 <HAL_RCC_OscConfig+0xfe>
 8002fae:	f042 0204 	orr.w	r2, r2, #4
 8002fb2:	671a      	str	r2, [r3, #112]	; 0x70
 8002fb4:	6f1a      	ldr	r2, [r3, #112]	; 0x70
 8002fb6:	f042 0201 	orr.w	r2, r2, #1
 8002fba:	671a      	str	r2, [r3, #112]	; 0x70
 8002fbc:	e6fa      	b.n	8002db4 <HAL_RCC_OscConfig+0x10c>
 8002fbe:	2801      	cmp	r0, #1
 8002fc0:	686a      	ldr	r2, [r5, #4]
 8002fc2:	f43f af2b 	beq.w	8002e1c <HAL_RCC_OscConfig+0x174>
 8002fc6:	f402 0380 	and.w	r3, r2, #4194304	; 0x400000
 8002fca:	69e1      	ldr	r1, [r4, #28]
 8002fcc:	428b      	cmp	r3, r1
 8002fce:	f47f af48 	bne.w	8002e62 <HAL_RCC_OscConfig+0x1ba>
 8002fd2:	f002 033f 	and.w	r3, r2, #63	; 0x3f
 8002fd6:	6a21      	ldr	r1, [r4, #32]
 8002fd8:	428b      	cmp	r3, r1
 8002fda:	f47f af42 	bne.w	8002e62 <HAL_RCC_OscConfig+0x1ba>
 8002fde:	f647 73c0 	movw	r3, #32704	; 0x7fc0
 8002fe2:	6a61      	ldr	r1, [r4, #36]	; 0x24
 8002fe4:	4013      	ands	r3, r2
 8002fe6:	ebb3 1f81 	cmp.w	r3, r1, lsl #6
 8002fea:	f47f af3a 	bne.w	8002e62 <HAL_RCC_OscConfig+0x1ba>
 8002fee:	6aa3      	ldr	r3, [r4, #40]	; 0x28
 8002ff0:	f402 3140 	and.w	r1, r2, #196608	; 0x30000
 8002ff4:	085b      	lsrs	r3, r3, #1
 8002ff6:	3b01      	subs	r3, #1
 8002ff8:	ebb1 4f03 	cmp.w	r1, r3, lsl #16
 8002ffc:	f47f af31 	bne.w	8002e62 <HAL_RCC_OscConfig+0x1ba>
 8003000:	6ae3      	ldr	r3, [r4, #44]	; 0x2c
 8003002:	f002 6270 	and.w	r2, r2, #251658240	; 0xf000000
 8003006:	ebb2 6f03 	cmp.w	r2, r3, lsl #24
 800300a:	bf14      	ite	ne
 800300c:	2001      	movne	r0, #1
 800300e:	2000      	moveq	r0, #0
 8003010:	e704      	b.n	8002e1c <HAL_RCC_OscConfig+0x174>
 8003012:	4a1c      	ldr	r2, [pc, #112]	; (8003084 <HAL_RCC_OscConfig+0x3dc>)
 8003014:	6c13      	ldr	r3, [r2, #64]	; 0x40
 8003016:	f023 5380 	bic.w	r3, r3, #268435456	; 0x10000000
 800301a:	6413      	str	r3, [r2, #64]	; 0x40
 800301c:	e6e1      	b.n	8002de2 <HAL_RCC_OscConfig+0x13a>
 800301e:	2001      	movs	r0, #1
 8003020:	4770      	bx	lr
 8003022:	f7fe fe35 	bl	8001c90 <HAL_GetTick>
 8003026:	4606      	mov	r6, r0
 8003028:	e005      	b.n	8003036 <HAL_RCC_OscConfig+0x38e>
 800302a:	f7fe fe31 	bl	8001c90 <HAL_GetTick>
 800302e:	1b80      	subs	r0, r0, r6
 8003030:	2802      	cmp	r0, #2
 8003032:	f63f af67 	bhi.w	8002f04 <HAL_RCC_OscConfig+0x25c>
 8003036:	682b      	ldr	r3, [r5, #0]
 8003038:	0199      	lsls	r1, r3, #6
 800303a:	d4f6      	bmi.n	800302a <HAL_RCC_OscConfig+0x382>
 800303c:	6aa2      	ldr	r2, [r4, #40]	; 0x28
 800303e:	6a60      	ldr	r0, [r4, #36]	; 0x24
 8003040:	0852      	lsrs	r2, r2, #1
 8003042:	4e10      	ldr	r6, [pc, #64]	; (8003084 <HAL_RCC_OscConfig+0x3dc>)
 8003044:	e9d4 3107 	ldrd	r3, r1, [r4, #28]
 8003048:	3a01      	subs	r2, #1
 800304a:	430b      	orrs	r3, r1
 800304c:	6ae1      	ldr	r1, [r4, #44]	; 0x2c
 800304e:	ea43 4302 	orr.w	r3, r3, r2, lsl #16
 8003052:	ea43 1380 	orr.w	r3, r3, r0, lsl #6
 8003056:	ea43 6301 	orr.w	r3, r3, r1, lsl #24
 800305a:	f043 5300 	orr.w	r3, r3, #536870912	; 0x20000000
 800305e:	606b      	str	r3, [r5, #4]
 8003060:	682b      	ldr	r3, [r5, #0]
 8003062:	f043 7380 	orr.w	r3, r3, #16777216	; 0x1000000
 8003066:	602b      	str	r3, [r5, #0]
 8003068:	f7fe fe12 	bl	8001c90 <HAL_GetTick>
 800306c:	4604      	mov	r4, r0
 800306e:	e005      	b.n	800307c <HAL_RCC_OscConfig+0x3d4>
 8003070:	f7fe fe0e 	bl	8001c90 <HAL_GetTick>
 8003074:	1b00      	subs	r0, r0, r4
 8003076:	2802      	cmp	r0, #2
 8003078:	f63f af44 	bhi.w	8002f04 <HAL_RCC_OscConfig+0x25c>
 800307c:	6833      	ldr	r3, [r6, #0]
 800307e:	019a      	lsls	r2, r3, #6
 8003080:	d5f6      	bpl.n	8003070 <HAL_RCC_OscConfig+0x3c8>
 8003082:	e6ca      	b.n	8002e1a <HAL_RCC_OscConfig+0x172>
 8003084:	40023800 	.word	0x40023800

08003088 <HAL_RCC_ClockConfig>:
 8003088:	2800      	cmp	r0, #0
 800308a:	f000 80b6 	beq.w	80031fa <HAL_RCC_ClockConfig+0x172>
 800308e:	4a62      	ldr	r2, [pc, #392]	; (8003218 <HAL_RCC_ClockConfig+0x190>)
 8003090:	e92d 41f0 	stmdb	sp!, {r4, r5, r6, r7, r8, lr}
 8003094:	6813      	ldr	r3, [r2, #0]
 8003096:	4604      	mov	r4, r0
 8003098:	460d      	mov	r5, r1
 800309a:	f003 030f 	and.w	r3, r3, #15
 800309e:	428b      	cmp	r3, r1
 80030a0:	d20c      	bcs.n	80030bc <HAL_RCC_ClockConfig+0x34>
 80030a2:	6813      	ldr	r3, [r2, #0]
 80030a4:	f023 030f 	bic.w	r3, r3, #15
 80030a8:	430b      	orrs	r3, r1
 80030aa:	6013      	str	r3, [r2, #0]
 80030ac:	6813      	ldr	r3, [r2, #0]
 80030ae:	f003 030f 	and.w	r3, r3, #15
 80030b2:	428b      	cmp	r3, r1
 80030b4:	d002      	beq.n	80030bc <HAL_RCC_ClockConfig+0x34>
 80030b6:	2001      	movs	r0, #1
 80030b8:	e8bd 81f0 	ldmia.w	sp!, {r4, r5, r6, r7, r8, pc}
 80030bc:	6823      	ldr	r3, [r4, #0]
 80030be:	0799      	lsls	r1, r3, #30
 80030c0:	d516      	bpl.n	80030f0 <HAL_RCC_ClockConfig+0x68>
 80030c2:	075a      	lsls	r2, r3, #29
 80030c4:	d505      	bpl.n	80030d2 <HAL_RCC_ClockConfig+0x4a>
 80030c6:	4a55      	ldr	r2, [pc, #340]	; (800321c <HAL_RCC_ClockConfig+0x194>)
 80030c8:	6893      	ldr	r3, [r2, #8]
 80030ca:	f443 53e0 	orr.w	r3, r3, #7168	; 0x1c00
 80030ce:	6093      	str	r3, [r2, #8]
 80030d0:	6823      	ldr	r3, [r4, #0]
 80030d2:	071b      	lsls	r3, r3, #28
 80030d4:	d504      	bpl.n	80030e0 <HAL_RCC_ClockConfig+0x58>
 80030d6:	4a51      	ldr	r2, [pc, #324]	; (800321c <HAL_RCC_ClockConfig+0x194>)
 80030d8:	6893      	ldr	r3, [r2, #8]
 80030da:	f443 4360 	orr.w	r3, r3, #57344	; 0xe000
 80030de:	6093      	str	r3, [r2, #8]
 80030e0:	4a4e      	ldr	r2, [pc, #312]	; (800321c <HAL_RCC_ClockConfig+0x194>)
 80030e2:	68a1      	ldr	r1, [r4, #8]
 80030e4:	6893      	ldr	r3, [r2, #8]
 80030e6:	f023 03f0 	bic.w	r3, r3, #240	; 0xf0
 80030ea:	430b      	orrs	r3, r1
 80030ec:	6093      	str	r3, [r2, #8]
 80030ee:	6823      	ldr	r3, [r4, #0]
 80030f0:	07df      	lsls	r7, r3, #31
 80030f2:	d520      	bpl.n	8003136 <HAL_RCC_ClockConfig+0xae>
 80030f4:	6862      	ldr	r2, [r4, #4]
 80030f6:	4b49      	ldr	r3, [pc, #292]	; (800321c <HAL_RCC_ClockConfig+0x194>)
 80030f8:	2a01      	cmp	r2, #1
 80030fa:	681b      	ldr	r3, [r3, #0]
 80030fc:	d07f      	beq.n	80031fe <HAL_RCC_ClockConfig+0x176>
 80030fe:	2a02      	cmp	r2, #2
 8003100:	d078      	beq.n	80031f4 <HAL_RCC_ClockConfig+0x16c>
 8003102:	0799      	lsls	r1, r3, #30
 8003104:	d5d7      	bpl.n	80030b6 <HAL_RCC_ClockConfig+0x2e>
 8003106:	4e45      	ldr	r6, [pc, #276]	; (800321c <HAL_RCC_ClockConfig+0x194>)
 8003108:	f241 3888 	movw	r8, #5000	; 0x1388
 800310c:	68b3      	ldr	r3, [r6, #8]
 800310e:	f023 0303 	bic.w	r3, r3, #3
 8003112:	4313      	orrs	r3, r2
 8003114:	60b3      	str	r3, [r6, #8]
 8003116:	f7fe fdbb 	bl	8001c90 <HAL_GetTick>
 800311a:	4607      	mov	r7, r0
 800311c:	e004      	b.n	8003128 <HAL_RCC_ClockConfig+0xa0>
 800311e:	f7fe fdb7 	bl	8001c90 <HAL_GetTick>
 8003122:	1bc0      	subs	r0, r0, r7
 8003124:	4540      	cmp	r0, r8
 8003126:	d86d      	bhi.n	8003204 <HAL_RCC_ClockConfig+0x17c>
 8003128:	68b3      	ldr	r3, [r6, #8]
 800312a:	6862      	ldr	r2, [r4, #4]
 800312c:	f003 030c 	and.w	r3, r3, #12
 8003130:	ebb3 0f82 	cmp.w	r3, r2, lsl #2
 8003134:	d1f3      	bne.n	800311e <HAL_RCC_ClockConfig+0x96>
 8003136:	4a38      	ldr	r2, [pc, #224]	; (8003218 <HAL_RCC_ClockConfig+0x190>)
 8003138:	6813      	ldr	r3, [r2, #0]
 800313a:	f003 030f 	and.w	r3, r3, #15
 800313e:	42ab      	cmp	r3, r5
 8003140:	d909      	bls.n	8003156 <HAL_RCC_ClockConfig+0xce>
 8003142:	6813      	ldr	r3, [r2, #0]
 8003144:	f023 030f 	bic.w	r3, r3, #15
 8003148:	432b      	orrs	r3, r5
 800314a:	6013      	str	r3, [r2, #0]
 800314c:	6813      	ldr	r3, [r2, #0]
 800314e:	f003 030f 	and.w	r3, r3, #15
 8003152:	42ab      	cmp	r3, r5
 8003154:	d1af      	bne.n	80030b6 <HAL_RCC_ClockConfig+0x2e>
 8003156:	6823      	ldr	r3, [r4, #0]
 8003158:	075a      	lsls	r2, r3, #29
 800315a:	d507      	bpl.n	800316c <HAL_RCC_ClockConfig+0xe4>
 800315c:	4a2f      	ldr	r2, [pc, #188]	; (800321c <HAL_RCC_ClockConfig+0x194>)
 800315e:	68e1      	ldr	r1, [r4, #12]
 8003160:	6893      	ldr	r3, [r2, #8]
 8003162:	f423 53e0 	bic.w	r3, r3, #7168	; 0x1c00
 8003166:	430b      	orrs	r3, r1
 8003168:	6093      	str	r3, [r2, #8]
 800316a:	6823      	ldr	r3, [r4, #0]
 800316c:	071b      	lsls	r3, r3, #28
 800316e:	d431      	bmi.n	80031d4 <HAL_RCC_ClockConfig+0x14c>
 8003170:	492a      	ldr	r1, [pc, #168]	; (800321c <HAL_RCC_ClockConfig+0x194>)
 8003172:	688b      	ldr	r3, [r1, #8]
 8003174:	f003 030c 	and.w	r3, r3, #12
 8003178:	2b04      	cmp	r3, #4
 800317a:	d039      	beq.n	80031f0 <HAL_RCC_ClockConfig+0x168>
 800317c:	2b08      	cmp	r3, #8
 800317e:	d118      	bne.n	80031b2 <HAL_RCC_ClockConfig+0x12a>
 8003180:	684a      	ldr	r2, [r1, #4]
 8003182:	684b      	ldr	r3, [r1, #4]
 8003184:	f002 023f 	and.w	r2, r2, #63	; 0x3f
 8003188:	6849      	ldr	r1, [r1, #4]
 800318a:	f413 0380 	ands.w	r3, r3, #4194304	; 0x400000
 800318e:	d03b      	beq.n	8003208 <HAL_RCC_ClockConfig+0x180>
 8003190:	4823      	ldr	r0, [pc, #140]	; (8003220 <HAL_RCC_ClockConfig+0x198>)
 8003192:	f3c1 1188 	ubfx	r1, r1, #6, #9
 8003196:	2300      	movs	r3, #0
 8003198:	fba1 0100 	umull	r0, r1, r1, r0
 800319c:	f7fd fd2c 	bl	8000bf8 <__aeabi_uldivmod>
 80031a0:	4b1e      	ldr	r3, [pc, #120]	; (800321c <HAL_RCC_ClockConfig+0x194>)
 80031a2:	685b      	ldr	r3, [r3, #4]
 80031a4:	f3c3 4301 	ubfx	r3, r3, #16, #2
 80031a8:	3301      	adds	r3, #1
 80031aa:	005b      	lsls	r3, r3, #1
 80031ac:	fbb0 f3f3 	udiv	r3, r0, r3
 80031b0:	e000      	b.n	80031b4 <HAL_RCC_ClockConfig+0x12c>
 80031b2:	4b1c      	ldr	r3, [pc, #112]	; (8003224 <HAL_RCC_ClockConfig+0x19c>)
 80031b4:	4a19      	ldr	r2, [pc, #100]	; (800321c <HAL_RCC_ClockConfig+0x194>)
 80031b6:	4c1c      	ldr	r4, [pc, #112]	; (8003228 <HAL_RCC_ClockConfig+0x1a0>)
 80031b8:	6892      	ldr	r2, [r2, #8]
 80031ba:	481c      	ldr	r0, [pc, #112]	; (800322c <HAL_RCC_ClockConfig+0x1a4>)
 80031bc:	f3c2 1203 	ubfx	r2, r2, #4, #4
 80031c0:	491b      	ldr	r1, [pc, #108]	; (8003230 <HAL_RCC_ClockConfig+0x1a8>)
 80031c2:	6800      	ldr	r0, [r0, #0]
 80031c4:	5ca2      	ldrb	r2, [r4, r2]
 80031c6:	40d3      	lsrs	r3, r2
 80031c8:	600b      	str	r3, [r1, #0]
 80031ca:	f7fe fa75 	bl	80016b8 <HAL_InitTick>
 80031ce:	2000      	movs	r0, #0
 80031d0:	e8bd 81f0 	ldmia.w	sp!, {r4, r5, r6, r7, r8, pc}
 80031d4:	4a11      	ldr	r2, [pc, #68]	; (800321c <HAL_RCC_ClockConfig+0x194>)
 80031d6:	6921      	ldr	r1, [r4, #16]
 80031d8:	6893      	ldr	r3, [r2, #8]
 80031da:	f423 4360 	bic.w	r3, r3, #57344	; 0xe000
 80031de:	ea43 03c1 	orr.w	r3, r3, r1, lsl #3
 80031e2:	490e      	ldr	r1, [pc, #56]	; (800321c <HAL_RCC_ClockConfig+0x194>)
 80031e4:	6093      	str	r3, [r2, #8]
 80031e6:	688b      	ldr	r3, [r1, #8]
 80031e8:	f003 030c 	and.w	r3, r3, #12
 80031ec:	2b04      	cmp	r3, #4
 80031ee:	d1c5      	bne.n	800317c <HAL_RCC_ClockConfig+0xf4>
 80031f0:	4b0b      	ldr	r3, [pc, #44]	; (8003220 <HAL_RCC_ClockConfig+0x198>)
 80031f2:	e7df      	b.n	80031b4 <HAL_RCC_ClockConfig+0x12c>
 80031f4:	0198      	lsls	r0, r3, #6
 80031f6:	d486      	bmi.n	8003106 <HAL_RCC_ClockConfig+0x7e>
 80031f8:	e75d      	b.n	80030b6 <HAL_RCC_ClockConfig+0x2e>
 80031fa:	2001      	movs	r0, #1
 80031fc:	4770      	bx	lr
 80031fe:	039e      	lsls	r6, r3, #14
 8003200:	d481      	bmi.n	8003106 <HAL_RCC_ClockConfig+0x7e>
 8003202:	e758      	b.n	80030b6 <HAL_RCC_ClockConfig+0x2e>
 8003204:	2003      	movs	r0, #3
 8003206:	e757      	b.n	80030b8 <HAL_RCC_ClockConfig+0x30>
 8003208:	4806      	ldr	r0, [pc, #24]	; (8003224 <HAL_RCC_ClockConfig+0x19c>)
 800320a:	f3c1 1188 	ubfx	r1, r1, #6, #9
 800320e:	fba1 0100 	umull	r0, r1, r1, r0
 8003212:	f7fd fcf1 	bl	8000bf8 <__aeabi_uldivmod>
 8003216:	e7c3      	b.n	80031a0 <HAL_RCC_ClockConfig+0x118>
 8003218:	40023c00 	.word	0x40023c00
 800321c:	40023800 	.word	0x40023800
 8003220:	007a1200 	.word	0x007a1200
 8003224:	00f42400 	.word	0x00f42400
 8003228:	0800c014 	.word	0x0800c014
 800322c:	20000008 	.word	0x20000008
 8003230:	20000000 	.word	0x20000000

08003234 <HAL_RCC_GetSysClockFreq>:
 8003234:	4916      	ldr	r1, [pc, #88]	; (8003290 <HAL_RCC_GetSysClockFreq+0x5c>)
 8003236:	b508      	push	{r3, lr}
 8003238:	688b      	ldr	r3, [r1, #8]
 800323a:	f003 030c 	and.w	r3, r3, #12
 800323e:	2b04      	cmp	r3, #4
 8003240:	d01b      	beq.n	800327a <HAL_RCC_GetSysClockFreq+0x46>
 8003242:	2b08      	cmp	r3, #8
 8003244:	d117      	bne.n	8003276 <HAL_RCC_GetSysClockFreq+0x42>
 8003246:	684a      	ldr	r2, [r1, #4]
 8003248:	684b      	ldr	r3, [r1, #4]
 800324a:	f002 023f 	and.w	r2, r2, #63	; 0x3f
 800324e:	6849      	ldr	r1, [r1, #4]
 8003250:	f413 0380 	ands.w	r3, r3, #4194304	; 0x400000
 8003254:	d113      	bne.n	800327e <HAL_RCC_GetSysClockFreq+0x4a>
 8003256:	480f      	ldr	r0, [pc, #60]	; (8003294 <HAL_RCC_GetSysClockFreq+0x60>)
 8003258:	f3c1 1188 	ubfx	r1, r1, #6, #9
 800325c:	fba1 0100 	umull	r0, r1, r1, r0
 8003260:	f7fd fcca 	bl	8000bf8 <__aeabi_uldivmod>
 8003264:	4b0a      	ldr	r3, [pc, #40]	; (8003290 <HAL_RCC_GetSysClockFreq+0x5c>)
 8003266:	685b      	ldr	r3, [r3, #4]
 8003268:	f3c3 4301 	ubfx	r3, r3, #16, #2
 800326c:	3301      	adds	r3, #1
 800326e:	005b      	lsls	r3, r3, #1
 8003270:	fbb0 f0f3 	udiv	r0, r0, r3
 8003274:	bd08      	pop	{r3, pc}
 8003276:	4807      	ldr	r0, [pc, #28]	; (8003294 <HAL_RCC_GetSysClockFreq+0x60>)
 8003278:	bd08      	pop	{r3, pc}
 800327a:	4807      	ldr	r0, [pc, #28]	; (8003298 <HAL_RCC_GetSysClockFreq+0x64>)
 800327c:	bd08      	pop	{r3, pc}
 800327e:	4806      	ldr	r0, [pc, #24]	; (8003298 <HAL_RCC_GetSysClockFreq+0x64>)
 8003280:	f3c1 1188 	ubfx	r1, r1, #6, #9
 8003284:	2300      	movs	r3, #0
 8003286:	fba1 0100 	umull	r0, r1, r1, r0
 800328a:	f7fd fcb5 	bl	8000bf8 <__aeabi_uldivmod>
 800328e:	e7e9      	b.n	8003264 <HAL_RCC_GetSysClockFreq+0x30>
 8003290:	40023800 	.word	0x40023800
 8003294:	00f42400 	.word	0x00f42400
 8003298:	007a1200 	.word	0x007a1200

0800329c <HAL_RCC_GetPCLK1Freq>:
 800329c:	4b04      	ldr	r3, [pc, #16]	; (80032b0 <HAL_RCC_GetPCLK1Freq+0x14>)
 800329e:	4905      	ldr	r1, [pc, #20]	; (80032b4 <HAL_RCC_GetPCLK1Freq+0x18>)
 80032a0:	689b      	ldr	r3, [r3, #8]
 80032a2:	4a05      	ldr	r2, [pc, #20]	; (80032b8 <HAL_RCC_GetPCLK1Freq+0x1c>)
 80032a4:	f3c3 2382 	ubfx	r3, r3, #10, #3
 80032a8:	6808      	ldr	r0, [r1, #0]
 80032aa:	5cd3      	ldrb	r3, [r2, r3]
 80032ac:	40d8      	lsrs	r0, r3
 80032ae:	4770      	bx	lr
 80032b0:	40023800 	.word	0x40023800
 80032b4:	20000000 	.word	0x20000000
 80032b8:	0800c024 	.word	0x0800c024

080032bc <HAL_RCC_GetPCLK2Freq>:
 80032bc:	4b04      	ldr	r3, [pc, #16]	; (80032d0 <HAL_RCC_GetPCLK2Freq+0x14>)
 80032be:	4905      	ldr	r1, [pc, #20]	; (80032d4 <HAL_RCC_GetPCLK2Freq+0x18>)
 80032c0:	689b      	ldr	r3, [r3, #8]
 80032c2:	4a05      	ldr	r2, [pc, #20]	; (80032d8 <HAL_RCC_GetPCLK2Freq+0x1c>)
 80032c4:	f3c3 3342 	ubfx	r3, r3, #13, #3
 80032c8:	6808      	ldr	r0, [r1, #0]
 80032ca:	5cd3      	ldrb	r3, [r2, r3]
 80032cc:	40d8      	lsrs	r0, r3
 80032ce:	4770      	bx	lr
 80032d0:	40023800 	.word	0x40023800
 80032d4:	20000000 	.word	0x20000000
 80032d8:	0800c024 	.word	0x0800c024

080032dc <HAL_RCC_GetClockConfig>:
 80032dc:	4b0e      	ldr	r3, [pc, #56]	; (8003318 <HAL_RCC_GetClockConfig+0x3c>)
 80032de:	220f      	movs	r2, #15
 80032e0:	b410      	push	{r4}
 80032e2:	6002      	str	r2, [r0, #0]
 80032e4:	689a      	ldr	r2, [r3, #8]
 80032e6:	4c0d      	ldr	r4, [pc, #52]	; (800331c <HAL_RCC_GetClockConfig+0x40>)
 80032e8:	f002 0203 	and.w	r2, r2, #3
 80032ec:	6042      	str	r2, [r0, #4]
 80032ee:	689a      	ldr	r2, [r3, #8]
 80032f0:	f002 02f0 	and.w	r2, r2, #240	; 0xf0
 80032f4:	6082      	str	r2, [r0, #8]
 80032f6:	689a      	ldr	r2, [r3, #8]
 80032f8:	f402 52e0 	and.w	r2, r2, #7168	; 0x1c00
 80032fc:	60c2      	str	r2, [r0, #12]
 80032fe:	689b      	ldr	r3, [r3, #8]
 8003300:	08db      	lsrs	r3, r3, #3
 8003302:	f403 53e0 	and.w	r3, r3, #7168	; 0x1c00
 8003306:	6103      	str	r3, [r0, #16]
 8003308:	6823      	ldr	r3, [r4, #0]
 800330a:	f85d 4b04 	ldr.w	r4, [sp], #4
 800330e:	f003 030f 	and.w	r3, r3, #15
 8003312:	600b      	str	r3, [r1, #0]
 8003314:	4770      	bx	lr
 8003316:	bf00      	nop
 8003318:	40023800 	.word	0x40023800
 800331c:	40023c00 	.word	0x40023c00

08003320 <HAL_RCCEx_PeriphCLKConfig>:
 8003320:	e92d 43f0 	stmdb	sp!, {r4, r5, r6, r7, r8, r9, lr}
 8003324:	6803      	ldr	r3, [r0, #0]
 8003326:	b083      	sub	sp, #12
 8003328:	4604      	mov	r4, r0
 800332a:	f013 0601 	ands.w	r6, r3, #1
 800332e:	d00d      	beq.n	800334c <HAL_RCCEx_PeriphCLKConfig+0x2c>
 8003330:	4ba4      	ldr	r3, [pc, #656]	; (80035c4 <HAL_RCCEx_PeriphCLKConfig+0x2a4>)
 8003332:	689a      	ldr	r2, [r3, #8]
 8003334:	f422 0200 	bic.w	r2, r2, #8388608	; 0x800000
 8003338:	609a      	str	r2, [r3, #8]
 800333a:	689a      	ldr	r2, [r3, #8]
 800333c:	6ac1      	ldr	r1, [r0, #44]	; 0x2c
 800333e:	430a      	orrs	r2, r1
 8003340:	609a      	str	r2, [r3, #8]
 8003342:	6ac6      	ldr	r6, [r0, #44]	; 0x2c
 8003344:	6803      	ldr	r3, [r0, #0]
 8003346:	fab6 f686 	clz	r6, r6
 800334a:	0976      	lsrs	r6, r6, #5
 800334c:	f413 2500 	ands.w	r5, r3, #524288	; 0x80000
 8003350:	d011      	beq.n	8003376 <HAL_RCCEx_PeriphCLKConfig+0x56>
 8003352:	4a9c      	ldr	r2, [pc, #624]	; (80035c4 <HAL_RCCEx_PeriphCLKConfig+0x2a4>)
 8003354:	6b61      	ldr	r1, [r4, #52]	; 0x34
 8003356:	f8d2 308c 	ldr.w	r3, [r2, #140]	; 0x8c
 800335a:	f423 1340 	bic.w	r3, r3, #3145728	; 0x300000
 800335e:	430b      	orrs	r3, r1
 8003360:	f8c2 308c 	str.w	r3, [r2, #140]	; 0x8c
 8003364:	6b65      	ldr	r5, [r4, #52]	; 0x34
 8003366:	f5b5 1f80 	cmp.w	r5, #1048576	; 0x100000
 800336a:	f000 81d8 	beq.w	800371e <HAL_RCCEx_PeriphCLKConfig+0x3fe>
 800336e:	fab5 f585 	clz	r5, r5
 8003372:	6823      	ldr	r3, [r4, #0]
 8003374:	096d      	lsrs	r5, r5, #5
 8003376:	02d9      	lsls	r1, r3, #11
 8003378:	d512      	bpl.n	80033a0 <HAL_RCCEx_PeriphCLKConfig+0x80>
 800337a:	4a92      	ldr	r2, [pc, #584]	; (80035c4 <HAL_RCCEx_PeriphCLKConfig+0x2a4>)
 800337c:	6ba1      	ldr	r1, [r4, #56]	; 0x38
 800337e:	f8d2 308c 	ldr.w	r3, [r2, #140]	; 0x8c
 8003382:	f423 0340 	bic.w	r3, r3, #12582912	; 0xc00000
 8003386:	430b      	orrs	r3, r1
 8003388:	f8c2 308c 	str.w	r3, [r2, #140]	; 0x8c
 800338c:	6ba3      	ldr	r3, [r4, #56]	; 0x38
 800338e:	f5b3 0f80 	cmp.w	r3, #4194304	; 0x400000
 8003392:	f000 81c8 	beq.w	8003726 <HAL_RCCEx_PeriphCLKConfig+0x406>
 8003396:	2b00      	cmp	r3, #0
 8003398:	f040 81eb 	bne.w	8003772 <HAL_RCCEx_PeriphCLKConfig+0x452>
 800339c:	6823      	ldr	r3, [r4, #0]
 800339e:	2501      	movs	r5, #1
 80033a0:	069a      	lsls	r2, r3, #26
 80033a2:	f100 8173 	bmi.w	800368c <HAL_RCCEx_PeriphCLKConfig+0x36c>
 80033a6:	06da      	lsls	r2, r3, #27
 80033a8:	d50d      	bpl.n	80033c6 <HAL_RCCEx_PeriphCLKConfig+0xa6>
 80033aa:	4b86      	ldr	r3, [pc, #536]	; (80035c4 <HAL_RCCEx_PeriphCLKConfig+0x2a4>)
 80033ac:	f8d3 208c 	ldr.w	r2, [r3, #140]	; 0x8c
 80033b0:	f022 7280 	bic.w	r2, r2, #16777216	; 0x1000000
 80033b4:	f8c3 208c 	str.w	r2, [r3, #140]	; 0x8c
 80033b8:	f8d3 208c 	ldr.w	r2, [r3, #140]	; 0x8c
 80033bc:	6b21      	ldr	r1, [r4, #48]	; 0x30
 80033be:	430a      	orrs	r2, r1
 80033c0:	f8c3 208c 	str.w	r2, [r3, #140]	; 0x8c
 80033c4:	6823      	ldr	r3, [r4, #0]
 80033c6:	045f      	lsls	r7, r3, #17
 80033c8:	d509      	bpl.n	80033de <HAL_RCCEx_PeriphCLKConfig+0xbe>
 80033ca:	4a7e      	ldr	r2, [pc, #504]	; (80035c4 <HAL_RCCEx_PeriphCLKConfig+0x2a4>)
 80033cc:	6de1      	ldr	r1, [r4, #92]	; 0x5c
 80033ce:	f8d2 3090 	ldr.w	r3, [r2, #144]	; 0x90
 80033d2:	f423 3340 	bic.w	r3, r3, #196608	; 0x30000
 80033d6:	430b      	orrs	r3, r1
 80033d8:	f8c2 3090 	str.w	r3, [r2, #144]	; 0x90
 80033dc:	6823      	ldr	r3, [r4, #0]
 80033de:	0418      	lsls	r0, r3, #16
 80033e0:	d509      	bpl.n	80033f6 <HAL_RCCEx_PeriphCLKConfig+0xd6>
 80033e2:	4a78      	ldr	r2, [pc, #480]	; (80035c4 <HAL_RCCEx_PeriphCLKConfig+0x2a4>)
 80033e4:	6e21      	ldr	r1, [r4, #96]	; 0x60
 80033e6:	f8d2 3090 	ldr.w	r3, [r2, #144]	; 0x90
 80033ea:	f423 2340 	bic.w	r3, r3, #786432	; 0xc0000
 80033ee:	430b      	orrs	r3, r1
 80033f0:	f8c2 3090 	str.w	r3, [r2, #144]	; 0x90
 80033f4:	6823      	ldr	r3, [r4, #0]
 80033f6:	03d9      	lsls	r1, r3, #15
 80033f8:	d509      	bpl.n	800340e <HAL_RCCEx_PeriphCLKConfig+0xee>
 80033fa:	4a72      	ldr	r2, [pc, #456]	; (80035c4 <HAL_RCCEx_PeriphCLKConfig+0x2a4>)
 80033fc:	6e61      	ldr	r1, [r4, #100]	; 0x64
 80033fe:	f8d2 3090 	ldr.w	r3, [r2, #144]	; 0x90
 8003402:	f423 1340 	bic.w	r3, r3, #3145728	; 0x300000
 8003406:	430b      	orrs	r3, r1
 8003408:	f8c2 3090 	str.w	r3, [r2, #144]	; 0x90
 800340c:	6823      	ldr	r3, [r4, #0]
 800340e:	065a      	lsls	r2, r3, #25
 8003410:	d509      	bpl.n	8003426 <HAL_RCCEx_PeriphCLKConfig+0x106>
 8003412:	4a6c      	ldr	r2, [pc, #432]	; (80035c4 <HAL_RCCEx_PeriphCLKConfig+0x2a4>)
 8003414:	6be1      	ldr	r1, [r4, #60]	; 0x3c
 8003416:	f8d2 3090 	ldr.w	r3, [r2, #144]	; 0x90
 800341a:	f023 0303 	bic.w	r3, r3, #3
 800341e:	430b      	orrs	r3, r1
 8003420:	f8c2 3090 	str.w	r3, [r2, #144]	; 0x90
 8003424:	6823      	ldr	r3, [r4, #0]
 8003426:	061f      	lsls	r7, r3, #24
 8003428:	d509      	bpl.n	800343e <HAL_RCCEx_PeriphCLKConfig+0x11e>
 800342a:	4a66      	ldr	r2, [pc, #408]	; (80035c4 <HAL_RCCEx_PeriphCLKConfig+0x2a4>)
 800342c:	6c21      	ldr	r1, [r4, #64]	; 0x40
 800342e:	f8d2 3090 	ldr.w	r3, [r2, #144]	; 0x90
 8003432:	f023 030c 	bic.w	r3, r3, #12
 8003436:	430b      	orrs	r3, r1
 8003438:	f8c2 3090 	str.w	r3, [r2, #144]	; 0x90
 800343c:	6823      	ldr	r3, [r4, #0]
 800343e:	05d8      	lsls	r0, r3, #23
 8003440:	d509      	bpl.n	8003456 <HAL_RCCEx_PeriphCLKConfig+0x136>
 8003442:	4a60      	ldr	r2, [pc, #384]	; (80035c4 <HAL_RCCEx_PeriphCLKConfig+0x2a4>)
 8003444:	6c61      	ldr	r1, [r4, #68]	; 0x44
 8003446:	f8d2 3090 	ldr.w	r3, [r2, #144]	; 0x90
 800344a:	f023 0330 	bic.w	r3, r3, #48	; 0x30
 800344e:	430b      	orrs	r3, r1
 8003450:	f8c2 3090 	str.w	r3, [r2, #144]	; 0x90
 8003454:	6823      	ldr	r3, [r4, #0]
 8003456:	0599      	lsls	r1, r3, #22
 8003458:	d509      	bpl.n	800346e <HAL_RCCEx_PeriphCLKConfig+0x14e>
 800345a:	4a5a      	ldr	r2, [pc, #360]	; (80035c4 <HAL_RCCEx_PeriphCLKConfig+0x2a4>)
 800345c:	6ca1      	ldr	r1, [r4, #72]	; 0x48
 800345e:	f8d2 3090 	ldr.w	r3, [r2, #144]	; 0x90
 8003462:	f023 03c0 	bic.w	r3, r3, #192	; 0xc0
 8003466:	430b      	orrs	r3, r1
 8003468:	f8c2 3090 	str.w	r3, [r2, #144]	; 0x90
 800346c:	6823      	ldr	r3, [r4, #0]
 800346e:	055a      	lsls	r2, r3, #21
 8003470:	d509      	bpl.n	8003486 <HAL_RCCEx_PeriphCLKConfig+0x166>
 8003472:	4a54      	ldr	r2, [pc, #336]	; (80035c4 <HAL_RCCEx_PeriphCLKConfig+0x2a4>)
 8003474:	6ce1      	ldr	r1, [r4, #76]	; 0x4c
 8003476:	f8d2 3090 	ldr.w	r3, [r2, #144]	; 0x90
 800347a:	f423 7340 	bic.w	r3, r3, #768	; 0x300
 800347e:	430b      	orrs	r3, r1
 8003480:	f8c2 3090 	str.w	r3, [r2, #144]	; 0x90
 8003484:	6823      	ldr	r3, [r4, #0]
 8003486:	051f      	lsls	r7, r3, #20
 8003488:	d509      	bpl.n	800349e <HAL_RCCEx_PeriphCLKConfig+0x17e>
 800348a:	4a4e      	ldr	r2, [pc, #312]	; (80035c4 <HAL_RCCEx_PeriphCLKConfig+0x2a4>)
 800348c:	6d21      	ldr	r1, [r4, #80]	; 0x50
 800348e:	f8d2 3090 	ldr.w	r3, [r2, #144]	; 0x90
 8003492:	f423 6340 	bic.w	r3, r3, #3072	; 0xc00
 8003496:	430b      	orrs	r3, r1
 8003498:	f8c2 3090 	str.w	r3, [r2, #144]	; 0x90
 800349c:	6823      	ldr	r3, [r4, #0]
 800349e:	04d8      	lsls	r0, r3, #19
 80034a0:	d509      	bpl.n	80034b6 <HAL_RCCEx_PeriphCLKConfig+0x196>
 80034a2:	4a48      	ldr	r2, [pc, #288]	; (80035c4 <HAL_RCCEx_PeriphCLKConfig+0x2a4>)
 80034a4:	6d61      	ldr	r1, [r4, #84]	; 0x54
 80034a6:	f8d2 3090 	ldr.w	r3, [r2, #144]	; 0x90
 80034aa:	f423 5340 	bic.w	r3, r3, #12288	; 0x3000
 80034ae:	430b      	orrs	r3, r1
 80034b0:	f8c2 3090 	str.w	r3, [r2, #144]	; 0x90
 80034b4:	6823      	ldr	r3, [r4, #0]
 80034b6:	0499      	lsls	r1, r3, #18
 80034b8:	d509      	bpl.n	80034ce <HAL_RCCEx_PeriphCLKConfig+0x1ae>
 80034ba:	4a42      	ldr	r2, [pc, #264]	; (80035c4 <HAL_RCCEx_PeriphCLKConfig+0x2a4>)
 80034bc:	6da1      	ldr	r1, [r4, #88]	; 0x58
 80034be:	f8d2 3090 	ldr.w	r3, [r2, #144]	; 0x90
 80034c2:	f423 4340 	bic.w	r3, r3, #49152	; 0xc000
 80034c6:	430b      	orrs	r3, r1
 80034c8:	f8c2 3090 	str.w	r3, [r2, #144]	; 0x90
 80034cc:	6823      	ldr	r3, [r4, #0]
 80034ce:	029a      	lsls	r2, r3, #10
 80034d0:	d50e      	bpl.n	80034f0 <HAL_RCCEx_PeriphCLKConfig+0x1d0>
 80034d2:	4a3c      	ldr	r2, [pc, #240]	; (80035c4 <HAL_RCCEx_PeriphCLKConfig+0x2a4>)
 80034d4:	6f61      	ldr	r1, [r4, #116]	; 0x74
 80034d6:	f8d2 3090 	ldr.w	r3, [r2, #144]	; 0x90
 80034da:	f023 6300 	bic.w	r3, r3, #134217728	; 0x8000000
 80034de:	430b      	orrs	r3, r1
 80034e0:	f8c2 3090 	str.w	r3, [r2, #144]	; 0x90
 80034e4:	6f63      	ldr	r3, [r4, #116]	; 0x74
 80034e6:	f1b3 6f00 	cmp.w	r3, #134217728	; 0x8000000
 80034ea:	6823      	ldr	r3, [r4, #0]
 80034ec:	bf08      	it	eq
 80034ee:	2501      	moveq	r5, #1
 80034f0:	035f      	lsls	r7, r3, #13
 80034f2:	d509      	bpl.n	8003508 <HAL_RCCEx_PeriphCLKConfig+0x1e8>
 80034f4:	4a33      	ldr	r2, [pc, #204]	; (80035c4 <HAL_RCCEx_PeriphCLKConfig+0x2a4>)
 80034f6:	6ee1      	ldr	r1, [r4, #108]	; 0x6c
 80034f8:	f8d2 3090 	ldr.w	r3, [r2, #144]	; 0x90
 80034fc:	f023 7340 	bic.w	r3, r3, #50331648	; 0x3000000
 8003500:	430b      	orrs	r3, r1
 8003502:	f8c2 3090 	str.w	r3, [r2, #144]	; 0x90
 8003506:	6823      	ldr	r3, [r4, #0]
 8003508:	0218      	lsls	r0, r3, #8
 800350a:	d509      	bpl.n	8003520 <HAL_RCCEx_PeriphCLKConfig+0x200>
 800350c:	4a2d      	ldr	r2, [pc, #180]	; (80035c4 <HAL_RCCEx_PeriphCLKConfig+0x2a4>)
 800350e:	6fa1      	ldr	r1, [r4, #120]	; 0x78
 8003510:	f8d2 3090 	ldr.w	r3, [r2, #144]	; 0x90
 8003514:	f023 5380 	bic.w	r3, r3, #268435456	; 0x10000000
 8003518:	430b      	orrs	r3, r1
 800351a:	f8c2 3090 	str.w	r3, [r2, #144]	; 0x90
 800351e:	6823      	ldr	r3, [r4, #0]
 8003520:	0159      	lsls	r1, r3, #5
 8003522:	d451      	bmi.n	80035c8 <HAL_RCCEx_PeriphCLKConfig+0x2a8>
 8003524:	b916      	cbnz	r6, 800352c <HAL_RCCEx_PeriphCLKConfig+0x20c>
 8003526:	6823      	ldr	r3, [r4, #0]
 8003528:	019a      	lsls	r2, r3, #6
 800352a:	d545      	bpl.n	80035b8 <HAL_RCCEx_PeriphCLKConfig+0x298>
 800352c:	4e25      	ldr	r6, [pc, #148]	; (80035c4 <HAL_RCCEx_PeriphCLKConfig+0x2a4>)
 800352e:	6833      	ldr	r3, [r6, #0]
 8003530:	f023 6380 	bic.w	r3, r3, #67108864	; 0x4000000
 8003534:	6033      	str	r3, [r6, #0]
 8003536:	f7fe fbab 	bl	8001c90 <HAL_GetTick>
 800353a:	4607      	mov	r7, r0
 800353c:	e005      	b.n	800354a <HAL_RCCEx_PeriphCLKConfig+0x22a>
 800353e:	f7fe fba7 	bl	8001c90 <HAL_GetTick>
 8003542:	1bc0      	subs	r0, r0, r7
 8003544:	2864      	cmp	r0, #100	; 0x64
 8003546:	f200 809d 	bhi.w	8003684 <HAL_RCCEx_PeriphCLKConfig+0x364>
 800354a:	6833      	ldr	r3, [r6, #0]
 800354c:	011b      	lsls	r3, r3, #4
 800354e:	d4f6      	bmi.n	800353e <HAL_RCCEx_PeriphCLKConfig+0x21e>
 8003550:	6823      	ldr	r3, [r4, #0]
 8003552:	07df      	lsls	r7, r3, #31
 8003554:	d50e      	bpl.n	8003574 <HAL_RCCEx_PeriphCLKConfig+0x254>
 8003556:	6ae2      	ldr	r2, [r4, #44]	; 0x2c
 8003558:	b962      	cbnz	r2, 8003574 <HAL_RCCEx_PeriphCLKConfig+0x254>
 800355a:	68a3      	ldr	r3, [r4, #8]
 800355c:	f8d6 2084 	ldr.w	r2, [r6, #132]	; 0x84
 8003560:	6861      	ldr	r1, [r4, #4]
 8003562:	071b      	lsls	r3, r3, #28
 8003564:	f002 6270 	and.w	r2, r2, #251658240	; 0xf000000
 8003568:	ea43 1381 	orr.w	r3, r3, r1, lsl #6
 800356c:	4313      	orrs	r3, r2
 800356e:	f8c6 3084 	str.w	r3, [r6, #132]	; 0x84
 8003572:	6823      	ldr	r3, [r4, #0]
 8003574:	0318      	lsls	r0, r3, #12
 8003576:	d504      	bpl.n	8003582 <HAL_RCCEx_PeriphCLKConfig+0x262>
 8003578:	6b62      	ldr	r2, [r4, #52]	; 0x34
 800357a:	f5b2 1f80 	cmp.w	r2, #1048576	; 0x100000
 800357e:	f000 80e0 	beq.w	8003742 <HAL_RCCEx_PeriphCLKConfig+0x422>
 8003582:	02d9      	lsls	r1, r3, #11
 8003584:	d504      	bpl.n	8003590 <HAL_RCCEx_PeriphCLKConfig+0x270>
 8003586:	6ba2      	ldr	r2, [r4, #56]	; 0x38
 8003588:	f5b2 0f80 	cmp.w	r2, #4194304	; 0x400000
 800358c:	f000 80d9 	beq.w	8003742 <HAL_RCCEx_PeriphCLKConfig+0x422>
 8003590:	019a      	lsls	r2, r3, #6
 8003592:	f100 80cb 	bmi.w	800372c <HAL_RCCEx_PeriphCLKConfig+0x40c>
 8003596:	4e0b      	ldr	r6, [pc, #44]	; (80035c4 <HAL_RCCEx_PeriphCLKConfig+0x2a4>)
 8003598:	6833      	ldr	r3, [r6, #0]
 800359a:	f043 6380 	orr.w	r3, r3, #67108864	; 0x4000000
 800359e:	6033      	str	r3, [r6, #0]
 80035a0:	f7fe fb76 	bl	8001c90 <HAL_GetTick>
 80035a4:	4607      	mov	r7, r0
 80035a6:	e004      	b.n	80035b2 <HAL_RCCEx_PeriphCLKConfig+0x292>
 80035a8:	f7fe fb72 	bl	8001c90 <HAL_GetTick>
 80035ac:	1bc0      	subs	r0, r0, r7
 80035ae:	2864      	cmp	r0, #100	; 0x64
 80035b0:	d868      	bhi.n	8003684 <HAL_RCCEx_PeriphCLKConfig+0x364>
 80035b2:	6833      	ldr	r3, [r6, #0]
 80035b4:	011b      	lsls	r3, r3, #4
 80035b6:	d5f7      	bpl.n	80035a8 <HAL_RCCEx_PeriphCLKConfig+0x288>
 80035b8:	2d01      	cmp	r5, #1
 80035ba:	d00f      	beq.n	80035dc <HAL_RCCEx_PeriphCLKConfig+0x2bc>
 80035bc:	2000      	movs	r0, #0
 80035be:	b003      	add	sp, #12
 80035c0:	e8bd 83f0 	ldmia.w	sp!, {r4, r5, r6, r7, r8, r9, pc}
 80035c4:	40023800 	.word	0x40023800
 80035c8:	4a7c      	ldr	r2, [pc, #496]	; (80037bc <HAL_RCCEx_PeriphCLKConfig+0x49c>)
 80035ca:	6fe1      	ldr	r1, [r4, #124]	; 0x7c
 80035cc:	f8d2 3090 	ldr.w	r3, [r2, #144]	; 0x90
 80035d0:	f023 5300 	bic.w	r3, r3, #536870912	; 0x20000000
 80035d4:	430b      	orrs	r3, r1
 80035d6:	f8c2 3090 	str.w	r3, [r2, #144]	; 0x90
 80035da:	e7a3      	b.n	8003524 <HAL_RCCEx_PeriphCLKConfig+0x204>
 80035dc:	4d77      	ldr	r5, [pc, #476]	; (80037bc <HAL_RCCEx_PeriphCLKConfig+0x49c>)
 80035de:	682b      	ldr	r3, [r5, #0]
 80035e0:	f023 5380 	bic.w	r3, r3, #268435456	; 0x10000000
 80035e4:	602b      	str	r3, [r5, #0]
 80035e6:	f7fe fb53 	bl	8001c90 <HAL_GetTick>
 80035ea:	4606      	mov	r6, r0
 80035ec:	e004      	b.n	80035f8 <HAL_RCCEx_PeriphCLKConfig+0x2d8>
 80035ee:	f7fe fb4f 	bl	8001c90 <HAL_GetTick>
 80035f2:	1b80      	subs	r0, r0, r6
 80035f4:	2864      	cmp	r0, #100	; 0x64
 80035f6:	d845      	bhi.n	8003684 <HAL_RCCEx_PeriphCLKConfig+0x364>
 80035f8:	682b      	ldr	r3, [r5, #0]
 80035fa:	009f      	lsls	r7, r3, #2
 80035fc:	d4f7      	bmi.n	80035ee <HAL_RCCEx_PeriphCLKConfig+0x2ce>
 80035fe:	6823      	ldr	r3, [r4, #0]
 8003600:	0318      	lsls	r0, r3, #12
 8003602:	f140 80d2 	bpl.w	80037aa <HAL_RCCEx_PeriphCLKConfig+0x48a>
 8003606:	6b62      	ldr	r2, [r4, #52]	; 0x34
 8003608:	2a00      	cmp	r2, #0
 800360a:	f040 80ce 	bne.w	80037aa <HAL_RCCEx_PeriphCLKConfig+0x48a>
 800360e:	4a6b      	ldr	r2, [pc, #428]	; (80037bc <HAL_RCCEx_PeriphCLKConfig+0x49c>)
 8003610:	e9d4 0304 	ldrd	r0, r3, [r4, #16]
 8003614:	f8d2 1088 	ldr.w	r1, [r2, #136]	; 0x88
 8003618:	061b      	lsls	r3, r3, #24
 800361a:	f401 3140 	and.w	r1, r1, #196608	; 0x30000
 800361e:	ea43 1380 	orr.w	r3, r3, r0, lsl #6
 8003622:	430b      	orrs	r3, r1
 8003624:	f8c2 3088 	str.w	r3, [r2, #136]	; 0x88
 8003628:	f8d2 308c 	ldr.w	r3, [r2, #140]	; 0x8c
 800362c:	6a21      	ldr	r1, [r4, #32]
 800362e:	f423 53f8 	bic.w	r3, r3, #7936	; 0x1f00
 8003632:	3901      	subs	r1, #1
 8003634:	ea43 2301 	orr.w	r3, r3, r1, lsl #8
 8003638:	f8c2 308c 	str.w	r3, [r2, #140]	; 0x8c
 800363c:	6823      	ldr	r3, [r4, #0]
 800363e:	029a      	lsls	r2, r3, #10
 8003640:	d510      	bpl.n	8003664 <HAL_RCCEx_PeriphCLKConfig+0x344>
 8003642:	6f63      	ldr	r3, [r4, #116]	; 0x74
 8003644:	f1b3 6f00 	cmp.w	r3, #134217728	; 0x8000000
 8003648:	d10c      	bne.n	8003664 <HAL_RCCEx_PeriphCLKConfig+0x344>
 800364a:	495c      	ldr	r1, [pc, #368]	; (80037bc <HAL_RCCEx_PeriphCLKConfig+0x49c>)
 800364c:	69a3      	ldr	r3, [r4, #24]
 800364e:	6920      	ldr	r0, [r4, #16]
 8003650:	f8d1 2088 	ldr.w	r2, [r1, #136]	; 0x88
 8003654:	041b      	lsls	r3, r3, #16
 8003656:	f002 6270 	and.w	r2, r2, #251658240	; 0xf000000
 800365a:	ea43 1380 	orr.w	r3, r3, r0, lsl #6
 800365e:	4313      	orrs	r3, r2
 8003660:	f8c1 3088 	str.w	r3, [r1, #136]	; 0x88
 8003664:	4c55      	ldr	r4, [pc, #340]	; (80037bc <HAL_RCCEx_PeriphCLKConfig+0x49c>)
 8003666:	6823      	ldr	r3, [r4, #0]
 8003668:	f043 5380 	orr.w	r3, r3, #268435456	; 0x10000000
 800366c:	6023      	str	r3, [r4, #0]
 800366e:	f7fe fb0f 	bl	8001c90 <HAL_GetTick>
 8003672:	4605      	mov	r5, r0
 8003674:	6823      	ldr	r3, [r4, #0]
 8003676:	009b      	lsls	r3, r3, #2
 8003678:	d4a0      	bmi.n	80035bc <HAL_RCCEx_PeriphCLKConfig+0x29c>
 800367a:	f7fe fb09 	bl	8001c90 <HAL_GetTick>
 800367e:	1b40      	subs	r0, r0, r5
 8003680:	2864      	cmp	r0, #100	; 0x64
 8003682:	d9f7      	bls.n	8003674 <HAL_RCCEx_PeriphCLKConfig+0x354>
 8003684:	2003      	movs	r0, #3
 8003686:	b003      	add	sp, #12
 8003688:	e8bd 83f0 	ldmia.w	sp!, {r4, r5, r6, r7, r8, r9, pc}
 800368c:	4b4b      	ldr	r3, [pc, #300]	; (80037bc <HAL_RCCEx_PeriphCLKConfig+0x49c>)
 800368e:	4f4c      	ldr	r7, [pc, #304]	; (80037c0 <HAL_RCCEx_PeriphCLKConfig+0x4a0>)
 8003690:	6c1a      	ldr	r2, [r3, #64]	; 0x40
 8003692:	f042 5280 	orr.w	r2, r2, #268435456	; 0x10000000
 8003696:	641a      	str	r2, [r3, #64]	; 0x40
 8003698:	6c1b      	ldr	r3, [r3, #64]	; 0x40
 800369a:	f003 5380 	and.w	r3, r3, #268435456	; 0x10000000
 800369e:	9301      	str	r3, [sp, #4]
 80036a0:	9b01      	ldr	r3, [sp, #4]
 80036a2:	683b      	ldr	r3, [r7, #0]
 80036a4:	f443 7380 	orr.w	r3, r3, #256	; 0x100
 80036a8:	603b      	str	r3, [r7, #0]
 80036aa:	f7fe faf1 	bl	8001c90 <HAL_GetTick>
 80036ae:	4680      	mov	r8, r0
 80036b0:	e005      	b.n	80036be <HAL_RCCEx_PeriphCLKConfig+0x39e>
 80036b2:	f7fe faed 	bl	8001c90 <HAL_GetTick>
 80036b6:	eba0 0008 	sub.w	r0, r0, r8
 80036ba:	2864      	cmp	r0, #100	; 0x64
 80036bc:	d8e2      	bhi.n	8003684 <HAL_RCCEx_PeriphCLKConfig+0x364>
 80036be:	683b      	ldr	r3, [r7, #0]
 80036c0:	05db      	lsls	r3, r3, #23
 80036c2:	d5f6      	bpl.n	80036b2 <HAL_RCCEx_PeriphCLKConfig+0x392>
 80036c4:	4f3d      	ldr	r7, [pc, #244]	; (80037bc <HAL_RCCEx_PeriphCLKConfig+0x49c>)
 80036c6:	6aa2      	ldr	r2, [r4, #40]	; 0x28
 80036c8:	6f3b      	ldr	r3, [r7, #112]	; 0x70
 80036ca:	f413 7340 	ands.w	r3, r3, #768	; 0x300
 80036ce:	d013      	beq.n	80036f8 <HAL_RCCEx_PeriphCLKConfig+0x3d8>
 80036d0:	f402 7140 	and.w	r1, r2, #768	; 0x300
 80036d4:	4299      	cmp	r1, r3
 80036d6:	d011      	beq.n	80036fc <HAL_RCCEx_PeriphCLKConfig+0x3dc>
 80036d8:	6f3b      	ldr	r3, [r7, #112]	; 0x70
 80036da:	6f3a      	ldr	r2, [r7, #112]	; 0x70
 80036dc:	f423 7340 	bic.w	r3, r3, #768	; 0x300
 80036e0:	f442 3280 	orr.w	r2, r2, #65536	; 0x10000
 80036e4:	673a      	str	r2, [r7, #112]	; 0x70
 80036e6:	6f3a      	ldr	r2, [r7, #112]	; 0x70
 80036e8:	f422 3280 	bic.w	r2, r2, #65536	; 0x10000
 80036ec:	673a      	str	r2, [r7, #112]	; 0x70
 80036ee:	673b      	str	r3, [r7, #112]	; 0x70
 80036f0:	6f3b      	ldr	r3, [r7, #112]	; 0x70
 80036f2:	07d8      	lsls	r0, r3, #31
 80036f4:	d448      	bmi.n	8003788 <HAL_RCCEx_PeriphCLKConfig+0x468>
 80036f6:	6aa2      	ldr	r2, [r4, #40]	; 0x28
 80036f8:	f402 7340 	and.w	r3, r2, #768	; 0x300
 80036fc:	f5b3 7f40 	cmp.w	r3, #768	; 0x300
 8003700:	d039      	beq.n	8003776 <HAL_RCCEx_PeriphCLKConfig+0x456>
 8003702:	4a2e      	ldr	r2, [pc, #184]	; (80037bc <HAL_RCCEx_PeriphCLKConfig+0x49c>)
 8003704:	6893      	ldr	r3, [r2, #8]
 8003706:	f423 13f8 	bic.w	r3, r3, #2031616	; 0x1f0000
 800370a:	6093      	str	r3, [r2, #8]
 800370c:	4a2b      	ldr	r2, [pc, #172]	; (80037bc <HAL_RCCEx_PeriphCLKConfig+0x49c>)
 800370e:	6aa3      	ldr	r3, [r4, #40]	; 0x28
 8003710:	6f11      	ldr	r1, [r2, #112]	; 0x70
 8003712:	f3c3 030b 	ubfx	r3, r3, #0, #12
 8003716:	430b      	orrs	r3, r1
 8003718:	6713      	str	r3, [r2, #112]	; 0x70
 800371a:	6823      	ldr	r3, [r4, #0]
 800371c:	e643      	b.n	80033a6 <HAL_RCCEx_PeriphCLKConfig+0x86>
 800371e:	6823      	ldr	r3, [r4, #0]
 8003720:	2500      	movs	r5, #0
 8003722:	2601      	movs	r6, #1
 8003724:	e627      	b.n	8003376 <HAL_RCCEx_PeriphCLKConfig+0x56>
 8003726:	6823      	ldr	r3, [r4, #0]
 8003728:	2601      	movs	r6, #1
 800372a:	e639      	b.n	80033a0 <HAL_RCCEx_PeriphCLKConfig+0x80>
 800372c:	1d21      	adds	r1, r4, #4
 800372e:	c90e      	ldmia	r1, {r1, r2, r3}
 8003730:	061b      	lsls	r3, r3, #24
 8003732:	ea43 1381 	orr.w	r3, r3, r1, lsl #6
 8003736:	ea43 7302 	orr.w	r3, r3, r2, lsl #28
 800373a:	4a20      	ldr	r2, [pc, #128]	; (80037bc <HAL_RCCEx_PeriphCLKConfig+0x49c>)
 800373c:	f8c2 3084 	str.w	r3, [r2, #132]	; 0x84
 8003740:	e729      	b.n	8003596 <HAL_RCCEx_PeriphCLKConfig+0x276>
 8003742:	4a1e      	ldr	r2, [pc, #120]	; (80037bc <HAL_RCCEx_PeriphCLKConfig+0x49c>)
 8003744:	68e3      	ldr	r3, [r4, #12]
 8003746:	f8d2 1084 	ldr.w	r1, [r2, #132]	; 0x84
 800374a:	6860      	ldr	r0, [r4, #4]
 800374c:	061b      	lsls	r3, r3, #24
 800374e:	f001 41e0 	and.w	r1, r1, #1879048192	; 0x70000000
 8003752:	ea43 1380 	orr.w	r3, r3, r0, lsl #6
 8003756:	430b      	orrs	r3, r1
 8003758:	f8c2 3084 	str.w	r3, [r2, #132]	; 0x84
 800375c:	f8d2 108c 	ldr.w	r1, [r2, #140]	; 0x8c
 8003760:	69e3      	ldr	r3, [r4, #28]
 8003762:	f021 011f 	bic.w	r1, r1, #31
 8003766:	3b01      	subs	r3, #1
 8003768:	430b      	orrs	r3, r1
 800376a:	f8c2 308c 	str.w	r3, [r2, #140]	; 0x8c
 800376e:	6823      	ldr	r3, [r4, #0]
 8003770:	e70e      	b.n	8003590 <HAL_RCCEx_PeriphCLKConfig+0x270>
 8003772:	6823      	ldr	r3, [r4, #0]
 8003774:	e614      	b.n	80033a0 <HAL_RCCEx_PeriphCLKConfig+0x80>
 8003776:	4811      	ldr	r0, [pc, #68]	; (80037bc <HAL_RCCEx_PeriphCLKConfig+0x49c>)
 8003778:	4912      	ldr	r1, [pc, #72]	; (80037c4 <HAL_RCCEx_PeriphCLKConfig+0x4a4>)
 800377a:	6883      	ldr	r3, [r0, #8]
 800377c:	4011      	ands	r1, r2
 800377e:	f423 13f8 	bic.w	r3, r3, #2031616	; 0x1f0000
 8003782:	430b      	orrs	r3, r1
 8003784:	6083      	str	r3, [r0, #8]
 8003786:	e7c1      	b.n	800370c <HAL_RCCEx_PeriphCLKConfig+0x3ec>
 8003788:	f7fe fa82 	bl	8001c90 <HAL_GetTick>
 800378c:	f241 3988 	movw	r9, #5000	; 0x1388
 8003790:	4680      	mov	r8, r0
 8003792:	e006      	b.n	80037a2 <HAL_RCCEx_PeriphCLKConfig+0x482>
 8003794:	f7fe fa7c 	bl	8001c90 <HAL_GetTick>
 8003798:	eba0 0008 	sub.w	r0, r0, r8
 800379c:	4548      	cmp	r0, r9
 800379e:	f63f af71 	bhi.w	8003684 <HAL_RCCEx_PeriphCLKConfig+0x364>
 80037a2:	6f3b      	ldr	r3, [r7, #112]	; 0x70
 80037a4:	0799      	lsls	r1, r3, #30
 80037a6:	d5f5      	bpl.n	8003794 <HAL_RCCEx_PeriphCLKConfig+0x474>
 80037a8:	e7a5      	b.n	80036f6 <HAL_RCCEx_PeriphCLKConfig+0x3d6>
 80037aa:	02d9      	lsls	r1, r3, #11
 80037ac:	f57f af47 	bpl.w	800363e <HAL_RCCEx_PeriphCLKConfig+0x31e>
 80037b0:	6ba2      	ldr	r2, [r4, #56]	; 0x38
 80037b2:	2a00      	cmp	r2, #0
 80037b4:	f47f af43 	bne.w	800363e <HAL_RCCEx_PeriphCLKConfig+0x31e>
 80037b8:	e729      	b.n	800360e <HAL_RCCEx_PeriphCLKConfig+0x2ee>
 80037ba:	bf00      	nop
 80037bc:	40023800 	.word	0x40023800
 80037c0:	40007000 	.word	0x40007000
 80037c4:	0ffffcff 	.word	0x0ffffcff

080037c8 <HAL_TIM_Base_MspInit>:
 80037c8:	4770      	bx	lr
 80037ca:	bf00      	nop

080037cc <HAL_TIM_Base_Init>:
 80037cc:	2800      	cmp	r0, #0
 80037ce:	f000 809e 	beq.w	800390e <HAL_TIM_Base_Init+0x142>
 80037d2:	b570      	push	{r4, r5, r6, lr}
 80037d4:	f890 303d 	ldrb.w	r3, [r0, #61]	; 0x3d
 80037d8:	4604      	mov	r4, r0
 80037da:	f003 02ff 	and.w	r2, r3, #255	; 0xff
 80037de:	2b00      	cmp	r3, #0
 80037e0:	d07c      	beq.n	80038dc <HAL_TIM_Base_Init+0x110>
 80037e2:	6822      	ldr	r2, [r4, #0]
 80037e4:	2302      	movs	r3, #2
 80037e6:	494c      	ldr	r1, [pc, #304]	; (8003918 <HAL_TIM_Base_Init+0x14c>)
 80037e8:	f1b2 4f80 	cmp.w	r2, #1073741824	; 0x40000000
 80037ec:	f884 303d 	strb.w	r3, [r4, #61]	; 0x3d
 80037f0:	eba2 0101 	sub.w	r1, r2, r1
 80037f4:	6813      	ldr	r3, [r2, #0]
 80037f6:	fab1 f181 	clz	r1, r1
 80037fa:	ea4f 1151 	mov.w	r1, r1, lsr #5
 80037fe:	d036      	beq.n	800386e <HAL_TIM_Base_Init+0xa2>
 8003800:	2900      	cmp	r1, #0
 8003802:	d134      	bne.n	800386e <HAL_TIM_Base_Init+0xa2>
 8003804:	4d45      	ldr	r5, [pc, #276]	; (800391c <HAL_TIM_Base_Init+0x150>)
 8003806:	4846      	ldr	r0, [pc, #280]	; (8003920 <HAL_TIM_Base_Init+0x154>)
 8003808:	4282      	cmp	r2, r0
 800380a:	bf18      	it	ne
 800380c:	42aa      	cmpne	r2, r5
 800380e:	d06a      	beq.n	80038e6 <HAL_TIM_Base_Init+0x11a>
 8003810:	f505 3580 	add.w	r5, r5, #65536	; 0x10000
 8003814:	f500 6080 	add.w	r0, r0, #1024	; 0x400
 8003818:	1b55      	subs	r5, r2, r5
 800381a:	4282      	cmp	r2, r0
 800381c:	fab5 f585 	clz	r5, r5
 8003820:	ea4f 1555 	mov.w	r5, r5, lsr #5
 8003824:	d069      	beq.n	80038fa <HAL_TIM_Base_Init+0x12e>
 8003826:	2d00      	cmp	r5, #0
 8003828:	d167      	bne.n	80038fa <HAL_TIM_Base_Init+0x12e>
 800382a:	4d3e      	ldr	r5, [pc, #248]	; (8003924 <HAL_TIM_Base_Init+0x158>)
 800382c:	483e      	ldr	r0, [pc, #248]	; (8003928 <HAL_TIM_Base_Init+0x15c>)
 800382e:	4282      	cmp	r2, r0
 8003830:	bf18      	it	ne
 8003832:	42aa      	cmpne	r2, r5
 8003834:	bf0c      	ite	eq
 8003836:	2501      	moveq	r5, #1
 8003838:	2500      	movne	r5, #0
 800383a:	d06a      	beq.n	8003912 <HAL_TIM_Base_Init+0x146>
 800383c:	4e3b      	ldr	r6, [pc, #236]	; (800392c <HAL_TIM_Base_Init+0x160>)
 800383e:	f5a0 3096 	sub.w	r0, r0, #76800	; 0x12c00
 8003842:	4282      	cmp	r2, r0
 8003844:	bf18      	it	ne
 8003846:	42b2      	cmpne	r2, r6
 8003848:	d01a      	beq.n	8003880 <HAL_TIM_Base_Init+0xb4>
 800384a:	f500 6080 	add.w	r0, r0, #1024	; 0x400
 800384e:	4282      	cmp	r2, r0
 8003850:	d05f      	beq.n	8003912 <HAL_TIM_Base_Init+0x146>
 8003852:	f500 6080 	add.w	r0, r0, #1024	; 0x400
 8003856:	4282      	cmp	r2, r0
 8003858:	d05b      	beq.n	8003912 <HAL_TIM_Base_Init+0x146>
 800385a:	69a1      	ldr	r1, [r4, #24]
 800385c:	f023 0380 	bic.w	r3, r3, #128	; 0x80
 8003860:	430b      	orrs	r3, r1
 8003862:	6013      	str	r3, [r2, #0]
 8003864:	68e3      	ldr	r3, [r4, #12]
 8003866:	62d3      	str	r3, [r2, #44]	; 0x2c
 8003868:	6863      	ldr	r3, [r4, #4]
 800386a:	6293      	str	r3, [r2, #40]	; 0x28
 800386c:	e017      	b.n	800389e <HAL_TIM_Base_Init+0xd2>
 800386e:	4d30      	ldr	r5, [pc, #192]	; (8003930 <HAL_TIM_Base_Init+0x164>)
 8003870:	f023 0370 	bic.w	r3, r3, #112	; 0x70
 8003874:	68a0      	ldr	r0, [r4, #8]
 8003876:	1b55      	subs	r5, r2, r5
 8003878:	4303      	orrs	r3, r0
 800387a:	fab5 f585 	clz	r5, r5
 800387e:	096d      	lsrs	r5, r5, #5
 8003880:	6920      	ldr	r0, [r4, #16]
 8003882:	f423 7340 	bic.w	r3, r3, #768	; 0x300
 8003886:	4303      	orrs	r3, r0
 8003888:	69a0      	ldr	r0, [r4, #24]
 800388a:	f023 0380 	bic.w	r3, r3, #128	; 0x80
 800388e:	4303      	orrs	r3, r0
 8003890:	6013      	str	r3, [r2, #0]
 8003892:	68e3      	ldr	r3, [r4, #12]
 8003894:	62d3      	str	r3, [r2, #44]	; 0x2c
 8003896:	6863      	ldr	r3, [r4, #4]
 8003898:	6293      	str	r3, [r2, #40]	; 0x28
 800389a:	b9e1      	cbnz	r1, 80038d6 <HAL_TIM_Base_Init+0x10a>
 800389c:	b9dd      	cbnz	r5, 80038d6 <HAL_TIM_Base_Init+0x10a>
 800389e:	2301      	movs	r3, #1
 80038a0:	2000      	movs	r0, #0
 80038a2:	6153      	str	r3, [r2, #20]
 80038a4:	f884 3048 	strb.w	r3, [r4, #72]	; 0x48
 80038a8:	f884 303e 	strb.w	r3, [r4, #62]	; 0x3e
 80038ac:	f884 303f 	strb.w	r3, [r4, #63]	; 0x3f
 80038b0:	f884 3040 	strb.w	r3, [r4, #64]	; 0x40
 80038b4:	f884 3041 	strb.w	r3, [r4, #65]	; 0x41
 80038b8:	f884 3042 	strb.w	r3, [r4, #66]	; 0x42
 80038bc:	f884 3043 	strb.w	r3, [r4, #67]	; 0x43
 80038c0:	f884 3044 	strb.w	r3, [r4, #68]	; 0x44
 80038c4:	f884 3045 	strb.w	r3, [r4, #69]	; 0x45
 80038c8:	f884 3046 	strb.w	r3, [r4, #70]	; 0x46
 80038cc:	f884 3047 	strb.w	r3, [r4, #71]	; 0x47
 80038d0:	f884 303d 	strb.w	r3, [r4, #61]	; 0x3d
 80038d4:	bd70      	pop	{r4, r5, r6, pc}
 80038d6:	6963      	ldr	r3, [r4, #20]
 80038d8:	6313      	str	r3, [r2, #48]	; 0x30
 80038da:	e7e0      	b.n	800389e <HAL_TIM_Base_Init+0xd2>
 80038dc:	f880 203c 	strb.w	r2, [r0, #60]	; 0x3c
 80038e0:	f7ff ff72 	bl	80037c8 <HAL_TIM_Base_MspInit>
 80038e4:	e77d      	b.n	80037e2 <HAL_TIM_Base_Init+0x16>
 80038e6:	4d12      	ldr	r5, [pc, #72]	; (8003930 <HAL_TIM_Base_Init+0x164>)
 80038e8:	f023 0370 	bic.w	r3, r3, #112	; 0x70
 80038ec:	68a0      	ldr	r0, [r4, #8]
 80038ee:	1b55      	subs	r5, r2, r5
 80038f0:	4303      	orrs	r3, r0
 80038f2:	fab5 f585 	clz	r5, r5
 80038f6:	096d      	lsrs	r5, r5, #5
 80038f8:	e7c2      	b.n	8003880 <HAL_TIM_Base_Init+0xb4>
 80038fa:	68a0      	ldr	r0, [r4, #8]
 80038fc:	f023 0370 	bic.w	r3, r3, #112	; 0x70
 8003900:	4303      	orrs	r3, r0
 8003902:	480c      	ldr	r0, [pc, #48]	; (8003934 <HAL_TIM_Base_Init+0x168>)
 8003904:	4282      	cmp	r2, r0
 8003906:	d0bb      	beq.n	8003880 <HAL_TIM_Base_Init+0xb4>
 8003908:	2d00      	cmp	r5, #0
 800390a:	d1b9      	bne.n	8003880 <HAL_TIM_Base_Init+0xb4>
 800390c:	e78d      	b.n	800382a <HAL_TIM_Base_Init+0x5e>
 800390e:	2001      	movs	r0, #1
 8003910:	4770      	bx	lr
 8003912:	2500      	movs	r5, #0
 8003914:	e7b4      	b.n	8003880 <HAL_TIM_Base_Init+0xb4>
 8003916:	bf00      	nop
 8003918:	40010000 	.word	0x40010000
 800391c:	40000400 	.word	0x40000400
 8003920:	40000800 	.word	0x40000800
 8003924:	40014000 	.word	0x40014000
 8003928:	40014400 	.word	0x40014400
 800392c:	40014800 	.word	0x40014800
 8003930:	40010400 	.word	0x40010400
 8003934:	40000c00 	.word	0x40000c00

08003938 <HAL_TIM_Base_Start_IT>:
 8003938:	f890 303d 	ldrb.w	r3, [r0, #61]	; 0x3d
 800393c:	2b01      	cmp	r3, #1
 800393e:	d142      	bne.n	80039c6 <HAL_TIM_Base_Start_IT+0x8e>
 8003940:	2202      	movs	r2, #2
 8003942:	4b26      	ldr	r3, [pc, #152]	; (80039dc <HAL_TIM_Base_Start_IT+0xa4>)
 8003944:	b430      	push	{r4, r5}
 8003946:	6801      	ldr	r1, [r0, #0]
 8003948:	f880 203d 	strb.w	r2, [r0, #61]	; 0x3d
 800394c:	68ca      	ldr	r2, [r1, #12]
 800394e:	4d24      	ldr	r5, [pc, #144]	; (80039e0 <HAL_TIM_Base_Start_IT+0xa8>)
 8003950:	f042 0201 	orr.w	r2, r2, #1
 8003954:	4c23      	ldr	r4, [pc, #140]	; (80039e4 <HAL_TIM_Base_Start_IT+0xac>)
 8003956:	60ca      	str	r2, [r1, #12]
 8003958:	6802      	ldr	r2, [r0, #0]
 800395a:	4923      	ldr	r1, [pc, #140]	; (80039e8 <HAL_TIM_Base_Start_IT+0xb0>)
 800395c:	f1b2 4f80 	cmp.w	r2, #1073741824	; 0x40000000
 8003960:	bf18      	it	ne
 8003962:	429a      	cmpne	r2, r3
 8003964:	4821      	ldr	r0, [pc, #132]	; (80039ec <HAL_TIM_Base_Start_IT+0xb4>)
 8003966:	bf0c      	ite	eq
 8003968:	2301      	moveq	r3, #1
 800396a:	2300      	movne	r3, #0
 800396c:	42aa      	cmp	r2, r5
 800396e:	bf08      	it	eq
 8003970:	f043 0301 	orreq.w	r3, r3, #1
 8003974:	428a      	cmp	r2, r1
 8003976:	bf08      	it	eq
 8003978:	f043 0301 	orreq.w	r3, r3, #1
 800397c:	f501 319c 	add.w	r1, r1, #79872	; 0x13800
 8003980:	42a2      	cmp	r2, r4
 8003982:	bf08      	it	eq
 8003984:	f043 0301 	orreq.w	r3, r3, #1
 8003988:	4282      	cmp	r2, r0
 800398a:	bf08      	it	eq
 800398c:	f043 0301 	orreq.w	r3, r3, #1
 8003990:	428a      	cmp	r2, r1
 8003992:	bf08      	it	eq
 8003994:	f043 0301 	orreq.w	r3, r3, #1
 8003998:	b933      	cbnz	r3, 80039a8 <HAL_TIM_Base_Start_IT+0x70>
 800399a:	f5a0 406c 	sub.w	r0, r0, #60416	; 0xec00
 800399e:	1a10      	subs	r0, r2, r0
 80039a0:	fab0 f080 	clz	r0, r0
 80039a4:	0940      	lsrs	r0, r0, #5
 80039a6:	b198      	cbz	r0, 80039d0 <HAL_TIM_Base_Start_IT+0x98>
 80039a8:	6891      	ldr	r1, [r2, #8]
 80039aa:	4b11      	ldr	r3, [pc, #68]	; (80039f0 <HAL_TIM_Base_Start_IT+0xb8>)
 80039ac:	400b      	ands	r3, r1
 80039ae:	2b06      	cmp	r3, #6
 80039b0:	d00b      	beq.n	80039ca <HAL_TIM_Base_Start_IT+0x92>
 80039b2:	f5b3 3f80 	cmp.w	r3, #65536	; 0x10000
 80039b6:	d008      	beq.n	80039ca <HAL_TIM_Base_Start_IT+0x92>
 80039b8:	6813      	ldr	r3, [r2, #0]
 80039ba:	2000      	movs	r0, #0
 80039bc:	f043 0301 	orr.w	r3, r3, #1
 80039c0:	6013      	str	r3, [r2, #0]
 80039c2:	bc30      	pop	{r4, r5}
 80039c4:	4770      	bx	lr
 80039c6:	2001      	movs	r0, #1
 80039c8:	4770      	bx	lr
 80039ca:	2000      	movs	r0, #0
 80039cc:	bc30      	pop	{r4, r5}
 80039ce:	4770      	bx	lr
 80039d0:	6813      	ldr	r3, [r2, #0]
 80039d2:	f043 0301 	orr.w	r3, r3, #1
 80039d6:	6013      	str	r3, [r2, #0]
 80039d8:	e7f3      	b.n	80039c2 <HAL_TIM_Base_Start_IT+0x8a>
 80039da:	bf00      	nop
 80039dc:	40010000 	.word	0x40010000
 80039e0:	40000400 	.word	0x40000400
 80039e4:	40000c00 	.word	0x40000c00
 80039e8:	40000800 	.word	0x40000800
 80039ec:	40010400 	.word	0x40010400
 80039f0:	00010007 	.word	0x00010007

080039f4 <HAL_TIM_OC_DelayElapsedCallback>:
 80039f4:	4770      	bx	lr
 80039f6:	bf00      	nop

080039f8 <HAL_TIM_IC_CaptureCallback>:
 80039f8:	4770      	bx	lr
 80039fa:	bf00      	nop

080039fc <HAL_TIM_PWM_PulseFinishedCallback>:
 80039fc:	4770      	bx	lr
 80039fe:	bf00      	nop

08003a00 <HAL_TIM_TriggerCallback>:
 8003a00:	4770      	bx	lr
 8003a02:	bf00      	nop

08003a04 <HAL_TIM_IRQHandler>:
 8003a04:	b510      	push	{r4, lr}
 8003a06:	6803      	ldr	r3, [r0, #0]
 8003a08:	4604      	mov	r4, r0
 8003a0a:	691a      	ldr	r2, [r3, #16]
 8003a0c:	0791      	lsls	r1, r2, #30
 8003a0e:	d502      	bpl.n	8003a16 <HAL_TIM_IRQHandler+0x12>
 8003a10:	68da      	ldr	r2, [r3, #12]
 8003a12:	0792      	lsls	r2, r2, #30
 8003a14:	d46b      	bmi.n	8003aee <HAL_TIM_IRQHandler+0xea>
 8003a16:	691a      	ldr	r2, [r3, #16]
 8003a18:	0752      	lsls	r2, r2, #29
 8003a1a:	d502      	bpl.n	8003a22 <HAL_TIM_IRQHandler+0x1e>
 8003a1c:	68da      	ldr	r2, [r3, #12]
 8003a1e:	0750      	lsls	r0, r2, #29
 8003a20:	d451      	bmi.n	8003ac6 <HAL_TIM_IRQHandler+0xc2>
 8003a22:	691a      	ldr	r2, [r3, #16]
 8003a24:	0711      	lsls	r1, r2, #28
 8003a26:	d502      	bpl.n	8003a2e <HAL_TIM_IRQHandler+0x2a>
 8003a28:	68da      	ldr	r2, [r3, #12]
 8003a2a:	0712      	lsls	r2, r2, #28
 8003a2c:	d438      	bmi.n	8003aa0 <HAL_TIM_IRQHandler+0x9c>
 8003a2e:	691a      	ldr	r2, [r3, #16]
 8003a30:	06d0      	lsls	r0, r2, #27
 8003a32:	d502      	bpl.n	8003a3a <HAL_TIM_IRQHandler+0x36>
 8003a34:	68da      	ldr	r2, [r3, #12]
 8003a36:	06d1      	lsls	r1, r2, #27
 8003a38:	d41e      	bmi.n	8003a78 <HAL_TIM_IRQHandler+0x74>
 8003a3a:	691a      	ldr	r2, [r3, #16]
 8003a3c:	07d2      	lsls	r2, r2, #31
 8003a3e:	d502      	bpl.n	8003a46 <HAL_TIM_IRQHandler+0x42>
 8003a40:	68da      	ldr	r2, [r3, #12]
 8003a42:	07d0      	lsls	r0, r2, #31
 8003a44:	d46d      	bmi.n	8003b22 <HAL_TIM_IRQHandler+0x11e>
 8003a46:	691a      	ldr	r2, [r3, #16]
 8003a48:	0611      	lsls	r1, r2, #24
 8003a4a:	d502      	bpl.n	8003a52 <HAL_TIM_IRQHandler+0x4e>
 8003a4c:	68da      	ldr	r2, [r3, #12]
 8003a4e:	0612      	lsls	r2, r2, #24
 8003a50:	d46f      	bmi.n	8003b32 <HAL_TIM_IRQHandler+0x12e>
 8003a52:	691a      	ldr	r2, [r3, #16]
 8003a54:	05d0      	lsls	r0, r2, #23
 8003a56:	d502      	bpl.n	8003a5e <HAL_TIM_IRQHandler+0x5a>
 8003a58:	68da      	ldr	r2, [r3, #12]
 8003a5a:	0611      	lsls	r1, r2, #24
 8003a5c:	d471      	bmi.n	8003b42 <HAL_TIM_IRQHandler+0x13e>
 8003a5e:	691a      	ldr	r2, [r3, #16]
 8003a60:	0652      	lsls	r2, r2, #25
 8003a62:	d502      	bpl.n	8003a6a <HAL_TIM_IRQHandler+0x66>
 8003a64:	68da      	ldr	r2, [r3, #12]
 8003a66:	0650      	lsls	r0, r2, #25
 8003a68:	d473      	bmi.n	8003b52 <HAL_TIM_IRQHandler+0x14e>
 8003a6a:	691a      	ldr	r2, [r3, #16]
 8003a6c:	0691      	lsls	r1, r2, #26
 8003a6e:	d502      	bpl.n	8003a76 <HAL_TIM_IRQHandler+0x72>
 8003a70:	68da      	ldr	r2, [r3, #12]
 8003a72:	0692      	lsls	r2, r2, #26
 8003a74:	d44d      	bmi.n	8003b12 <HAL_TIM_IRQHandler+0x10e>
 8003a76:	bd10      	pop	{r4, pc}
 8003a78:	f06f 0110 	mvn.w	r1, #16
 8003a7c:	2208      	movs	r2, #8
 8003a7e:	4620      	mov	r0, r4
 8003a80:	6119      	str	r1, [r3, #16]
 8003a82:	6823      	ldr	r3, [r4, #0]
 8003a84:	7722      	strb	r2, [r4, #28]
 8003a86:	69db      	ldr	r3, [r3, #28]
 8003a88:	f413 7f40 	tst.w	r3, #768	; 0x300
 8003a8c:	d172      	bne.n	8003b74 <HAL_TIM_IRQHandler+0x170>
 8003a8e:	f7ff ffb1 	bl	80039f4 <HAL_TIM_OC_DelayElapsedCallback>
 8003a92:	4620      	mov	r0, r4
 8003a94:	f7ff ffb2 	bl	80039fc <HAL_TIM_PWM_PulseFinishedCallback>
 8003a98:	2200      	movs	r2, #0
 8003a9a:	6823      	ldr	r3, [r4, #0]
 8003a9c:	7722      	strb	r2, [r4, #28]
 8003a9e:	e7cc      	b.n	8003a3a <HAL_TIM_IRQHandler+0x36>
 8003aa0:	f06f 0108 	mvn.w	r1, #8
 8003aa4:	2204      	movs	r2, #4
 8003aa6:	4620      	mov	r0, r4
 8003aa8:	6119      	str	r1, [r3, #16]
 8003aaa:	6823      	ldr	r3, [r4, #0]
 8003aac:	7722      	strb	r2, [r4, #28]
 8003aae:	69db      	ldr	r3, [r3, #28]
 8003ab0:	079b      	lsls	r3, r3, #30
 8003ab2:	d15c      	bne.n	8003b6e <HAL_TIM_IRQHandler+0x16a>
 8003ab4:	f7ff ff9e 	bl	80039f4 <HAL_TIM_OC_DelayElapsedCallback>
 8003ab8:	4620      	mov	r0, r4
 8003aba:	f7ff ff9f 	bl	80039fc <HAL_TIM_PWM_PulseFinishedCallback>
 8003abe:	2200      	movs	r2, #0
 8003ac0:	6823      	ldr	r3, [r4, #0]
 8003ac2:	7722      	strb	r2, [r4, #28]
 8003ac4:	e7b3      	b.n	8003a2e <HAL_TIM_IRQHandler+0x2a>
 8003ac6:	f06f 0104 	mvn.w	r1, #4
 8003aca:	2202      	movs	r2, #2
 8003acc:	4620      	mov	r0, r4
 8003ace:	6119      	str	r1, [r3, #16]
 8003ad0:	6823      	ldr	r3, [r4, #0]
 8003ad2:	7722      	strb	r2, [r4, #28]
 8003ad4:	699b      	ldr	r3, [r3, #24]
 8003ad6:	f413 7f40 	tst.w	r3, #768	; 0x300
 8003ada:	d145      	bne.n	8003b68 <HAL_TIM_IRQHandler+0x164>
 8003adc:	f7ff ff8a 	bl	80039f4 <HAL_TIM_OC_DelayElapsedCallback>
 8003ae0:	4620      	mov	r0, r4
 8003ae2:	f7ff ff8b 	bl	80039fc <HAL_TIM_PWM_PulseFinishedCallback>
 8003ae6:	2200      	movs	r2, #0
 8003ae8:	6823      	ldr	r3, [r4, #0]
 8003aea:	7722      	strb	r2, [r4, #28]
 8003aec:	e799      	b.n	8003a22 <HAL_TIM_IRQHandler+0x1e>
 8003aee:	f06f 0102 	mvn.w	r1, #2
 8003af2:	2201      	movs	r2, #1
 8003af4:	6119      	str	r1, [r3, #16]
 8003af6:	6803      	ldr	r3, [r0, #0]
 8003af8:	7702      	strb	r2, [r0, #28]
 8003afa:	699b      	ldr	r3, [r3, #24]
 8003afc:	0799      	lsls	r1, r3, #30
 8003afe:	d130      	bne.n	8003b62 <HAL_TIM_IRQHandler+0x15e>
 8003b00:	f7ff ff78 	bl	80039f4 <HAL_TIM_OC_DelayElapsedCallback>
 8003b04:	4620      	mov	r0, r4
 8003b06:	f7ff ff79 	bl	80039fc <HAL_TIM_PWM_PulseFinishedCallback>
 8003b0a:	2200      	movs	r2, #0
 8003b0c:	6823      	ldr	r3, [r4, #0]
 8003b0e:	7722      	strb	r2, [r4, #28]
 8003b10:	e781      	b.n	8003a16 <HAL_TIM_IRQHandler+0x12>
 8003b12:	f06f 0220 	mvn.w	r2, #32
 8003b16:	4620      	mov	r0, r4
 8003b18:	611a      	str	r2, [r3, #16]
 8003b1a:	e8bd 4010 	ldmia.w	sp!, {r4, lr}
 8003b1e:	f000 b82d 	b.w	8003b7c <HAL_TIMEx_CommutCallback>
 8003b22:	f06f 0201 	mvn.w	r2, #1
 8003b26:	4620      	mov	r0, r4
 8003b28:	611a      	str	r2, [r3, #16]
 8003b2a:	f7fd fd99 	bl	8001660 <HAL_TIM_PeriodElapsedCallback>
 8003b2e:	6823      	ldr	r3, [r4, #0]
 8003b30:	e789      	b.n	8003a46 <HAL_TIM_IRQHandler+0x42>
 8003b32:	f06f 0280 	mvn.w	r2, #128	; 0x80
 8003b36:	4620      	mov	r0, r4
 8003b38:	611a      	str	r2, [r3, #16]
 8003b3a:	f000 f821 	bl	8003b80 <HAL_TIMEx_BreakCallback>
 8003b3e:	6823      	ldr	r3, [r4, #0]
 8003b40:	e787      	b.n	8003a52 <HAL_TIM_IRQHandler+0x4e>
 8003b42:	f46f 7280 	mvn.w	r2, #256	; 0x100
 8003b46:	4620      	mov	r0, r4
 8003b48:	611a      	str	r2, [r3, #16]
 8003b4a:	f000 f81b 	bl	8003b84 <HAL_TIMEx_Break2Callback>
 8003b4e:	6823      	ldr	r3, [r4, #0]
 8003b50:	e785      	b.n	8003a5e <HAL_TIM_IRQHandler+0x5a>
 8003b52:	f06f 0240 	mvn.w	r2, #64	; 0x40
 8003b56:	4620      	mov	r0, r4
 8003b58:	611a      	str	r2, [r3, #16]
 8003b5a:	f7ff ff51 	bl	8003a00 <HAL_TIM_TriggerCallback>
 8003b5e:	6823      	ldr	r3, [r4, #0]
 8003b60:	e783      	b.n	8003a6a <HAL_TIM_IRQHandler+0x66>
 8003b62:	f7ff ff49 	bl	80039f8 <HAL_TIM_IC_CaptureCallback>
 8003b66:	e7d0      	b.n	8003b0a <HAL_TIM_IRQHandler+0x106>
 8003b68:	f7ff ff46 	bl	80039f8 <HAL_TIM_IC_CaptureCallback>
 8003b6c:	e7bb      	b.n	8003ae6 <HAL_TIM_IRQHandler+0xe2>
 8003b6e:	f7ff ff43 	bl	80039f8 <HAL_TIM_IC_CaptureCallback>
 8003b72:	e7a4      	b.n	8003abe <HAL_TIM_IRQHandler+0xba>
 8003b74:	f7ff ff40 	bl	80039f8 <HAL_TIM_IC_CaptureCallback>
 8003b78:	e78e      	b.n	8003a98 <HAL_TIM_IRQHandler+0x94>
 8003b7a:	bf00      	nop

08003b7c <HAL_TIMEx_CommutCallback>:
 8003b7c:	4770      	bx	lr
 8003b7e:	bf00      	nop

08003b80 <HAL_TIMEx_BreakCallback>:
 8003b80:	4770      	bx	lr
 8003b82:	bf00      	nop

08003b84 <HAL_TIMEx_Break2Callback>:
 8003b84:	4770      	bx	lr
 8003b86:	bf00      	nop

08003b88 <HAL_UART_Receive>:
 8003b88:	e92d 47f0 	stmdb	sp!, {r4, r5, r6, r7, r8, r9, sl, lr}
 8003b8c:	461e      	mov	r6, r3
 8003b8e:	f8d0 3080 	ldr.w	r3, [r0, #128]	; 0x80
 8003b92:	2b20      	cmp	r3, #32
 8003b94:	d149      	bne.n	8003c2a <HAL_UART_Receive+0xa2>
 8003b96:	468a      	mov	sl, r1
 8003b98:	2900      	cmp	r1, #0
 8003b9a:	d043      	beq.n	8003c24 <HAL_UART_Receive+0x9c>
 8003b9c:	fab2 f782 	clz	r7, r2
 8003ba0:	4614      	mov	r4, r2
 8003ba2:	097f      	lsrs	r7, r7, #5
 8003ba4:	2a00      	cmp	r2, #0
 8003ba6:	d03d      	beq.n	8003c24 <HAL_UART_Receive+0x9c>
 8003ba8:	2322      	movs	r3, #34	; 0x22
 8003baa:	4605      	mov	r5, r0
 8003bac:	f8c0 7084 	str.w	r7, [r0, #132]	; 0x84
 8003bb0:	f8c0 3080 	str.w	r3, [r0, #128]	; 0x80
 8003bb4:	6607      	str	r7, [r0, #96]	; 0x60
 8003bb6:	f7fe f86b 	bl	8001c90 <HAL_GetTick>
 8003bba:	68ab      	ldr	r3, [r5, #8]
 8003bbc:	4680      	mov	r8, r0
 8003bbe:	f8a5 4058 	strh.w	r4, [r5, #88]	; 0x58
 8003bc2:	f5b3 5f80 	cmp.w	r3, #4096	; 0x1000
 8003bc6:	f8a5 405a 	strh.w	r4, [r5, #90]	; 0x5a
 8003bca:	f000 808c 	beq.w	8003ce6 <HAL_UART_Receive+0x15e>
 8003bce:	b37b      	cbz	r3, 8003c30 <HAL_UART_Receive+0xa8>
 8003bd0:	f1b3 5f80 	cmp.w	r3, #268435456	; 0x10000000
 8003bd4:	f000 8099 	beq.w	8003d0a <HAL_UART_Receive+0x182>
 8003bd8:	f8a5 705c 	strh.w	r7, [r5, #92]	; 0x5c
 8003bdc:	f04f 0900 	mov.w	r9, #0
 8003be0:	f8b5 305a 	ldrh.w	r3, [r5, #90]	; 0x5a
 8003be4:	b29b      	uxth	r3, r3
 8003be6:	b1bb      	cbz	r3, 8003c18 <HAL_UART_Receive+0x90>
 8003be8:	682c      	ldr	r4, [r5, #0]
 8003bea:	1c71      	adds	r1, r6, #1
 8003bec:	d127      	bne.n	8003c3e <HAL_UART_Receive+0xb6>
 8003bee:	69e2      	ldr	r2, [r4, #28]
 8003bf0:	0692      	lsls	r2, r2, #26
 8003bf2:	d5fc      	bpl.n	8003bee <HAL_UART_Receive+0x66>
 8003bf4:	6a63      	ldr	r3, [r4, #36]	; 0x24
 8003bf6:	403b      	ands	r3, r7
 8003bf8:	f1ba 0f00 	cmp.w	sl, #0
 8003bfc:	d070      	beq.n	8003ce0 <HAL_UART_Receive+0x158>
 8003bfe:	f80a 3b01 	strb.w	r3, [sl], #1
 8003c02:	f8b5 305a 	ldrh.w	r3, [r5, #90]	; 0x5a
 8003c06:	3b01      	subs	r3, #1
 8003c08:	b29b      	uxth	r3, r3
 8003c0a:	f8a5 305a 	strh.w	r3, [r5, #90]	; 0x5a
 8003c0e:	f8b5 305a 	ldrh.w	r3, [r5, #90]	; 0x5a
 8003c12:	b29b      	uxth	r3, r3
 8003c14:	2b00      	cmp	r3, #0
 8003c16:	d1e7      	bne.n	8003be8 <HAL_UART_Receive+0x60>
 8003c18:	2320      	movs	r3, #32
 8003c1a:	2000      	movs	r0, #0
 8003c1c:	f8c5 3080 	str.w	r3, [r5, #128]	; 0x80
 8003c20:	e8bd 87f0 	ldmia.w	sp!, {r4, r5, r6, r7, r8, r9, sl, pc}
 8003c24:	2001      	movs	r0, #1
 8003c26:	e8bd 87f0 	ldmia.w	sp!, {r4, r5, r6, r7, r8, r9, sl, pc}
 8003c2a:	2002      	movs	r0, #2
 8003c2c:	e8bd 87f0 	ldmia.w	sp!, {r4, r5, r6, r7, r8, r9, sl, pc}
 8003c30:	692b      	ldr	r3, [r5, #16]
 8003c32:	2b00      	cmp	r3, #0
 8003c34:	d160      	bne.n	8003cf8 <HAL_UART_Receive+0x170>
 8003c36:	27ff      	movs	r7, #255	; 0xff
 8003c38:	f8a5 705c 	strh.w	r7, [r5, #92]	; 0x5c
 8003c3c:	e7ce      	b.n	8003bdc <HAL_UART_Receive+0x54>
 8003c3e:	69e3      	ldr	r3, [r4, #28]
 8003c40:	069b      	lsls	r3, r3, #26
 8003c42:	d4d7      	bmi.n	8003bf4 <HAL_UART_Receive+0x6c>
 8003c44:	f7fe f824 	bl	8001c90 <HAL_GetTick>
 8003c48:	eba0 0008 	sub.w	r0, r0, r8
 8003c4c:	4286      	cmp	r6, r0
 8003c4e:	d329      	bcc.n	8003ca4 <HAL_UART_Receive+0x11c>
 8003c50:	b346      	cbz	r6, 8003ca4 <HAL_UART_Receive+0x11c>
 8003c52:	682c      	ldr	r4, [r5, #0]
 8003c54:	6823      	ldr	r3, [r4, #0]
 8003c56:	075b      	lsls	r3, r3, #29
 8003c58:	d5c7      	bpl.n	8003bea <HAL_UART_Receive+0x62>
 8003c5a:	69e3      	ldr	r3, [r4, #28]
 8003c5c:	0518      	lsls	r0, r3, #20
 8003c5e:	d5c4      	bpl.n	8003bea <HAL_UART_Receive+0x62>
 8003c60:	f44f 6300 	mov.w	r3, #2048	; 0x800
 8003c64:	6223      	str	r3, [r4, #32]
 8003c66:	682a      	ldr	r2, [r5, #0]
 8003c68:	e852 3f00 	ldrex	r3, [r2]
 8003c6c:	f423 73d0 	bic.w	r3, r3, #416	; 0x1a0
 8003c70:	e842 3100 	strex	r1, r3, [r2]
 8003c74:	2900      	cmp	r1, #0
 8003c76:	d1f6      	bne.n	8003c66 <HAL_UART_Receive+0xde>
 8003c78:	682a      	ldr	r2, [r5, #0]
 8003c7a:	f102 0308 	add.w	r3, r2, #8
 8003c7e:	e853 3f00 	ldrex	r3, [r3]
 8003c82:	f023 0301 	bic.w	r3, r3, #1
 8003c86:	3208      	adds	r2, #8
 8003c88:	e842 3100 	strex	r1, r3, [r2]
 8003c8c:	2900      	cmp	r1, #0
 8003c8e:	d1f3      	bne.n	8003c78 <HAL_UART_Receive+0xf0>
 8003c90:	2320      	movs	r3, #32
 8003c92:	2003      	movs	r0, #3
 8003c94:	f885 1078 	strb.w	r1, [r5, #120]	; 0x78
 8003c98:	67eb      	str	r3, [r5, #124]	; 0x7c
 8003c9a:	f8c5 3080 	str.w	r3, [r5, #128]	; 0x80
 8003c9e:	f8c5 3084 	str.w	r3, [r5, #132]	; 0x84
 8003ca2:	e7c0      	b.n	8003c26 <HAL_UART_Receive+0x9e>
 8003ca4:	682a      	ldr	r2, [r5, #0]
 8003ca6:	e852 3f00 	ldrex	r3, [r2]
 8003caa:	f423 73d0 	bic.w	r3, r3, #416	; 0x1a0
 8003cae:	e842 3100 	strex	r1, r3, [r2]
 8003cb2:	2900      	cmp	r1, #0
 8003cb4:	d1f6      	bne.n	8003ca4 <HAL_UART_Receive+0x11c>
 8003cb6:	682a      	ldr	r2, [r5, #0]
 8003cb8:	f102 0308 	add.w	r3, r2, #8
 8003cbc:	e853 3f00 	ldrex	r3, [r3]
 8003cc0:	f023 0301 	bic.w	r3, r3, #1
 8003cc4:	3208      	adds	r2, #8
 8003cc6:	e842 3100 	strex	r1, r3, [r2]
 8003cca:	2900      	cmp	r1, #0
 8003ccc:	d1f3      	bne.n	8003cb6 <HAL_UART_Receive+0x12e>
 8003cce:	2320      	movs	r3, #32
 8003cd0:	2003      	movs	r0, #3
 8003cd2:	f885 1078 	strb.w	r1, [r5, #120]	; 0x78
 8003cd6:	67eb      	str	r3, [r5, #124]	; 0x7c
 8003cd8:	f8c5 3080 	str.w	r3, [r5, #128]	; 0x80
 8003cdc:	e8bd 87f0 	ldmia.w	sp!, {r4, r5, r6, r7, r8, r9, sl, pc}
 8003ce0:	f829 3b02 	strh.w	r3, [r9], #2
 8003ce4:	e78d      	b.n	8003c02 <HAL_UART_Receive+0x7a>
 8003ce6:	692b      	ldr	r3, [r5, #16]
 8003ce8:	b953      	cbnz	r3, 8003d00 <HAL_UART_Receive+0x178>
 8003cea:	f240 17ff 	movw	r7, #511	; 0x1ff
 8003cee:	46d1      	mov	r9, sl
 8003cf0:	469a      	mov	sl, r3
 8003cf2:	f8a5 705c 	strh.w	r7, [r5, #92]	; 0x5c
 8003cf6:	e773      	b.n	8003be0 <HAL_UART_Receive+0x58>
 8003cf8:	277f      	movs	r7, #127	; 0x7f
 8003cfa:	f8a5 705c 	strh.w	r7, [r5, #92]	; 0x5c
 8003cfe:	e76d      	b.n	8003bdc <HAL_UART_Receive+0x54>
 8003d00:	46b9      	mov	r9, r7
 8003d02:	27ff      	movs	r7, #255	; 0xff
 8003d04:	f8a5 705c 	strh.w	r7, [r5, #92]	; 0x5c
 8003d08:	e76a      	b.n	8003be0 <HAL_UART_Receive+0x58>
 8003d0a:	692b      	ldr	r3, [r5, #16]
 8003d0c:	2b00      	cmp	r3, #0
 8003d0e:	d0f3      	beq.n	8003cf8 <HAL_UART_Receive+0x170>
 8003d10:	273f      	movs	r7, #63	; 0x3f
 8003d12:	f8a5 705c 	strh.w	r7, [r5, #92]	; 0x5c
 8003d16:	e761      	b.n	8003bdc <HAL_UART_Receive+0x54>

08003d18 <HAL_UART_TxCpltCallback>:
 8003d18:	4770      	bx	lr
 8003d1a:	bf00      	nop

08003d1c <HAL_UART_RxCpltCallback>:
 8003d1c:	4770      	bx	lr
 8003d1e:	bf00      	nop

08003d20 <HAL_UART_RxHalfCpltCallback>:
 8003d20:	4770      	bx	lr
 8003d22:	bf00      	nop

08003d24 <HAL_UART_ErrorCallback>:
 8003d24:	4770      	bx	lr
 8003d26:	bf00      	nop

08003d28 <UART_DMAError>:
 8003d28:	b510      	push	{r4, lr}
 8003d2a:	6b80      	ldr	r0, [r0, #56]	; 0x38
 8003d2c:	6803      	ldr	r3, [r0, #0]
 8003d2e:	6fc1      	ldr	r1, [r0, #124]	; 0x7c
 8003d30:	f8d0 4080 	ldr.w	r4, [r0, #128]	; 0x80
 8003d34:	689a      	ldr	r2, [r3, #8]
 8003d36:	0612      	lsls	r2, r2, #24
 8003d38:	d501      	bpl.n	8003d3e <UART_DMAError+0x16>
 8003d3a:	2921      	cmp	r1, #33	; 0x21
 8003d3c:	d00d      	beq.n	8003d5a <UART_DMAError+0x32>
 8003d3e:	689a      	ldr	r2, [r3, #8]
 8003d40:	0652      	lsls	r2, r2, #25
 8003d42:	d501      	bpl.n	8003d48 <UART_DMAError+0x20>
 8003d44:	2c22      	cmp	r4, #34	; 0x22
 8003d46:	d01f      	beq.n	8003d88 <UART_DMAError+0x60>
 8003d48:	f8d0 3084 	ldr.w	r3, [r0, #132]	; 0x84
 8003d4c:	f043 0310 	orr.w	r3, r3, #16
 8003d50:	f8c0 3084 	str.w	r3, [r0, #132]	; 0x84
 8003d54:	f7ff ffe6 	bl	8003d24 <HAL_UART_ErrorCallback>
 8003d58:	bd10      	pop	{r4, pc}
 8003d5a:	2200      	movs	r2, #0
 8003d5c:	f8a0 2052 	strh.w	r2, [r0, #82]	; 0x52
 8003d60:	e853 2f00 	ldrex	r2, [r3]
 8003d64:	f022 02c0 	bic.w	r2, r2, #192	; 0xc0
 8003d68:	e843 2100 	strex	r1, r2, [r3]
 8003d6c:	b141      	cbz	r1, 8003d80 <UART_DMAError+0x58>
 8003d6e:	6802      	ldr	r2, [r0, #0]
 8003d70:	e852 3f00 	ldrex	r3, [r2]
 8003d74:	f023 03c0 	bic.w	r3, r3, #192	; 0xc0
 8003d78:	e842 3100 	strex	r1, r3, [r2]
 8003d7c:	2900      	cmp	r1, #0
 8003d7e:	d1f6      	bne.n	8003d6e <UART_DMAError+0x46>
 8003d80:	2220      	movs	r2, #32
 8003d82:	6803      	ldr	r3, [r0, #0]
 8003d84:	67c2      	str	r2, [r0, #124]	; 0x7c
 8003d86:	e7da      	b.n	8003d3e <UART_DMAError+0x16>
 8003d88:	2200      	movs	r2, #0
 8003d8a:	f8a0 205a 	strh.w	r2, [r0, #90]	; 0x5a
 8003d8e:	e853 2f00 	ldrex	r2, [r3]
 8003d92:	f422 7290 	bic.w	r2, r2, #288	; 0x120
 8003d96:	e843 2100 	strex	r1, r2, [r3]
 8003d9a:	b141      	cbz	r1, 8003dae <UART_DMAError+0x86>
 8003d9c:	6802      	ldr	r2, [r0, #0]
 8003d9e:	e852 3f00 	ldrex	r3, [r2]
 8003da2:	f423 7390 	bic.w	r3, r3, #288	; 0x120
 8003da6:	e842 3100 	strex	r1, r3, [r2]
 8003daa:	2900      	cmp	r1, #0
 8003dac:	d1f6      	bne.n	8003d9c <UART_DMAError+0x74>
 8003dae:	6802      	ldr	r2, [r0, #0]
 8003db0:	f102 0308 	add.w	r3, r2, #8
 8003db4:	e853 3f00 	ldrex	r3, [r3]
 8003db8:	f023 0301 	bic.w	r3, r3, #1
 8003dbc:	3208      	adds	r2, #8
 8003dbe:	e842 3100 	strex	r1, r3, [r2]
 8003dc2:	2900      	cmp	r1, #0
 8003dc4:	d1f3      	bne.n	8003dae <UART_DMAError+0x86>
 8003dc6:	6e03      	ldr	r3, [r0, #96]	; 0x60
 8003dc8:	2b01      	cmp	r3, #1
 8003dca:	d006      	beq.n	8003dda <UART_DMAError+0xb2>
 8003dcc:	2300      	movs	r3, #0
 8003dce:	2220      	movs	r2, #32
 8003dd0:	6683      	str	r3, [r0, #104]	; 0x68
 8003dd2:	f8c0 2080 	str.w	r2, [r0, #128]	; 0x80
 8003dd6:	6603      	str	r3, [r0, #96]	; 0x60
 8003dd8:	e7b6      	b.n	8003d48 <UART_DMAError+0x20>
 8003dda:	6802      	ldr	r2, [r0, #0]
 8003ddc:	e852 3f00 	ldrex	r3, [r2]
 8003de0:	f023 0310 	bic.w	r3, r3, #16
 8003de4:	e842 3100 	strex	r1, r3, [r2]
 8003de8:	2900      	cmp	r1, #0
 8003dea:	d1f6      	bne.n	8003dda <UART_DMAError+0xb2>
 8003dec:	e7ee      	b.n	8003dcc <UART_DMAError+0xa4>
 8003dee:	bf00      	nop

08003df0 <UART_DMAAbortOnError>:
 8003df0:	b508      	push	{r3, lr}
 8003df2:	2300      	movs	r3, #0
 8003df4:	6b80      	ldr	r0, [r0, #56]	; 0x38
 8003df6:	f8a0 305a 	strh.w	r3, [r0, #90]	; 0x5a
 8003dfa:	f8a0 3052 	strh.w	r3, [r0, #82]	; 0x52
 8003dfe:	f7ff ff91 	bl	8003d24 <HAL_UART_ErrorCallback>
 8003e02:	bd08      	pop	{r3, pc}

08003e04 <HAL_UART_IRQHandler>:
 8003e04:	b570      	push	{r4, r5, r6, lr}
 8003e06:	6802      	ldr	r2, [r0, #0]
 8003e08:	f640 0c0f 	movw	ip, #2063	; 0x80f
 8003e0c:	4604      	mov	r4, r0
 8003e0e:	69d3      	ldr	r3, [r2, #28]
 8003e10:	6811      	ldr	r1, [r2, #0]
 8003e12:	ea13 0f0c 	tst.w	r3, ip
 8003e16:	6895      	ldr	r5, [r2, #8]
 8003e18:	f040 8088 	bne.w	8003f2c <HAL_UART_IRQHandler+0x128>
 8003e1c:	069e      	lsls	r6, r3, #26
 8003e1e:	d502      	bpl.n	8003e26 <HAL_UART_IRQHandler+0x22>
 8003e20:	068d      	lsls	r5, r1, #26
 8003e22:	f100 8120 	bmi.w	8004066 <HAL_UART_IRQHandler+0x262>
 8003e26:	6e20      	ldr	r0, [r4, #96]	; 0x60
 8003e28:	2801      	cmp	r0, #1
 8003e2a:	d020      	beq.n	8003e6e <HAL_UART_IRQHandler+0x6a>
 8003e2c:	061e      	lsls	r6, r3, #24
 8003e2e:	d415      	bmi.n	8003e5c <HAL_UART_IRQHandler+0x58>
 8003e30:	0658      	lsls	r0, r3, #25
 8003e32:	d501      	bpl.n	8003e38 <HAL_UART_IRQHandler+0x34>
 8003e34:	064b      	lsls	r3, r1, #25
 8003e36:	d401      	bmi.n	8003e3c <HAL_UART_IRQHandler+0x38>
 8003e38:	bd70      	pop	{r4, r5, r6, pc}
 8003e3a:	6822      	ldr	r2, [r4, #0]
 8003e3c:	e852 3f00 	ldrex	r3, [r2]
 8003e40:	f023 0340 	bic.w	r3, r3, #64	; 0x40
 8003e44:	e842 3100 	strex	r1, r3, [r2]
 8003e48:	2900      	cmp	r1, #0
 8003e4a:	d1f6      	bne.n	8003e3a <HAL_UART_IRQHandler+0x36>
 8003e4c:	2220      	movs	r2, #32
 8003e4e:	2300      	movs	r3, #0
 8003e50:	4620      	mov	r0, r4
 8003e52:	67e2      	str	r2, [r4, #124]	; 0x7c
 8003e54:	66e3      	str	r3, [r4, #108]	; 0x6c
 8003e56:	f7ff ff5f 	bl	8003d18 <HAL_UART_TxCpltCallback>
 8003e5a:	bd70      	pop	{r4, r5, r6, pc}
 8003e5c:	060d      	lsls	r5, r1, #24
 8003e5e:	d5e7      	bpl.n	8003e30 <HAL_UART_IRQHandler+0x2c>
 8003e60:	6ee3      	ldr	r3, [r4, #108]	; 0x6c
 8003e62:	2b00      	cmp	r3, #0
 8003e64:	d0e8      	beq.n	8003e38 <HAL_UART_IRQHandler+0x34>
 8003e66:	4620      	mov	r0, r4
 8003e68:	e8bd 4070 	ldmia.w	sp!, {r4, r5, r6, lr}
 8003e6c:	4718      	bx	r3
 8003e6e:	06dd      	lsls	r5, r3, #27
 8003e70:	d5dc      	bpl.n	8003e2c <HAL_UART_IRQHandler+0x28>
 8003e72:	06c8      	lsls	r0, r1, #27
 8003e74:	d5da      	bpl.n	8003e2c <HAL_UART_IRQHandler+0x28>
 8003e76:	2310      	movs	r3, #16
 8003e78:	6213      	str	r3, [r2, #32]
 8003e7a:	6823      	ldr	r3, [r4, #0]
 8003e7c:	689a      	ldr	r2, [r3, #8]
 8003e7e:	0652      	lsls	r2, r2, #25
 8003e80:	f140 810a 	bpl.w	8004098 <HAL_UART_IRQHandler+0x294>
 8003e84:	6f61      	ldr	r1, [r4, #116]	; 0x74
 8003e86:	680a      	ldr	r2, [r1, #0]
 8003e88:	6852      	ldr	r2, [r2, #4]
 8003e8a:	b292      	uxth	r2, r2
 8003e8c:	2a00      	cmp	r2, #0
 8003e8e:	d0d3      	beq.n	8003e38 <HAL_UART_IRQHandler+0x34>
 8003e90:	f8b4 5058 	ldrh.w	r5, [r4, #88]	; 0x58
 8003e94:	4295      	cmp	r5, r2
 8003e96:	d9cf      	bls.n	8003e38 <HAL_UART_IRQHandler+0x34>
 8003e98:	f8a4 205a 	strh.w	r2, [r4, #90]	; 0x5a
 8003e9c:	69ca      	ldr	r2, [r1, #28]
 8003e9e:	f5b2 7f80 	cmp.w	r2, #256	; 0x100
 8003ea2:	d039      	beq.n	8003f18 <HAL_UART_IRQHandler+0x114>
 8003ea4:	e853 2f00 	ldrex	r2, [r3]
 8003ea8:	f422 7280 	bic.w	r2, r2, #256	; 0x100
 8003eac:	e843 2100 	strex	r1, r2, [r3]
 8003eb0:	b141      	cbz	r1, 8003ec4 <HAL_UART_IRQHandler+0xc0>
 8003eb2:	6822      	ldr	r2, [r4, #0]
 8003eb4:	e852 3f00 	ldrex	r3, [r2]
 8003eb8:	f423 7380 	bic.w	r3, r3, #256	; 0x100
 8003ebc:	e842 3100 	strex	r1, r3, [r2]
 8003ec0:	2900      	cmp	r1, #0
 8003ec2:	d1f6      	bne.n	8003eb2 <HAL_UART_IRQHandler+0xae>
 8003ec4:	6822      	ldr	r2, [r4, #0]
 8003ec6:	f102 0308 	add.w	r3, r2, #8
 8003eca:	e853 3f00 	ldrex	r3, [r3]
 8003ece:	f023 0301 	bic.w	r3, r3, #1
 8003ed2:	3208      	adds	r2, #8
 8003ed4:	e842 3100 	strex	r1, r3, [r2]
 8003ed8:	2900      	cmp	r1, #0
 8003eda:	d1f3      	bne.n	8003ec4 <HAL_UART_IRQHandler+0xc0>
 8003edc:	6822      	ldr	r2, [r4, #0]
 8003ede:	f102 0308 	add.w	r3, r2, #8
 8003ee2:	e853 3f00 	ldrex	r3, [r3]
 8003ee6:	f023 0340 	bic.w	r3, r3, #64	; 0x40
 8003eea:	3208      	adds	r2, #8
 8003eec:	e842 3100 	strex	r1, r3, [r2]
 8003ef0:	2900      	cmp	r1, #0
 8003ef2:	d1f3      	bne.n	8003edc <HAL_UART_IRQHandler+0xd8>
 8003ef4:	2320      	movs	r3, #32
 8003ef6:	f8c4 3080 	str.w	r3, [r4, #128]	; 0x80
 8003efa:	6621      	str	r1, [r4, #96]	; 0x60
 8003efc:	6822      	ldr	r2, [r4, #0]
 8003efe:	e852 3f00 	ldrex	r3, [r2]
 8003f02:	f023 0310 	bic.w	r3, r3, #16
 8003f06:	e842 3100 	strex	r1, r3, [r2]
 8003f0a:	2900      	cmp	r1, #0
 8003f0c:	d1f6      	bne.n	8003efc <HAL_UART_IRQHandler+0xf8>
 8003f0e:	6f60      	ldr	r0, [r4, #116]	; 0x74
 8003f10:	f7fe fc04 	bl	800271c <HAL_DMA_Abort>
 8003f14:	f8b4 5058 	ldrh.w	r5, [r4, #88]	; 0x58
 8003f18:	2302      	movs	r3, #2
 8003f1a:	4620      	mov	r0, r4
 8003f1c:	6663      	str	r3, [r4, #100]	; 0x64
 8003f1e:	f8b4 105a 	ldrh.w	r1, [r4, #90]	; 0x5a
 8003f22:	1a69      	subs	r1, r5, r1
 8003f24:	b289      	uxth	r1, r1
 8003f26:	f004 fdb3 	bl	8008a90 <HAL_UARTEx_RxEventCallback>
 8003f2a:	bd70      	pop	{r4, r5, r6, pc}
 8003f2c:	487d      	ldr	r0, [pc, #500]	; (8004124 <HAL_UART_IRQHandler+0x320>)
 8003f2e:	f005 0501 	and.w	r5, r5, #1
 8003f32:	4008      	ands	r0, r1
 8003f34:	4328      	orrs	r0, r5
 8003f36:	f43f af76 	beq.w	8003e26 <HAL_UART_IRQHandler+0x22>
 8003f3a:	07de      	lsls	r6, r3, #31
 8003f3c:	d508      	bpl.n	8003f50 <HAL_UART_IRQHandler+0x14c>
 8003f3e:	05c8      	lsls	r0, r1, #23
 8003f40:	d506      	bpl.n	8003f50 <HAL_UART_IRQHandler+0x14c>
 8003f42:	2001      	movs	r0, #1
 8003f44:	6210      	str	r0, [r2, #32]
 8003f46:	f8d4 2084 	ldr.w	r2, [r4, #132]	; 0x84
 8003f4a:	4302      	orrs	r2, r0
 8003f4c:	f8c4 2084 	str.w	r2, [r4, #132]	; 0x84
 8003f50:	079e      	lsls	r6, r3, #30
 8003f52:	f140 8083 	bpl.w	800405c <HAL_UART_IRQHandler+0x258>
 8003f56:	b19d      	cbz	r5, 8003f80 <HAL_UART_IRQHandler+0x17c>
 8003f58:	6822      	ldr	r2, [r4, #0]
 8003f5a:	2002      	movs	r0, #2
 8003f5c:	6210      	str	r0, [r2, #32]
 8003f5e:	0758      	lsls	r0, r3, #29
 8003f60:	f8d4 2084 	ldr.w	r2, [r4, #132]	; 0x84
 8003f64:	f042 0204 	orr.w	r2, r2, #4
 8003f68:	f8c4 2084 	str.w	r2, [r4, #132]	; 0x84
 8003f6c:	d508      	bpl.n	8003f80 <HAL_UART_IRQHandler+0x17c>
 8003f6e:	6822      	ldr	r2, [r4, #0]
 8003f70:	2004      	movs	r0, #4
 8003f72:	6210      	str	r0, [r2, #32]
 8003f74:	f8d4 2084 	ldr.w	r2, [r4, #132]	; 0x84
 8003f78:	f042 0202 	orr.w	r2, r2, #2
 8003f7c:	f8c4 2084 	str.w	r2, [r4, #132]	; 0x84
 8003f80:	071e      	lsls	r6, r3, #28
 8003f82:	d50b      	bpl.n	8003f9c <HAL_UART_IRQHandler+0x198>
 8003f84:	f001 0220 	and.w	r2, r1, #32
 8003f88:	432a      	orrs	r2, r5
 8003f8a:	d007      	beq.n	8003f9c <HAL_UART_IRQHandler+0x198>
 8003f8c:	6822      	ldr	r2, [r4, #0]
 8003f8e:	2008      	movs	r0, #8
 8003f90:	6210      	str	r0, [r2, #32]
 8003f92:	f8d4 2084 	ldr.w	r2, [r4, #132]	; 0x84
 8003f96:	4302      	orrs	r2, r0
 8003f98:	f8c4 2084 	str.w	r2, [r4, #132]	; 0x84
 8003f9c:	051d      	lsls	r5, r3, #20
 8003f9e:	d50b      	bpl.n	8003fb8 <HAL_UART_IRQHandler+0x1b4>
 8003fa0:	0148      	lsls	r0, r1, #5
 8003fa2:	d509      	bpl.n	8003fb8 <HAL_UART_IRQHandler+0x1b4>
 8003fa4:	6822      	ldr	r2, [r4, #0]
 8003fa6:	f44f 6000 	mov.w	r0, #2048	; 0x800
 8003faa:	6210      	str	r0, [r2, #32]
 8003fac:	f8d4 2084 	ldr.w	r2, [r4, #132]	; 0x84
 8003fb0:	f042 0220 	orr.w	r2, r2, #32
 8003fb4:	f8c4 2084 	str.w	r2, [r4, #132]	; 0x84
 8003fb8:	f8d4 2084 	ldr.w	r2, [r4, #132]	; 0x84
 8003fbc:	2a00      	cmp	r2, #0
 8003fbe:	f43f af3b 	beq.w	8003e38 <HAL_UART_IRQHandler+0x34>
 8003fc2:	069a      	lsls	r2, r3, #26
 8003fc4:	d501      	bpl.n	8003fca <HAL_UART_IRQHandler+0x1c6>
 8003fc6:	068b      	lsls	r3, r1, #26
 8003fc8:	d460      	bmi.n	800408c <HAL_UART_IRQHandler+0x288>
 8003fca:	6822      	ldr	r2, [r4, #0]
 8003fcc:	f8d4 5084 	ldr.w	r5, [r4, #132]	; 0x84
 8003fd0:	6893      	ldr	r3, [r2, #8]
 8003fd2:	f005 0528 	and.w	r5, r5, #40	; 0x28
 8003fd6:	f003 0340 	and.w	r3, r3, #64	; 0x40
 8003fda:	431d      	orrs	r5, r3
 8003fdc:	d101      	bne.n	8003fe2 <HAL_UART_IRQHandler+0x1de>
 8003fde:	e09a      	b.n	8004116 <HAL_UART_IRQHandler+0x312>
 8003fe0:	6822      	ldr	r2, [r4, #0]
 8003fe2:	e852 3f00 	ldrex	r3, [r2]
 8003fe6:	f423 7390 	bic.w	r3, r3, #288	; 0x120
 8003fea:	e842 3100 	strex	r1, r3, [r2]
 8003fee:	2900      	cmp	r1, #0
 8003ff0:	d1f6      	bne.n	8003fe0 <HAL_UART_IRQHandler+0x1dc>
 8003ff2:	6822      	ldr	r2, [r4, #0]
 8003ff4:	f102 0308 	add.w	r3, r2, #8
 8003ff8:	e853 3f00 	ldrex	r3, [r3]
 8003ffc:	f023 0301 	bic.w	r3, r3, #1
 8004000:	3208      	adds	r2, #8
 8004002:	e842 3100 	strex	r1, r3, [r2]
 8004006:	2900      	cmp	r1, #0
 8004008:	d1f3      	bne.n	8003ff2 <HAL_UART_IRQHandler+0x1ee>
 800400a:	6e23      	ldr	r3, [r4, #96]	; 0x60
 800400c:	2b01      	cmp	r3, #1
 800400e:	d02f      	beq.n	8004070 <HAL_UART_IRQHandler+0x26c>
 8004010:	2300      	movs	r3, #0
 8004012:	2120      	movs	r1, #32
 8004014:	6822      	ldr	r2, [r4, #0]
 8004016:	f8c4 1080 	str.w	r1, [r4, #128]	; 0x80
 800401a:	66a3      	str	r3, [r4, #104]	; 0x68
 800401c:	6623      	str	r3, [r4, #96]	; 0x60
 800401e:	6893      	ldr	r3, [r2, #8]
 8004020:	065e      	lsls	r6, r3, #25
 8004022:	d401      	bmi.n	8004028 <HAL_UART_IRQHandler+0x224>
 8004024:	e02e      	b.n	8004084 <HAL_UART_IRQHandler+0x280>
 8004026:	6822      	ldr	r2, [r4, #0]
 8004028:	f102 0308 	add.w	r3, r2, #8
 800402c:	e853 3f00 	ldrex	r3, [r3]
 8004030:	f023 0340 	bic.w	r3, r3, #64	; 0x40
 8004034:	3208      	adds	r2, #8
 8004036:	e842 3100 	strex	r1, r3, [r2]
 800403a:	2900      	cmp	r1, #0
 800403c:	d1f3      	bne.n	8004026 <HAL_UART_IRQHandler+0x222>
 800403e:	6f63      	ldr	r3, [r4, #116]	; 0x74
 8004040:	b303      	cbz	r3, 8004084 <HAL_UART_IRQHandler+0x280>
 8004042:	4a39      	ldr	r2, [pc, #228]	; (8004128 <HAL_UART_IRQHandler+0x324>)
 8004044:	651a      	str	r2, [r3, #80]	; 0x50
 8004046:	6f60      	ldr	r0, [r4, #116]	; 0x74
 8004048:	f7fe fbb4 	bl	80027b4 <HAL_DMA_Abort_IT>
 800404c:	2800      	cmp	r0, #0
 800404e:	f43f aef3 	beq.w	8003e38 <HAL_UART_IRQHandler+0x34>
 8004052:	6f60      	ldr	r0, [r4, #116]	; 0x74
 8004054:	e8bd 4070 	ldmia.w	sp!, {r4, r5, r6, lr}
 8004058:	6d03      	ldr	r3, [r0, #80]	; 0x50
 800405a:	4718      	bx	r3
 800405c:	075a      	lsls	r2, r3, #29
 800405e:	d58f      	bpl.n	8003f80 <HAL_UART_IRQHandler+0x17c>
 8004060:	2d00      	cmp	r5, #0
 8004062:	d184      	bne.n	8003f6e <HAL_UART_IRQHandler+0x16a>
 8004064:	e78c      	b.n	8003f80 <HAL_UART_IRQHandler+0x17c>
 8004066:	6e83      	ldr	r3, [r0, #104]	; 0x68
 8004068:	2b00      	cmp	r3, #0
 800406a:	f47f aefd 	bne.w	8003e68 <HAL_UART_IRQHandler+0x64>
 800406e:	e6e3      	b.n	8003e38 <HAL_UART_IRQHandler+0x34>
 8004070:	6822      	ldr	r2, [r4, #0]
 8004072:	e852 3f00 	ldrex	r3, [r2]
 8004076:	f023 0310 	bic.w	r3, r3, #16
 800407a:	e842 3100 	strex	r1, r3, [r2]
 800407e:	2900      	cmp	r1, #0
 8004080:	d1f6      	bne.n	8004070 <HAL_UART_IRQHandler+0x26c>
 8004082:	e7c5      	b.n	8004010 <HAL_UART_IRQHandler+0x20c>
 8004084:	4620      	mov	r0, r4
 8004086:	f7ff fe4d 	bl	8003d24 <HAL_UART_ErrorCallback>
 800408a:	bd70      	pop	{r4, r5, r6, pc}
 800408c:	6ea3      	ldr	r3, [r4, #104]	; 0x68
 800408e:	2b00      	cmp	r3, #0
 8004090:	d09b      	beq.n	8003fca <HAL_UART_IRQHandler+0x1c6>
 8004092:	4620      	mov	r0, r4
 8004094:	4798      	blx	r3
 8004096:	e798      	b.n	8003fca <HAL_UART_IRQHandler+0x1c6>
 8004098:	f8b4 005a 	ldrh.w	r0, [r4, #90]	; 0x5a
 800409c:	f8b4 1058 	ldrh.w	r1, [r4, #88]	; 0x58
 80040a0:	f8b4 205a 	ldrh.w	r2, [r4, #90]	; 0x5a
 80040a4:	1a09      	subs	r1, r1, r0
 80040a6:	b292      	uxth	r2, r2
 80040a8:	b289      	uxth	r1, r1
 80040aa:	2a00      	cmp	r2, #0
 80040ac:	f43f aec4 	beq.w	8003e38 <HAL_UART_IRQHandler+0x34>
 80040b0:	2900      	cmp	r1, #0
 80040b2:	f43f aec1 	beq.w	8003e38 <HAL_UART_IRQHandler+0x34>
 80040b6:	e853 2f00 	ldrex	r2, [r3]
 80040ba:	f422 7290 	bic.w	r2, r2, #288	; 0x120
 80040be:	e843 2000 	strex	r0, r2, [r3]
 80040c2:	b140      	cbz	r0, 80040d6 <HAL_UART_IRQHandler+0x2d2>
 80040c4:	6822      	ldr	r2, [r4, #0]
 80040c6:	e852 3f00 	ldrex	r3, [r2]
 80040ca:	f423 7390 	bic.w	r3, r3, #288	; 0x120
 80040ce:	e842 3000 	strex	r0, r3, [r2]
 80040d2:	2800      	cmp	r0, #0
 80040d4:	d1f6      	bne.n	80040c4 <HAL_UART_IRQHandler+0x2c0>
 80040d6:	6822      	ldr	r2, [r4, #0]
 80040d8:	f102 0308 	add.w	r3, r2, #8
 80040dc:	e853 3f00 	ldrex	r3, [r3]
 80040e0:	f023 0301 	bic.w	r3, r3, #1
 80040e4:	3208      	adds	r2, #8
 80040e6:	e842 3000 	strex	r0, r3, [r2]
 80040ea:	2800      	cmp	r0, #0
 80040ec:	d1f3      	bne.n	80040d6 <HAL_UART_IRQHandler+0x2d2>
 80040ee:	2320      	movs	r3, #32
 80040f0:	66a0      	str	r0, [r4, #104]	; 0x68
 80040f2:	f8c4 3080 	str.w	r3, [r4, #128]	; 0x80
 80040f6:	6620      	str	r0, [r4, #96]	; 0x60
 80040f8:	6822      	ldr	r2, [r4, #0]
 80040fa:	e852 3f00 	ldrex	r3, [r2]
 80040fe:	f023 0310 	bic.w	r3, r3, #16
 8004102:	e842 3000 	strex	r0, r3, [r2]
 8004106:	2800      	cmp	r0, #0
 8004108:	d1f6      	bne.n	80040f8 <HAL_UART_IRQHandler+0x2f4>
 800410a:	2302      	movs	r3, #2
 800410c:	4620      	mov	r0, r4
 800410e:	6663      	str	r3, [r4, #100]	; 0x64
 8004110:	f004 fcbe 	bl	8008a90 <HAL_UARTEx_RxEventCallback>
 8004114:	bd70      	pop	{r4, r5, r6, pc}
 8004116:	4620      	mov	r0, r4
 8004118:	f7ff fe04 	bl	8003d24 <HAL_UART_ErrorCallback>
 800411c:	f8c4 5084 	str.w	r5, [r4, #132]	; 0x84
 8004120:	bd70      	pop	{r4, r5, r6, pc}
 8004122:	bf00      	nop
 8004124:	04000120 	.word	0x04000120
 8004128:	08003df1 	.word	0x08003df1

0800412c <UART_DMARxHalfCplt>:
 800412c:	b508      	push	{r3, lr}
 800412e:	2301      	movs	r3, #1
 8004130:	6b80      	ldr	r0, [r0, #56]	; 0x38
 8004132:	6643      	str	r3, [r0, #100]	; 0x64
 8004134:	6e03      	ldr	r3, [r0, #96]	; 0x60
 8004136:	2b01      	cmp	r3, #1
 8004138:	d002      	beq.n	8004140 <UART_DMARxHalfCplt+0x14>
 800413a:	f7ff fdf1 	bl	8003d20 <HAL_UART_RxHalfCpltCallback>
 800413e:	bd08      	pop	{r3, pc}
 8004140:	f8b0 1058 	ldrh.w	r1, [r0, #88]	; 0x58
 8004144:	0849      	lsrs	r1, r1, #1
 8004146:	f004 fca3 	bl	8008a90 <HAL_UARTEx_RxEventCallback>
 800414a:	bd08      	pop	{r3, pc}

0800414c <UART_DMAReceiveCplt>:
 800414c:	b508      	push	{r3, lr}
 800414e:	69c3      	ldr	r3, [r0, #28]
 8004150:	6b80      	ldr	r0, [r0, #56]	; 0x38
 8004152:	f5b3 7f80 	cmp.w	r3, #256	; 0x100
 8004156:	d029      	beq.n	80041ac <UART_DMAReceiveCplt+0x60>
 8004158:	2300      	movs	r3, #0
 800415a:	f8a0 305a 	strh.w	r3, [r0, #90]	; 0x5a
 800415e:	6802      	ldr	r2, [r0, #0]
 8004160:	e852 3f00 	ldrex	r3, [r2]
 8004164:	f423 7380 	bic.w	r3, r3, #256	; 0x100
 8004168:	e842 3100 	strex	r1, r3, [r2]
 800416c:	2900      	cmp	r1, #0
 800416e:	d1f6      	bne.n	800415e <UART_DMAReceiveCplt+0x12>
 8004170:	6802      	ldr	r2, [r0, #0]
 8004172:	f102 0308 	add.w	r3, r2, #8
 8004176:	e853 3f00 	ldrex	r3, [r3]
 800417a:	f023 0301 	bic.w	r3, r3, #1
 800417e:	3208      	adds	r2, #8
 8004180:	e842 3100 	strex	r1, r3, [r2]
 8004184:	2900      	cmp	r1, #0
 8004186:	d1f3      	bne.n	8004170 <UART_DMAReceiveCplt+0x24>
 8004188:	6802      	ldr	r2, [r0, #0]
 800418a:	f102 0308 	add.w	r3, r2, #8
 800418e:	e853 3f00 	ldrex	r3, [r3]
 8004192:	f023 0340 	bic.w	r3, r3, #64	; 0x40
 8004196:	3208      	adds	r2, #8
 8004198:	e842 3100 	strex	r1, r3, [r2]
 800419c:	2900      	cmp	r1, #0
 800419e:	d1f3      	bne.n	8004188 <UART_DMAReceiveCplt+0x3c>
 80041a0:	2320      	movs	r3, #32
 80041a2:	f8c0 3080 	str.w	r3, [r0, #128]	; 0x80
 80041a6:	6e03      	ldr	r3, [r0, #96]	; 0x60
 80041a8:	2b01      	cmp	r3, #1
 80041aa:	d007      	beq.n	80041bc <UART_DMAReceiveCplt+0x70>
 80041ac:	2300      	movs	r3, #0
 80041ae:	6643      	str	r3, [r0, #100]	; 0x64
 80041b0:	6e03      	ldr	r3, [r0, #96]	; 0x60
 80041b2:	2b01      	cmp	r3, #1
 80041b4:	d00c      	beq.n	80041d0 <UART_DMAReceiveCplt+0x84>
 80041b6:	f7ff fdb1 	bl	8003d1c <HAL_UART_RxCpltCallback>
 80041ba:	bd08      	pop	{r3, pc}
 80041bc:	6802      	ldr	r2, [r0, #0]
 80041be:	e852 3f00 	ldrex	r3, [r2]
 80041c2:	f023 0310 	bic.w	r3, r3, #16
 80041c6:	e842 3100 	strex	r1, r3, [r2]
 80041ca:	2900      	cmp	r1, #0
 80041cc:	d1f6      	bne.n	80041bc <UART_DMAReceiveCplt+0x70>
 80041ce:	e7ed      	b.n	80041ac <UART_DMAReceiveCplt+0x60>
 80041d0:	f8b0 1058 	ldrh.w	r1, [r0, #88]	; 0x58
 80041d4:	f004 fc5c 	bl	8008a90 <HAL_UARTEx_RxEventCallback>
 80041d8:	bd08      	pop	{r3, pc}
 80041da:	bf00      	nop

080041dc <UART_SetConfig>:
 80041dc:	b538      	push	{r3, r4, r5, lr}
 80041de:	4604      	mov	r4, r0
 80041e0:	6902      	ldr	r2, [r0, #16]
 80041e2:	6883      	ldr	r3, [r0, #8]
 80041e4:	6965      	ldr	r5, [r4, #20]
 80041e6:	4313      	orrs	r3, r2
 80041e8:	6801      	ldr	r1, [r0, #0]
 80041ea:	69e2      	ldr	r2, [r4, #28]
 80041ec:	432b      	orrs	r3, r5
 80041ee:	6808      	ldr	r0, [r1, #0]
 80041f0:	4313      	orrs	r3, r2
 80041f2:	4aa6      	ldr	r2, [pc, #664]	; (800448c <UART_SetConfig+0x2b0>)
 80041f4:	4002      	ands	r2, r0
 80041f6:	4313      	orrs	r3, r2
 80041f8:	600b      	str	r3, [r1, #0]
 80041fa:	6822      	ldr	r2, [r4, #0]
 80041fc:	68e1      	ldr	r1, [r4, #12]
 80041fe:	6853      	ldr	r3, [r2, #4]
 8004200:	f423 5340 	bic.w	r3, r3, #12288	; 0x3000
 8004204:	430b      	orrs	r3, r1
 8004206:	6053      	str	r3, [r2, #4]
 8004208:	6821      	ldr	r1, [r4, #0]
 800420a:	6a20      	ldr	r0, [r4, #32]
 800420c:	69a3      	ldr	r3, [r4, #24]
 800420e:	688a      	ldr	r2, [r1, #8]
 8004210:	4303      	orrs	r3, r0
 8004212:	489f      	ldr	r0, [pc, #636]	; (8004490 <UART_SetConfig+0x2b4>)
 8004214:	f422 6230 	bic.w	r2, r2, #2816	; 0xb00
 8004218:	4313      	orrs	r3, r2
 800421a:	608b      	str	r3, [r1, #8]
 800421c:	6823      	ldr	r3, [r4, #0]
 800421e:	4283      	cmp	r3, r0
 8004220:	d040      	beq.n	80042a4 <UART_SetConfig+0xc8>
 8004222:	4a9c      	ldr	r2, [pc, #624]	; (8004494 <UART_SetConfig+0x2b8>)
 8004224:	4293      	cmp	r3, r2
 8004226:	d01b      	beq.n	8004260 <UART_SetConfig+0x84>
 8004228:	4a9b      	ldr	r2, [pc, #620]	; (8004498 <UART_SetConfig+0x2bc>)
 800422a:	4293      	cmp	r3, r2
 800422c:	f000 80d0 	beq.w	80043d0 <UART_SetConfig+0x1f4>
 8004230:	4a9a      	ldr	r2, [pc, #616]	; (800449c <UART_SetConfig+0x2c0>)
 8004232:	4293      	cmp	r3, r2
 8004234:	f000 80dc 	beq.w	80043f0 <UART_SetConfig+0x214>
 8004238:	4a99      	ldr	r2, [pc, #612]	; (80044a0 <UART_SetConfig+0x2c4>)
 800423a:	4293      	cmp	r3, r2
 800423c:	d062      	beq.n	8004304 <UART_SetConfig+0x128>
 800423e:	4a99      	ldr	r2, [pc, #612]	; (80044a4 <UART_SetConfig+0x2c8>)
 8004240:	4293      	cmp	r3, r2
 8004242:	f000 8096 	beq.w	8004372 <UART_SetConfig+0x196>
 8004246:	4a98      	ldr	r2, [pc, #608]	; (80044a8 <UART_SetConfig+0x2cc>)
 8004248:	4293      	cmp	r3, r2
 800424a:	f000 80f3 	beq.w	8004434 <UART_SetConfig+0x258>
 800424e:	4a97      	ldr	r2, [pc, #604]	; (80044ac <UART_SetConfig+0x2d0>)
 8004250:	4293      	cmp	r3, r2
 8004252:	f000 8105 	beq.w	8004460 <UART_SetConfig+0x284>
 8004256:	2001      	movs	r0, #1
 8004258:	2300      	movs	r3, #0
 800425a:	e9c4 331a 	strd	r3, r3, [r4, #104]	; 0x68
 800425e:	bd38      	pop	{r3, r4, r5, pc}
 8004260:	4b93      	ldr	r3, [pc, #588]	; (80044b0 <UART_SetConfig+0x2d4>)
 8004262:	4a94      	ldr	r2, [pc, #592]	; (80044b4 <UART_SetConfig+0x2d8>)
 8004264:	f8d3 3090 	ldr.w	r3, [r3, #144]	; 0x90
 8004268:	f003 030c 	and.w	r3, r3, #12
 800426c:	5cd3      	ldrb	r3, [r2, r3]
 800426e:	69e2      	ldr	r2, [r4, #28]
 8004270:	f5b2 4f00 	cmp.w	r2, #32768	; 0x8000
 8004274:	d02e      	beq.n	80042d4 <UART_SetConfig+0xf8>
 8004276:	2b08      	cmp	r3, #8
 8004278:	d8ed      	bhi.n	8004256 <UART_SetConfig+0x7a>
 800427a:	a201      	add	r2, pc, #4	; (adr r2, 8004280 <UART_SetConfig+0xa4>)
 800427c:	f852 f023 	ldr.w	pc, [r2, r3, lsl #2]
 8004280:	08004335 	.word	0x08004335
 8004284:	080042bd 	.word	0x080042bd
 8004288:	0800438b 	.word	0x0800438b
 800428c:	08004257 	.word	0x08004257
 8004290:	08004327 	.word	0x08004327
 8004294:	08004257 	.word	0x08004257
 8004298:	08004257 	.word	0x08004257
 800429c:	08004257 	.word	0x08004257
 80042a0:	08004349 	.word	0x08004349
 80042a4:	4b82      	ldr	r3, [pc, #520]	; (80044b0 <UART_SetConfig+0x2d4>)
 80042a6:	f8d3 3090 	ldr.w	r3, [r3, #144]	; 0x90
 80042aa:	f003 0303 	and.w	r3, r3, #3
 80042ae:	3b01      	subs	r3, #1
 80042b0:	2b02      	cmp	r3, #2
 80042b2:	d90c      	bls.n	80042ce <UART_SetConfig+0xf2>
 80042b4:	69e3      	ldr	r3, [r4, #28]
 80042b6:	f5b3 4f00 	cmp.w	r3, #32768	; 0x8000
 80042ba:	d068      	beq.n	800438e <UART_SetConfig+0x1b2>
 80042bc:	f7fe fffe 	bl	80032bc <HAL_RCC_GetPCLK2Freq>
 80042c0:	2800      	cmp	r0, #0
 80042c2:	d143      	bne.n	800434c <UART_SetConfig+0x170>
 80042c4:	2300      	movs	r3, #0
 80042c6:	2000      	movs	r0, #0
 80042c8:	e9c4 331a 	strd	r3, r3, [r4, #104]	; 0x68
 80042cc:	bd38      	pop	{r3, r4, r5, pc}
 80042ce:	4a7a      	ldr	r2, [pc, #488]	; (80044b8 <UART_SetConfig+0x2dc>)
 80042d0:	5cd3      	ldrb	r3, [r2, r3]
 80042d2:	e7cc      	b.n	800426e <UART_SetConfig+0x92>
 80042d4:	2b08      	cmp	r3, #8
 80042d6:	d8be      	bhi.n	8004256 <UART_SetConfig+0x7a>
 80042d8:	a201      	add	r2, pc, #4	; (adr r2, 80042e0 <UART_SetConfig+0x104>)
 80042da:	f852 f023 	ldr.w	pc, [r2, r3, lsl #2]
 80042de:	bf00      	nop
 80042e0:	080043cb 	.word	0x080043cb
 80042e4:	0800438f 	.word	0x0800438f
 80042e8:	0800442b 	.word	0x0800442b
 80042ec:	08004257 	.word	0x08004257
 80042f0:	080043c5 	.word	0x080043c5
 80042f4:	08004257 	.word	0x08004257
 80042f8:	08004257 	.word	0x08004257
 80042fc:	08004257 	.word	0x08004257
 8004300:	0800442f 	.word	0x0800442f
 8004304:	4b6a      	ldr	r3, [pc, #424]	; (80044b0 <UART_SetConfig+0x2d4>)
 8004306:	f8d3 3090 	ldr.w	r3, [r3, #144]	; 0x90
 800430a:	f403 7340 	and.w	r3, r3, #768	; 0x300
 800430e:	f5b3 7f00 	cmp.w	r3, #512	; 0x200
 8004312:	d036      	beq.n	8004382 <UART_SetConfig+0x1a6>
 8004314:	d811      	bhi.n	800433a <UART_SetConfig+0x15e>
 8004316:	b14b      	cbz	r3, 800432c <UART_SetConfig+0x150>
 8004318:	f5b3 7f80 	cmp.w	r3, #256	; 0x100
 800431c:	d19b      	bne.n	8004256 <UART_SetConfig+0x7a>
 800431e:	69e3      	ldr	r3, [r4, #28]
 8004320:	f5b3 4f00 	cmp.w	r3, #32768	; 0x8000
 8004324:	d04e      	beq.n	80043c4 <UART_SetConfig+0x1e8>
 8004326:	f7fe ff85 	bl	8003234 <HAL_RCC_GetSysClockFreq>
 800432a:	e7c9      	b.n	80042c0 <UART_SetConfig+0xe4>
 800432c:	69e3      	ldr	r3, [r4, #28]
 800432e:	f5b3 4f00 	cmp.w	r3, #32768	; 0x8000
 8004332:	d04a      	beq.n	80043ca <UART_SetConfig+0x1ee>
 8004334:	f7fe ffb2 	bl	800329c <HAL_RCC_GetPCLK1Freq>
 8004338:	e7c2      	b.n	80042c0 <UART_SetConfig+0xe4>
 800433a:	f5b3 7f40 	cmp.w	r3, #768	; 0x300
 800433e:	d18a      	bne.n	8004256 <UART_SetConfig+0x7a>
 8004340:	69e3      	ldr	r3, [r4, #28]
 8004342:	f5b3 4f00 	cmp.w	r3, #32768	; 0x8000
 8004346:	d072      	beq.n	800442e <UART_SetConfig+0x252>
 8004348:	f44f 4000 	mov.w	r0, #32768	; 0x8000
 800434c:	6863      	ldr	r3, [r4, #4]
 800434e:	f64f 72ef 	movw	r2, #65519	; 0xffef
 8004352:	eb00 0053 	add.w	r0, r0, r3, lsr #1
 8004356:	fbb0 f3f3 	udiv	r3, r0, r3
 800435a:	f1a3 0110 	sub.w	r1, r3, #16
 800435e:	4291      	cmp	r1, r2
 8004360:	f63f af79 	bhi.w	8004256 <UART_SetConfig+0x7a>
 8004364:	6822      	ldr	r2, [r4, #0]
 8004366:	2000      	movs	r0, #0
 8004368:	60d3      	str	r3, [r2, #12]
 800436a:	2300      	movs	r3, #0
 800436c:	e9c4 331a 	strd	r3, r3, [r4, #104]	; 0x68
 8004370:	bd38      	pop	{r3, r4, r5, pc}
 8004372:	4b4f      	ldr	r3, [pc, #316]	; (80044b0 <UART_SetConfig+0x2d4>)
 8004374:	f8d3 3090 	ldr.w	r3, [r3, #144]	; 0x90
 8004378:	f403 6340 	and.w	r3, r3, #3072	; 0xc00
 800437c:	f5b3 6f00 	cmp.w	r3, #2048	; 0x800
 8004380:	d146      	bne.n	8004410 <UART_SetConfig+0x234>
 8004382:	69e3      	ldr	r3, [r4, #28]
 8004384:	f5b3 4f00 	cmp.w	r3, #32768	; 0x8000
 8004388:	d04f      	beq.n	800442a <UART_SetConfig+0x24e>
 800438a:	484c      	ldr	r0, [pc, #304]	; (80044bc <UART_SetConfig+0x2e0>)
 800438c:	e7de      	b.n	800434c <UART_SetConfig+0x170>
 800438e:	f7fe ff95 	bl	80032bc <HAL_RCC_GetPCLK2Freq>
 8004392:	2800      	cmp	r0, #0
 8004394:	d096      	beq.n	80042c4 <UART_SetConfig+0xe8>
 8004396:	0043      	lsls	r3, r0, #1
 8004398:	6862      	ldr	r2, [r4, #4]
 800439a:	f64f 71ef 	movw	r1, #65519	; 0xffef
 800439e:	eb03 0352 	add.w	r3, r3, r2, lsr #1
 80043a2:	fbb3 f3f2 	udiv	r3, r3, r2
 80043a6:	f1a3 0210 	sub.w	r2, r3, #16
 80043aa:	428a      	cmp	r2, r1
 80043ac:	f63f af53 	bhi.w	8004256 <UART_SetConfig+0x7a>
 80043b0:	f023 020f 	bic.w	r2, r3, #15
 80043b4:	f3c3 0342 	ubfx	r3, r3, #1, #3
 80043b8:	6821      	ldr	r1, [r4, #0]
 80043ba:	2000      	movs	r0, #0
 80043bc:	b292      	uxth	r2, r2
 80043be:	4313      	orrs	r3, r2
 80043c0:	60cb      	str	r3, [r1, #12]
 80043c2:	e749      	b.n	8004258 <UART_SetConfig+0x7c>
 80043c4:	f7fe ff36 	bl	8003234 <HAL_RCC_GetSysClockFreq>
 80043c8:	e7e3      	b.n	8004392 <UART_SetConfig+0x1b6>
 80043ca:	f7fe ff67 	bl	800329c <HAL_RCC_GetPCLK1Freq>
 80043ce:	e7e0      	b.n	8004392 <UART_SetConfig+0x1b6>
 80043d0:	4b37      	ldr	r3, [pc, #220]	; (80044b0 <UART_SetConfig+0x2d4>)
 80043d2:	f8d3 3090 	ldr.w	r3, [r3, #144]	; 0x90
 80043d6:	f003 0330 	and.w	r3, r3, #48	; 0x30
 80043da:	2b20      	cmp	r3, #32
 80043dc:	d0d1      	beq.n	8004382 <UART_SetConfig+0x1a6>
 80043de:	d804      	bhi.n	80043ea <UART_SetConfig+0x20e>
 80043e0:	2b00      	cmp	r3, #0
 80043e2:	d0a3      	beq.n	800432c <UART_SetConfig+0x150>
 80043e4:	2b10      	cmp	r3, #16
 80043e6:	d09a      	beq.n	800431e <UART_SetConfig+0x142>
 80043e8:	e735      	b.n	8004256 <UART_SetConfig+0x7a>
 80043ea:	2b30      	cmp	r3, #48	; 0x30
 80043ec:	d0a8      	beq.n	8004340 <UART_SetConfig+0x164>
 80043ee:	e732      	b.n	8004256 <UART_SetConfig+0x7a>
 80043f0:	4b2f      	ldr	r3, [pc, #188]	; (80044b0 <UART_SetConfig+0x2d4>)
 80043f2:	f8d3 3090 	ldr.w	r3, [r3, #144]	; 0x90
 80043f6:	f003 03c0 	and.w	r3, r3, #192	; 0xc0
 80043fa:	2b80      	cmp	r3, #128	; 0x80
 80043fc:	d0c1      	beq.n	8004382 <UART_SetConfig+0x1a6>
 80043fe:	d804      	bhi.n	800440a <UART_SetConfig+0x22e>
 8004400:	2b00      	cmp	r3, #0
 8004402:	d093      	beq.n	800432c <UART_SetConfig+0x150>
 8004404:	2b40      	cmp	r3, #64	; 0x40
 8004406:	d08a      	beq.n	800431e <UART_SetConfig+0x142>
 8004408:	e725      	b.n	8004256 <UART_SetConfig+0x7a>
 800440a:	2bc0      	cmp	r3, #192	; 0xc0
 800440c:	d098      	beq.n	8004340 <UART_SetConfig+0x164>
 800440e:	e722      	b.n	8004256 <UART_SetConfig+0x7a>
 8004410:	d807      	bhi.n	8004422 <UART_SetConfig+0x246>
 8004412:	2b00      	cmp	r3, #0
 8004414:	f43f af4e 	beq.w	80042b4 <UART_SetConfig+0xd8>
 8004418:	f5b3 6f80 	cmp.w	r3, #1024	; 0x400
 800441c:	f43f af7f 	beq.w	800431e <UART_SetConfig+0x142>
 8004420:	e719      	b.n	8004256 <UART_SetConfig+0x7a>
 8004422:	f5b3 6f40 	cmp.w	r3, #3072	; 0xc00
 8004426:	d08b      	beq.n	8004340 <UART_SetConfig+0x164>
 8004428:	e715      	b.n	8004256 <UART_SetConfig+0x7a>
 800442a:	4b25      	ldr	r3, [pc, #148]	; (80044c0 <UART_SetConfig+0x2e4>)
 800442c:	e7b4      	b.n	8004398 <UART_SetConfig+0x1bc>
 800442e:	f44f 3380 	mov.w	r3, #65536	; 0x10000
 8004432:	e7b1      	b.n	8004398 <UART_SetConfig+0x1bc>
 8004434:	4b1e      	ldr	r3, [pc, #120]	; (80044b0 <UART_SetConfig+0x2d4>)
 8004436:	f8d3 3090 	ldr.w	r3, [r3, #144]	; 0x90
 800443a:	f403 5340 	and.w	r3, r3, #12288	; 0x3000
 800443e:	f5b3 5f00 	cmp.w	r3, #8192	; 0x2000
 8004442:	d09e      	beq.n	8004382 <UART_SetConfig+0x1a6>
 8004444:	d807      	bhi.n	8004456 <UART_SetConfig+0x27a>
 8004446:	2b00      	cmp	r3, #0
 8004448:	f43f af70 	beq.w	800432c <UART_SetConfig+0x150>
 800444c:	f5b3 5f80 	cmp.w	r3, #4096	; 0x1000
 8004450:	f43f af65 	beq.w	800431e <UART_SetConfig+0x142>
 8004454:	e6ff      	b.n	8004256 <UART_SetConfig+0x7a>
 8004456:	f5b3 5f40 	cmp.w	r3, #12288	; 0x3000
 800445a:	f43f af71 	beq.w	8004340 <UART_SetConfig+0x164>
 800445e:	e6fa      	b.n	8004256 <UART_SetConfig+0x7a>
 8004460:	4b13      	ldr	r3, [pc, #76]	; (80044b0 <UART_SetConfig+0x2d4>)
 8004462:	f8d3 3090 	ldr.w	r3, [r3, #144]	; 0x90
 8004466:	f403 4340 	and.w	r3, r3, #49152	; 0xc000
 800446a:	f5b3 4f00 	cmp.w	r3, #32768	; 0x8000
 800446e:	d088      	beq.n	8004382 <UART_SetConfig+0x1a6>
 8004470:	d807      	bhi.n	8004482 <UART_SetConfig+0x2a6>
 8004472:	2b00      	cmp	r3, #0
 8004474:	f43f af5a 	beq.w	800432c <UART_SetConfig+0x150>
 8004478:	f5b3 4f80 	cmp.w	r3, #16384	; 0x4000
 800447c:	f43f af4f 	beq.w	800431e <UART_SetConfig+0x142>
 8004480:	e6e9      	b.n	8004256 <UART_SetConfig+0x7a>
 8004482:	f5b3 4f40 	cmp.w	r3, #49152	; 0xc000
 8004486:	f43f af5b 	beq.w	8004340 <UART_SetConfig+0x164>
 800448a:	e6e4      	b.n	8004256 <UART_SetConfig+0x7a>
 800448c:	efff69f3 	.word	0xefff69f3
 8004490:	40011000 	.word	0x40011000
 8004494:	40004400 	.word	0x40004400
 8004498:	40004800 	.word	0x40004800
 800449c:	40004c00 	.word	0x40004c00
 80044a0:	40005000 	.word	0x40005000
 80044a4:	40011400 	.word	0x40011400
 80044a8:	40007800 	.word	0x40007800
 80044ac:	40007c00 	.word	0x40007c00
 80044b0:	40023800 	.word	0x40023800
 80044b4:	0800c038 	.word	0x0800c038
 80044b8:	0800c034 	.word	0x0800c034
 80044bc:	00f42400 	.word	0x00f42400
 80044c0:	01e84800 	.word	0x01e84800

080044c4 <UART_AdvFeatureConfig>:
 80044c4:	6a43      	ldr	r3, [r0, #36]	; 0x24
 80044c6:	07da      	lsls	r2, r3, #31
 80044c8:	d507      	bpl.n	80044da <UART_AdvFeatureConfig+0x16>
 80044ca:	6802      	ldr	r2, [r0, #0]
 80044cc:	6a81      	ldr	r1, [r0, #40]	; 0x28
 80044ce:	6853      	ldr	r3, [r2, #4]
 80044d0:	f423 3300 	bic.w	r3, r3, #131072	; 0x20000
 80044d4:	430b      	orrs	r3, r1
 80044d6:	6053      	str	r3, [r2, #4]
 80044d8:	6a43      	ldr	r3, [r0, #36]	; 0x24
 80044da:	0799      	lsls	r1, r3, #30
 80044dc:	d507      	bpl.n	80044ee <UART_AdvFeatureConfig+0x2a>
 80044de:	6802      	ldr	r2, [r0, #0]
 80044e0:	6ac1      	ldr	r1, [r0, #44]	; 0x2c
 80044e2:	6853      	ldr	r3, [r2, #4]
 80044e4:	f423 3380 	bic.w	r3, r3, #65536	; 0x10000
 80044e8:	430b      	orrs	r3, r1
 80044ea:	6053      	str	r3, [r2, #4]
 80044ec:	6a43      	ldr	r3, [r0, #36]	; 0x24
 80044ee:	075a      	lsls	r2, r3, #29
 80044f0:	d507      	bpl.n	8004502 <UART_AdvFeatureConfig+0x3e>
 80044f2:	6802      	ldr	r2, [r0, #0]
 80044f4:	6b01      	ldr	r1, [r0, #48]	; 0x30
 80044f6:	6853      	ldr	r3, [r2, #4]
 80044f8:	f423 2380 	bic.w	r3, r3, #262144	; 0x40000
 80044fc:	430b      	orrs	r3, r1
 80044fe:	6053      	str	r3, [r2, #4]
 8004500:	6a43      	ldr	r3, [r0, #36]	; 0x24
 8004502:	0719      	lsls	r1, r3, #28
 8004504:	d507      	bpl.n	8004516 <UART_AdvFeatureConfig+0x52>
 8004506:	6802      	ldr	r2, [r0, #0]
 8004508:	6b41      	ldr	r1, [r0, #52]	; 0x34
 800450a:	6853      	ldr	r3, [r2, #4]
 800450c:	f423 4300 	bic.w	r3, r3, #32768	; 0x8000
 8004510:	430b      	orrs	r3, r1
 8004512:	6053      	str	r3, [r2, #4]
 8004514:	6a43      	ldr	r3, [r0, #36]	; 0x24
 8004516:	06da      	lsls	r2, r3, #27
 8004518:	d507      	bpl.n	800452a <UART_AdvFeatureConfig+0x66>
 800451a:	6802      	ldr	r2, [r0, #0]
 800451c:	6b81      	ldr	r1, [r0, #56]	; 0x38
 800451e:	6893      	ldr	r3, [r2, #8]
 8004520:	f423 5380 	bic.w	r3, r3, #4096	; 0x1000
 8004524:	430b      	orrs	r3, r1
 8004526:	6093      	str	r3, [r2, #8]
 8004528:	6a43      	ldr	r3, [r0, #36]	; 0x24
 800452a:	0699      	lsls	r1, r3, #26
 800452c:	d507      	bpl.n	800453e <UART_AdvFeatureConfig+0x7a>
 800452e:	6802      	ldr	r2, [r0, #0]
 8004530:	6bc1      	ldr	r1, [r0, #60]	; 0x3c
 8004532:	6893      	ldr	r3, [r2, #8]
 8004534:	f423 5300 	bic.w	r3, r3, #8192	; 0x2000
 8004538:	430b      	orrs	r3, r1
 800453a:	6093      	str	r3, [r2, #8]
 800453c:	6a43      	ldr	r3, [r0, #36]	; 0x24
 800453e:	065a      	lsls	r2, r3, #25
 8004540:	d50b      	bpl.n	800455a <UART_AdvFeatureConfig+0x96>
 8004542:	6802      	ldr	r2, [r0, #0]
 8004544:	6c01      	ldr	r1, [r0, #64]	; 0x40
 8004546:	6853      	ldr	r3, [r2, #4]
 8004548:	f423 1380 	bic.w	r3, r3, #1048576	; 0x100000
 800454c:	430b      	orrs	r3, r1
 800454e:	6053      	str	r3, [r2, #4]
 8004550:	6c03      	ldr	r3, [r0, #64]	; 0x40
 8004552:	f5b3 1f80 	cmp.w	r3, #1048576	; 0x100000
 8004556:	d00a      	beq.n	800456e <UART_AdvFeatureConfig+0xaa>
 8004558:	6a43      	ldr	r3, [r0, #36]	; 0x24
 800455a:	061b      	lsls	r3, r3, #24
 800455c:	d506      	bpl.n	800456c <UART_AdvFeatureConfig+0xa8>
 800455e:	6802      	ldr	r2, [r0, #0]
 8004560:	6c81      	ldr	r1, [r0, #72]	; 0x48
 8004562:	6853      	ldr	r3, [r2, #4]
 8004564:	f423 2300 	bic.w	r3, r3, #524288	; 0x80000
 8004568:	430b      	orrs	r3, r1
 800456a:	6053      	str	r3, [r2, #4]
 800456c:	4770      	bx	lr
 800456e:	6802      	ldr	r2, [r0, #0]
 8004570:	6c41      	ldr	r1, [r0, #68]	; 0x44
 8004572:	6853      	ldr	r3, [r2, #4]
 8004574:	f423 03c0 	bic.w	r3, r3, #6291456	; 0x600000
 8004578:	430b      	orrs	r3, r1
 800457a:	6053      	str	r3, [r2, #4]
 800457c:	e7ec      	b.n	8004558 <UART_AdvFeatureConfig+0x94>
 800457e:	bf00      	nop

08004580 <UART_WaitOnFlagUntilTimeout>:
 8004580:	e92d 43f8 	stmdb	sp!, {r3, r4, r5, r6, r7, r8, r9, lr}
 8004584:	f8dd 8020 	ldr.w	r8, [sp, #32]
 8004588:	4607      	mov	r7, r0
 800458a:	460e      	mov	r6, r1
 800458c:	4615      	mov	r5, r2
 800458e:	4699      	mov	r9, r3
 8004590:	6804      	ldr	r4, [r0, #0]
 8004592:	f1b8 3fff 	cmp.w	r8, #4294967295
 8004596:	d10a      	bne.n	80045ae <UART_WaitOnFlagUntilTimeout+0x2e>
 8004598:	69e3      	ldr	r3, [r4, #28]
 800459a:	ea36 0303 	bics.w	r3, r6, r3
 800459e:	bf0c      	ite	eq
 80045a0:	2301      	moveq	r3, #1
 80045a2:	2300      	movne	r3, #0
 80045a4:	42ab      	cmp	r3, r5
 80045a6:	d0f7      	beq.n	8004598 <UART_WaitOnFlagUntilTimeout+0x18>
 80045a8:	2000      	movs	r0, #0
 80045aa:	e8bd 83f8 	ldmia.w	sp!, {r3, r4, r5, r6, r7, r8, r9, pc}
 80045ae:	69e3      	ldr	r3, [r4, #28]
 80045b0:	ea36 0303 	bics.w	r3, r6, r3
 80045b4:	bf0c      	ite	eq
 80045b6:	2301      	moveq	r3, #1
 80045b8:	2300      	movne	r3, #0
 80045ba:	42ab      	cmp	r3, r5
 80045bc:	d1f4      	bne.n	80045a8 <UART_WaitOnFlagUntilTimeout+0x28>
 80045be:	f7fd fb67 	bl	8001c90 <HAL_GetTick>
 80045c2:	eba0 0009 	sub.w	r0, r0, r9
 80045c6:	4540      	cmp	r0, r8
 80045c8:	d82b      	bhi.n	8004622 <UART_WaitOnFlagUntilTimeout+0xa2>
 80045ca:	f1b8 0f00 	cmp.w	r8, #0
 80045ce:	d028      	beq.n	8004622 <UART_WaitOnFlagUntilTimeout+0xa2>
 80045d0:	683c      	ldr	r4, [r7, #0]
 80045d2:	6823      	ldr	r3, [r4, #0]
 80045d4:	075a      	lsls	r2, r3, #29
 80045d6:	d5dc      	bpl.n	8004592 <UART_WaitOnFlagUntilTimeout+0x12>
 80045d8:	69e3      	ldr	r3, [r4, #28]
 80045da:	051b      	lsls	r3, r3, #20
 80045dc:	d5d9      	bpl.n	8004592 <UART_WaitOnFlagUntilTimeout+0x12>
 80045de:	f44f 6300 	mov.w	r3, #2048	; 0x800
 80045e2:	6223      	str	r3, [r4, #32]
 80045e4:	683a      	ldr	r2, [r7, #0]
 80045e6:	e852 3f00 	ldrex	r3, [r2]
 80045ea:	f423 73d0 	bic.w	r3, r3, #416	; 0x1a0
 80045ee:	e842 3100 	strex	r1, r3, [r2]
 80045f2:	2900      	cmp	r1, #0
 80045f4:	d1f6      	bne.n	80045e4 <UART_WaitOnFlagUntilTimeout+0x64>
 80045f6:	683a      	ldr	r2, [r7, #0]
 80045f8:	f102 0308 	add.w	r3, r2, #8
 80045fc:	e853 3f00 	ldrex	r3, [r3]
 8004600:	f023 0301 	bic.w	r3, r3, #1
 8004604:	3208      	adds	r2, #8
 8004606:	e842 3100 	strex	r1, r3, [r2]
 800460a:	2900      	cmp	r1, #0
 800460c:	d1f3      	bne.n	80045f6 <UART_WaitOnFlagUntilTimeout+0x76>
 800460e:	2320      	movs	r3, #32
 8004610:	2003      	movs	r0, #3
 8004612:	f887 1078 	strb.w	r1, [r7, #120]	; 0x78
 8004616:	67fb      	str	r3, [r7, #124]	; 0x7c
 8004618:	f8c7 3080 	str.w	r3, [r7, #128]	; 0x80
 800461c:	f8c7 3084 	str.w	r3, [r7, #132]	; 0x84
 8004620:	e7c3      	b.n	80045aa <UART_WaitOnFlagUntilTimeout+0x2a>
 8004622:	683a      	ldr	r2, [r7, #0]
 8004624:	e852 3f00 	ldrex	r3, [r2]
 8004628:	f423 73d0 	bic.w	r3, r3, #416	; 0x1a0
 800462c:	e842 3100 	strex	r1, r3, [r2]
 8004630:	2900      	cmp	r1, #0
 8004632:	d1f6      	bne.n	8004622 <UART_WaitOnFlagUntilTimeout+0xa2>
 8004634:	683a      	ldr	r2, [r7, #0]
 8004636:	f102 0308 	add.w	r3, r2, #8
 800463a:	e853 3f00 	ldrex	r3, [r3]
 800463e:	f023 0301 	bic.w	r3, r3, #1
 8004642:	3208      	adds	r2, #8
 8004644:	e842 3100 	strex	r1, r3, [r2]
 8004648:	2900      	cmp	r1, #0
 800464a:	d1f3      	bne.n	8004634 <UART_WaitOnFlagUntilTimeout+0xb4>
 800464c:	2320      	movs	r3, #32
 800464e:	2003      	movs	r0, #3
 8004650:	f887 1078 	strb.w	r1, [r7, #120]	; 0x78
 8004654:	67fb      	str	r3, [r7, #124]	; 0x7c
 8004656:	f8c7 3080 	str.w	r3, [r7, #128]	; 0x80
 800465a:	e7a6      	b.n	80045aa <UART_WaitOnFlagUntilTimeout+0x2a>

0800465c <HAL_UART_Transmit>:
 800465c:	e92d 43f0 	stmdb	sp!, {r4, r5, r6, r7, r8, r9, lr}
 8004660:	461e      	mov	r6, r3
 8004662:	6fc3      	ldr	r3, [r0, #124]	; 0x7c
 8004664:	b083      	sub	sp, #12
 8004666:	2b20      	cmp	r3, #32
 8004668:	f040 809e 	bne.w	80047a8 <HAL_UART_Transmit+0x14c>
 800466c:	4689      	mov	r9, r1
 800466e:	2900      	cmp	r1, #0
 8004670:	d03f      	beq.n	80046f2 <HAL_UART_Transmit+0x96>
 8004672:	fab2 f782 	clz	r7, r2
 8004676:	4614      	mov	r4, r2
 8004678:	097f      	lsrs	r7, r7, #5
 800467a:	2a00      	cmp	r2, #0
 800467c:	d039      	beq.n	80046f2 <HAL_UART_Transmit+0x96>
 800467e:	2321      	movs	r3, #33	; 0x21
 8004680:	4605      	mov	r5, r0
 8004682:	f8c0 7084 	str.w	r7, [r0, #132]	; 0x84
 8004686:	67c3      	str	r3, [r0, #124]	; 0x7c
 8004688:	f7fd fb02 	bl	8001c90 <HAL_GetTick>
 800468c:	68ab      	ldr	r3, [r5, #8]
 800468e:	4680      	mov	r8, r0
 8004690:	f8a5 4050 	strh.w	r4, [r5, #80]	; 0x50
 8004694:	f5b3 5f80 	cmp.w	r3, #4096	; 0x1000
 8004698:	f8a5 4052 	strh.w	r4, [r5, #82]	; 0x52
 800469c:	f000 8088 	beq.w	80047b0 <HAL_UART_Transmit+0x154>
 80046a0:	f8b5 3052 	ldrh.w	r3, [r5, #82]	; 0x52
 80046a4:	b29b      	uxth	r3, r3
 80046a6:	b1b3      	cbz	r3, 80046d6 <HAL_UART_Transmit+0x7a>
 80046a8:	682c      	ldr	r4, [r5, #0]
 80046aa:	1c71      	adds	r1, r6, #1
 80046ac:	d125      	bne.n	80046fa <HAL_UART_Transmit+0x9e>
 80046ae:	69e2      	ldr	r2, [r4, #28]
 80046b0:	0612      	lsls	r2, r2, #24
 80046b2:	d5fc      	bpl.n	80046ae <HAL_UART_Transmit+0x52>
 80046b4:	f1b9 0f00 	cmp.w	r9, #0
 80046b8:	d071      	beq.n	800479e <HAL_UART_Transmit+0x142>
 80046ba:	f819 3b01 	ldrb.w	r3, [r9], #1
 80046be:	62a3      	str	r3, [r4, #40]	; 0x28
 80046c0:	f8b5 3052 	ldrh.w	r3, [r5, #82]	; 0x52
 80046c4:	3b01      	subs	r3, #1
 80046c6:	b29b      	uxth	r3, r3
 80046c8:	f8a5 3052 	strh.w	r3, [r5, #82]	; 0x52
 80046cc:	f8b5 3052 	ldrh.w	r3, [r5, #82]	; 0x52
 80046d0:	b29b      	uxth	r3, r3
 80046d2:	2b00      	cmp	r3, #0
 80046d4:	d1e8      	bne.n	80046a8 <HAL_UART_Transmit+0x4c>
 80046d6:	4643      	mov	r3, r8
 80046d8:	2200      	movs	r2, #0
 80046da:	2140      	movs	r1, #64	; 0x40
 80046dc:	4628      	mov	r0, r5
 80046de:	9600      	str	r6, [sp, #0]
 80046e0:	f7ff ff4e 	bl	8004580 <UART_WaitOnFlagUntilTimeout>
 80046e4:	2800      	cmp	r0, #0
 80046e6:	d16a      	bne.n	80047be <HAL_UART_Transmit+0x162>
 80046e8:	2320      	movs	r3, #32
 80046ea:	67eb      	str	r3, [r5, #124]	; 0x7c
 80046ec:	b003      	add	sp, #12
 80046ee:	e8bd 83f0 	ldmia.w	sp!, {r4, r5, r6, r7, r8, r9, pc}
 80046f2:	2001      	movs	r0, #1
 80046f4:	b003      	add	sp, #12
 80046f6:	e8bd 83f0 	ldmia.w	sp!, {r4, r5, r6, r7, r8, r9, pc}
 80046fa:	69e3      	ldr	r3, [r4, #28]
 80046fc:	061b      	lsls	r3, r3, #24
 80046fe:	d4d9      	bmi.n	80046b4 <HAL_UART_Transmit+0x58>
 8004700:	f7fd fac6 	bl	8001c90 <HAL_GetTick>
 8004704:	eba0 0008 	sub.w	r0, r0, r8
 8004708:	4286      	cmp	r6, r0
 800470a:	d329      	bcc.n	8004760 <HAL_UART_Transmit+0x104>
 800470c:	b346      	cbz	r6, 8004760 <HAL_UART_Transmit+0x104>
 800470e:	682c      	ldr	r4, [r5, #0]
 8004710:	6823      	ldr	r3, [r4, #0]
 8004712:	075b      	lsls	r3, r3, #29
 8004714:	d5c9      	bpl.n	80046aa <HAL_UART_Transmit+0x4e>
 8004716:	69e3      	ldr	r3, [r4, #28]
 8004718:	0518      	lsls	r0, r3, #20
 800471a:	d5c6      	bpl.n	80046aa <HAL_UART_Transmit+0x4e>
 800471c:	f44f 6300 	mov.w	r3, #2048	; 0x800
 8004720:	6223      	str	r3, [r4, #32]
 8004722:	682a      	ldr	r2, [r5, #0]
 8004724:	e852 3f00 	ldrex	r3, [r2]
 8004728:	f423 73d0 	bic.w	r3, r3, #416	; 0x1a0
 800472c:	e842 3100 	strex	r1, r3, [r2]
 8004730:	2900      	cmp	r1, #0
 8004732:	d1f6      	bne.n	8004722 <HAL_UART_Transmit+0xc6>
 8004734:	682a      	ldr	r2, [r5, #0]
 8004736:	f102 0308 	add.w	r3, r2, #8
 800473a:	e853 3f00 	ldrex	r3, [r3]
 800473e:	f023 0301 	bic.w	r3, r3, #1
 8004742:	3208      	adds	r2, #8
 8004744:	e842 3100 	strex	r1, r3, [r2]
 8004748:	2900      	cmp	r1, #0
 800474a:	d1f3      	bne.n	8004734 <HAL_UART_Transmit+0xd8>
 800474c:	2320      	movs	r3, #32
 800474e:	2003      	movs	r0, #3
 8004750:	f885 1078 	strb.w	r1, [r5, #120]	; 0x78
 8004754:	67eb      	str	r3, [r5, #124]	; 0x7c
 8004756:	f8c5 3080 	str.w	r3, [r5, #128]	; 0x80
 800475a:	f8c5 3084 	str.w	r3, [r5, #132]	; 0x84
 800475e:	e7c9      	b.n	80046f4 <HAL_UART_Transmit+0x98>
 8004760:	682a      	ldr	r2, [r5, #0]
 8004762:	e852 3f00 	ldrex	r3, [r2]
 8004766:	f423 73d0 	bic.w	r3, r3, #416	; 0x1a0
 800476a:	e842 3100 	strex	r1, r3, [r2]
 800476e:	2900      	cmp	r1, #0
 8004770:	d1f6      	bne.n	8004760 <HAL_UART_Transmit+0x104>
 8004772:	682a      	ldr	r2, [r5, #0]
 8004774:	f102 0308 	add.w	r3, r2, #8
 8004778:	e853 3f00 	ldrex	r3, [r3]
 800477c:	f023 0301 	bic.w	r3, r3, #1
 8004780:	3208      	adds	r2, #8
 8004782:	e842 3100 	strex	r1, r3, [r2]
 8004786:	2900      	cmp	r1, #0
 8004788:	d1f3      	bne.n	8004772 <HAL_UART_Transmit+0x116>
 800478a:	2320      	movs	r3, #32
 800478c:	2003      	movs	r0, #3
 800478e:	f885 1078 	strb.w	r1, [r5, #120]	; 0x78
 8004792:	67eb      	str	r3, [r5, #124]	; 0x7c
 8004794:	f8c5 3080 	str.w	r3, [r5, #128]	; 0x80
 8004798:	b003      	add	sp, #12
 800479a:	e8bd 83f0 	ldmia.w	sp!, {r4, r5, r6, r7, r8, r9, pc}
 800479e:	f837 3b02 	ldrh.w	r3, [r7], #2
 80047a2:	f3c3 0308 	ubfx	r3, r3, #0, #9
 80047a6:	e78a      	b.n	80046be <HAL_UART_Transmit+0x62>
 80047a8:	2002      	movs	r0, #2
 80047aa:	b003      	add	sp, #12
 80047ac:	e8bd 83f0 	ldmia.w	sp!, {r4, r5, r6, r7, r8, r9, pc}
 80047b0:	692b      	ldr	r3, [r5, #16]
 80047b2:	2b00      	cmp	r3, #0
 80047b4:	f47f af74 	bne.w	80046a0 <HAL_UART_Transmit+0x44>
 80047b8:	464f      	mov	r7, r9
 80047ba:	4699      	mov	r9, r3
 80047bc:	e770      	b.n	80046a0 <HAL_UART_Transmit+0x44>
 80047be:	2003      	movs	r0, #3
 80047c0:	e798      	b.n	80046f4 <HAL_UART_Transmit+0x98>
 80047c2:	bf00      	nop

080047c4 <HAL_UART_Init>:
 80047c4:	2800      	cmp	r0, #0
 80047c6:	d052      	beq.n	800486e <HAL_UART_Init+0xaa>
 80047c8:	b570      	push	{r4, r5, r6, lr}
 80047ca:	6fc3      	ldr	r3, [r0, #124]	; 0x7c
 80047cc:	b082      	sub	sp, #8
 80047ce:	4604      	mov	r4, r0
 80047d0:	2b00      	cmp	r3, #0
 80047d2:	d047      	beq.n	8004864 <HAL_UART_Init+0xa0>
 80047d4:	6822      	ldr	r2, [r4, #0]
 80047d6:	2324      	movs	r3, #36	; 0x24
 80047d8:	4620      	mov	r0, r4
 80047da:	67e3      	str	r3, [r4, #124]	; 0x7c
 80047dc:	6813      	ldr	r3, [r2, #0]
 80047de:	f023 0301 	bic.w	r3, r3, #1
 80047e2:	6013      	str	r3, [r2, #0]
 80047e4:	f7ff fcfa 	bl	80041dc <UART_SetConfig>
 80047e8:	2801      	cmp	r0, #1
 80047ea:	d038      	beq.n	800485e <HAL_UART_Init+0x9a>
 80047ec:	6a63      	ldr	r3, [r4, #36]	; 0x24
 80047ee:	2b00      	cmp	r3, #0
 80047f0:	d131      	bne.n	8004856 <HAL_UART_Init+0x92>
 80047f2:	6822      	ldr	r2, [r4, #0]
 80047f4:	2500      	movs	r5, #0
 80047f6:	6853      	ldr	r3, [r2, #4]
 80047f8:	f423 4390 	bic.w	r3, r3, #18432	; 0x4800
 80047fc:	6053      	str	r3, [r2, #4]
 80047fe:	6821      	ldr	r1, [r4, #0]
 8004800:	688b      	ldr	r3, [r1, #8]
 8004802:	f023 032a 	bic.w	r3, r3, #42	; 0x2a
 8004806:	608b      	str	r3, [r1, #8]
 8004808:	6821      	ldr	r1, [r4, #0]
 800480a:	680b      	ldr	r3, [r1, #0]
 800480c:	f043 0301 	orr.w	r3, r3, #1
 8004810:	600b      	str	r3, [r1, #0]
 8004812:	f8c4 5084 	str.w	r5, [r4, #132]	; 0x84
 8004816:	f7fd fa3b 	bl	8001c90 <HAL_GetTick>
 800481a:	6823      	ldr	r3, [r4, #0]
 800481c:	681b      	ldr	r3, [r3, #0]
 800481e:	071b      	lsls	r3, r3, #28
 8004820:	d40b      	bmi.n	800483a <HAL_UART_Init+0x76>
 8004822:	2300      	movs	r3, #0
 8004824:	2220      	movs	r2, #32
 8004826:	4618      	mov	r0, r3
 8004828:	67e2      	str	r2, [r4, #124]	; 0x7c
 800482a:	f884 3078 	strb.w	r3, [r4, #120]	; 0x78
 800482e:	f8c4 2080 	str.w	r2, [r4, #128]	; 0x80
 8004832:	6623      	str	r3, [r4, #96]	; 0x60
 8004834:	6663      	str	r3, [r4, #100]	; 0x64
 8004836:	b002      	add	sp, #8
 8004838:	bd70      	pop	{r4, r5, r6, pc}
 800483a:	f06f 467e 	mvn.w	r6, #4261412864	; 0xfe000000
 800483e:	4603      	mov	r3, r0
 8004840:	462a      	mov	r2, r5
 8004842:	f44f 1100 	mov.w	r1, #2097152	; 0x200000
 8004846:	4620      	mov	r0, r4
 8004848:	9600      	str	r6, [sp, #0]
 800484a:	f7ff fe99 	bl	8004580 <UART_WaitOnFlagUntilTimeout>
 800484e:	2800      	cmp	r0, #0
 8004850:	d0e7      	beq.n	8004822 <HAL_UART_Init+0x5e>
 8004852:	2003      	movs	r0, #3
 8004854:	e7ef      	b.n	8004836 <HAL_UART_Init+0x72>
 8004856:	4620      	mov	r0, r4
 8004858:	f7ff fe34 	bl	80044c4 <UART_AdvFeatureConfig>
 800485c:	e7c9      	b.n	80047f2 <HAL_UART_Init+0x2e>
 800485e:	2001      	movs	r0, #1
 8004860:	b002      	add	sp, #8
 8004862:	bd70      	pop	{r4, r5, r6, pc}
 8004864:	f880 3078 	strb.w	r3, [r0, #120]	; 0x78
 8004868:	f7fd f87e 	bl	8001968 <HAL_UART_MspInit>
 800486c:	e7b2      	b.n	80047d4 <HAL_UART_Init+0x10>
 800486e:	2001      	movs	r0, #1
 8004870:	4770      	bx	lr
 8004872:	bf00      	nop

08004874 <UART_Start_Receive_DMA>:
 8004874:	b538      	push	{r3, r4, r5, lr}
 8004876:	2500      	movs	r5, #0
 8004878:	2322      	movs	r3, #34	; 0x22
 800487a:	6541      	str	r1, [r0, #84]	; 0x54
 800487c:	4604      	mov	r4, r0
 800487e:	6f41      	ldr	r1, [r0, #116]	; 0x74
 8004880:	f8c0 5084 	str.w	r5, [r0, #132]	; 0x84
 8004884:	f8a0 2058 	strh.w	r2, [r0, #88]	; 0x58
 8004888:	f8c0 3080 	str.w	r3, [r0, #128]	; 0x80
 800488c:	b189      	cbz	r1, 80048b2 <UART_Start_Receive_DMA+0x3e>
 800488e:	481f      	ldr	r0, [pc, #124]	; (800490c <UART_Start_Receive_DMA+0x98>)
 8004890:	4613      	mov	r3, r2
 8004892:	63c8      	str	r0, [r1, #60]	; 0x3c
 8004894:	491e      	ldr	r1, [pc, #120]	; (8004910 <UART_Start_Receive_DMA+0x9c>)
 8004896:	6f62      	ldr	r2, [r4, #116]	; 0x74
 8004898:	6411      	str	r1, [r2, #64]	; 0x40
 800489a:	491e      	ldr	r1, [pc, #120]	; (8004914 <UART_Start_Receive_DMA+0xa0>)
 800489c:	6f62      	ldr	r2, [r4, #116]	; 0x74
 800489e:	64d1      	str	r1, [r2, #76]	; 0x4c
 80048a0:	6f62      	ldr	r2, [r4, #116]	; 0x74
 80048a2:	6515      	str	r5, [r2, #80]	; 0x50
 80048a4:	6821      	ldr	r1, [r4, #0]
 80048a6:	6d62      	ldr	r2, [r4, #84]	; 0x54
 80048a8:	6f60      	ldr	r0, [r4, #116]	; 0x74
 80048aa:	3124      	adds	r1, #36	; 0x24
 80048ac:	f7fd fede 	bl	800266c <HAL_DMA_Start_IT>
 80048b0:	bb18      	cbnz	r0, 80048fa <UART_Start_Receive_DMA+0x86>
 80048b2:	6923      	ldr	r3, [r4, #16]
 80048b4:	b143      	cbz	r3, 80048c8 <UART_Start_Receive_DMA+0x54>
 80048b6:	6822      	ldr	r2, [r4, #0]
 80048b8:	e852 3f00 	ldrex	r3, [r2]
 80048bc:	f443 7380 	orr.w	r3, r3, #256	; 0x100
 80048c0:	e842 3100 	strex	r1, r3, [r2]
 80048c4:	2900      	cmp	r1, #0
 80048c6:	d1f6      	bne.n	80048b6 <UART_Start_Receive_DMA+0x42>
 80048c8:	6822      	ldr	r2, [r4, #0]
 80048ca:	f102 0308 	add.w	r3, r2, #8
 80048ce:	e853 3f00 	ldrex	r3, [r3]
 80048d2:	f043 0301 	orr.w	r3, r3, #1
 80048d6:	3208      	adds	r2, #8
 80048d8:	e842 3100 	strex	r1, r3, [r2]
 80048dc:	2900      	cmp	r1, #0
 80048de:	d1f3      	bne.n	80048c8 <UART_Start_Receive_DMA+0x54>
 80048e0:	6822      	ldr	r2, [r4, #0]
 80048e2:	f102 0308 	add.w	r3, r2, #8
 80048e6:	e853 3f00 	ldrex	r3, [r3]
 80048ea:	f043 0340 	orr.w	r3, r3, #64	; 0x40
 80048ee:	3208      	adds	r2, #8
 80048f0:	e842 3000 	strex	r0, r3, [r2]
 80048f4:	2800      	cmp	r0, #0
 80048f6:	d1f3      	bne.n	80048e0 <UART_Start_Receive_DMA+0x6c>
 80048f8:	bd38      	pop	{r3, r4, r5, pc}
 80048fa:	2210      	movs	r2, #16
 80048fc:	2320      	movs	r3, #32
 80048fe:	2001      	movs	r0, #1
 8004900:	f8c4 2084 	str.w	r2, [r4, #132]	; 0x84
 8004904:	f8c4 3080 	str.w	r3, [r4, #128]	; 0x80
 8004908:	bd38      	pop	{r3, r4, r5, pc}
 800490a:	bf00      	nop
 800490c:	0800414d 	.word	0x0800414d
 8004910:	0800412d 	.word	0x0800412d
 8004914:	08003d29 	.word	0x08003d29

08004918 <HAL_UARTEx_ReceiveToIdle_DMA>:
 8004918:	b570      	push	{r4, r5, r6, lr}
 800491a:	f8d0 6080 	ldr.w	r6, [r0, #128]	; 0x80
 800491e:	2e20      	cmp	r6, #32
 8004920:	d110      	bne.n	8004944 <HAL_UARTEx_ReceiveToIdle_DMA+0x2c>
 8004922:	b169      	cbz	r1, 8004940 <HAL_UARTEx_ReceiveToIdle_DMA+0x28>
 8004924:	fab2 f582 	clz	r5, r2
 8004928:	096d      	lsrs	r5, r5, #5
 800492a:	b14a      	cbz	r2, 8004940 <HAL_UARTEx_ReceiveToIdle_DMA+0x28>
 800492c:	2301      	movs	r3, #1
 800492e:	4604      	mov	r4, r0
 8004930:	6603      	str	r3, [r0, #96]	; 0x60
 8004932:	6645      	str	r5, [r0, #100]	; 0x64
 8004934:	f7ff ff9e 	bl	8004874 <UART_Start_Receive_DMA>
 8004938:	b918      	cbnz	r0, 8004942 <HAL_UARTEx_ReceiveToIdle_DMA+0x2a>
 800493a:	6e23      	ldr	r3, [r4, #96]	; 0x60
 800493c:	2b01      	cmp	r3, #1
 800493e:	d003      	beq.n	8004948 <HAL_UARTEx_ReceiveToIdle_DMA+0x30>
 8004940:	2001      	movs	r0, #1
 8004942:	bd70      	pop	{r4, r5, r6, pc}
 8004944:	2002      	movs	r0, #2
 8004946:	bd70      	pop	{r4, r5, r6, pc}
 8004948:	6823      	ldr	r3, [r4, #0]
 800494a:	2210      	movs	r2, #16
 800494c:	621a      	str	r2, [r3, #32]
 800494e:	6822      	ldr	r2, [r4, #0]
 8004950:	e852 3f00 	ldrex	r3, [r2]
 8004954:	f043 0310 	orr.w	r3, r3, #16
 8004958:	e842 3100 	strex	r1, r3, [r2]
 800495c:	2900      	cmp	r1, #0
 800495e:	d1f6      	bne.n	800494e <HAL_UARTEx_ReceiveToIdle_DMA+0x36>
 8004960:	bd70      	pop	{r4, r5, r6, pc}
 8004962:	bf00      	nop

08004964 <osKernelStart>:
 8004964:	b508      	push	{r3, lr}
 8004966:	f001 fc61 	bl	800622c <vTaskStartScheduler>
 800496a:	2000      	movs	r0, #0
 800496c:	bd08      	pop	{r3, pc}
 800496e:	bf00      	nop

08004970 <osKernelSysTick>:
 8004970:	f3ef 8305 	mrs	r3, IPSR
 8004974:	b10b      	cbz	r3, 800497a <osKernelSysTick+0xa>
 8004976:	f001 bd67 	b.w	8006448 <xTaskGetTickCountFromISR>
 800497a:	f001 bd5f 	b.w	800643c <xTaskGetTickCount>
 800497e:	bf00      	nop

08004980 <osThreadCreate>:
 8004980:	4684      	mov	ip, r0
 8004982:	460b      	mov	r3, r1
 8004984:	b510      	push	{r4, lr}
 8004986:	f8dc 1000 	ldr.w	r1, [ip]
 800498a:	b084      	sub	sp, #16
 800498c:	f8bc 2010 	ldrh.w	r2, [ip, #16]
 8004990:	f9bc c008 	ldrsh.w	ip, [ip, #8]
 8004994:	6840      	ldr	r0, [r0, #4]
 8004996:	f1bc 0f84 	cmp.w	ip, #132	; 0x84
 800499a:	bf14      	ite	ne
 800499c:	f10c 0403 	addne.w	r4, ip, #3
 80049a0:	2400      	moveq	r4, #0
 80049a2:	9400      	str	r4, [sp, #0]
 80049a4:	ac03      	add	r4, sp, #12
 80049a6:	9401      	str	r4, [sp, #4]
 80049a8:	f001 fad8 	bl	8005f5c <xTaskCreate>
 80049ac:	2801      	cmp	r0, #1
 80049ae:	bf0c      	ite	eq
 80049b0:	9803      	ldreq	r0, [sp, #12]
 80049b2:	2000      	movne	r0, #0
 80049b4:	b004      	add	sp, #16
 80049b6:	bd10      	pop	{r4, pc}

080049b8 <osThreadGetId>:
 80049b8:	f002 b8e8 	b.w	8006b8c <xTaskGetCurrentTaskHandle>

080049bc <osThreadSetPriority>:
 80049bc:	2984      	cmp	r1, #132	; 0x84
 80049be:	b508      	push	{r3, lr}
 80049c0:	bf14      	ite	ne
 80049c2:	3103      	addne	r1, #3
 80049c4:	2100      	moveq	r1, #0
 80049c6:	f001 fbbd 	bl	8006144 <vTaskPrioritySet>
 80049ca:	2000      	movs	r0, #0
 80049cc:	bd08      	pop	{r3, pc}
 80049ce:	bf00      	nop

080049d0 <osDelay>:
 80049d0:	2801      	cmp	r0, #1
 80049d2:	b508      	push	{r3, lr}
 80049d4:	bf38      	it	cc
 80049d6:	2001      	movcc	r0, #1
 80049d8:	f001 fea2 	bl	8006720 <vTaskDelay>
 80049dc:	2000      	movs	r0, #0
 80049de:	bd08      	pop	{r3, pc}

080049e0 <osTimerCreate>:
 80049e0:	b500      	push	{lr}
 80049e2:	468c      	mov	ip, r1
 80049e4:	b083      	sub	sp, #12
 80049e6:	4613      	mov	r3, r2
 80049e8:	2101      	movs	r1, #1
 80049ea:	6802      	ldr	r2, [r0, #0]
 80049ec:	4805      	ldr	r0, [pc, #20]	; (8004a04 <osTimerCreate+0x24>)
 80049ee:	9200      	str	r2, [sp, #0]
 80049f0:	ebac 0201 	sub.w	r2, ip, r1
 80049f4:	fab2 f282 	clz	r2, r2
 80049f8:	0952      	lsrs	r2, r2, #5
 80049fa:	f002 fbf1 	bl	80071e0 <xTimerCreate>
 80049fe:	b003      	add	sp, #12
 8004a00:	f85d fb04 	ldr.w	pc, [sp], #4
 8004a04:	0800c15c 	.word	0x0800c15c

08004a08 <osTimerStart>:
 8004a08:	b510      	push	{r4, lr}
 8004a0a:	2901      	cmp	r1, #1
 8004a0c:	b084      	sub	sp, #16
 8004a0e:	f04f 0400 	mov.w	r4, #0
 8004a12:	460a      	mov	r2, r1
 8004a14:	bf38      	it	cc
 8004a16:	2201      	movcc	r2, #1
 8004a18:	9403      	str	r4, [sp, #12]
 8004a1a:	f3ef 8305 	mrs	r3, IPSR
 8004a1e:	b14b      	cbz	r3, 8004a34 <osTimerStart+0x2c>
 8004a20:	ab03      	add	r3, sp, #12
 8004a22:	2109      	movs	r1, #9
 8004a24:	9400      	str	r4, [sp, #0]
 8004a26:	f002 fc3f 	bl	80072a8 <xTimerGenericCommand>
 8004a2a:	2801      	cmp	r0, #1
 8004a2c:	d00b      	beq.n	8004a46 <osTimerStart+0x3e>
 8004a2e:	20ff      	movs	r0, #255	; 0xff
 8004a30:	b004      	add	sp, #16
 8004a32:	bd10      	pop	{r4, pc}
 8004a34:	2104      	movs	r1, #4
 8004a36:	9300      	str	r3, [sp, #0]
 8004a38:	f002 fc36 	bl	80072a8 <xTimerGenericCommand>
 8004a3c:	2801      	cmp	r0, #1
 8004a3e:	d1f6      	bne.n	8004a2e <osTimerStart+0x26>
 8004a40:	2000      	movs	r0, #0
 8004a42:	b004      	add	sp, #16
 8004a44:	bd10      	pop	{r4, pc}
 8004a46:	9b03      	ldr	r3, [sp, #12]
 8004a48:	2b00      	cmp	r3, #0
 8004a4a:	d0f9      	beq.n	8004a40 <osTimerStart+0x38>
 8004a4c:	f04f 23e0 	mov.w	r3, #3758153728	; 0xe000e000
 8004a50:	f04f 5280 	mov.w	r2, #268435456	; 0x10000000
 8004a54:	f8c3 2d04 	str.w	r2, [r3, #3332]	; 0xd04
 8004a58:	f3bf 8f4f 	dsb	sy
 8004a5c:	f3bf 8f6f 	isb	sy
 8004a60:	4620      	mov	r0, r4
 8004a62:	b004      	add	sp, #16
 8004a64:	bd10      	pop	{r4, pc}
 8004a66:	bf00      	nop

08004a68 <osTimerStop>:
 8004a68:	b510      	push	{r4, lr}
 8004a6a:	2400      	movs	r4, #0
 8004a6c:	b084      	sub	sp, #16
 8004a6e:	9403      	str	r4, [sp, #12]
 8004a70:	f3ef 8305 	mrs	r3, IPSR
 8004a74:	b1b3      	cbz	r3, 8004aa4 <osTimerStop+0x3c>
 8004a76:	ab03      	add	r3, sp, #12
 8004a78:	4622      	mov	r2, r4
 8004a7a:	2108      	movs	r1, #8
 8004a7c:	9400      	str	r4, [sp, #0]
 8004a7e:	f002 fc13 	bl	80072a8 <xTimerGenericCommand>
 8004a82:	2801      	cmp	r0, #1
 8004a84:	d115      	bne.n	8004ab2 <osTimerStop+0x4a>
 8004a86:	9b03      	ldr	r3, [sp, #12]
 8004a88:	b1b3      	cbz	r3, 8004ab8 <osTimerStop+0x50>
 8004a8a:	f04f 23e0 	mov.w	r3, #3758153728	; 0xe000e000
 8004a8e:	f04f 5280 	mov.w	r2, #268435456	; 0x10000000
 8004a92:	f8c3 2d04 	str.w	r2, [r3, #3332]	; 0xd04
 8004a96:	f3bf 8f4f 	dsb	sy
 8004a9a:	f3bf 8f6f 	isb	sy
 8004a9e:	4620      	mov	r0, r4
 8004aa0:	b004      	add	sp, #16
 8004aa2:	bd10      	pop	{r4, pc}
 8004aa4:	461a      	mov	r2, r3
 8004aa6:	2103      	movs	r1, #3
 8004aa8:	9300      	str	r3, [sp, #0]
 8004aaa:	f002 fbfd 	bl	80072a8 <xTimerGenericCommand>
 8004aae:	2801      	cmp	r0, #1
 8004ab0:	d002      	beq.n	8004ab8 <osTimerStop+0x50>
 8004ab2:	20ff      	movs	r0, #255	; 0xff
 8004ab4:	b004      	add	sp, #16
 8004ab6:	bd10      	pop	{r4, pc}
 8004ab8:	2000      	movs	r0, #0
 8004aba:	b004      	add	sp, #16
 8004abc:	bd10      	pop	{r4, pc}
 8004abe:	bf00      	nop

08004ac0 <osMutexCreate>:
 8004ac0:	2001      	movs	r0, #1
 8004ac2:	f000 bc75 	b.w	80053b0 <xQueueCreateMutex>
 8004ac6:	bf00      	nop

08004ac8 <osMutexWait>:
 8004ac8:	b510      	push	{r4, lr}
 8004aca:	2400      	movs	r4, #0
 8004acc:	b082      	sub	sp, #8
 8004ace:	9401      	str	r4, [sp, #4]
 8004ad0:	b310      	cbz	r0, 8004b18 <osMutexWait+0x50>
 8004ad2:	f3ef 8305 	mrs	r3, IPSR
 8004ad6:	b933      	cbnz	r3, 8004ae6 <osMutexWait+0x1e>
 8004ad8:	f000 fefa 	bl	80058d0 <xQueueSemaphoreTake>
 8004adc:	2801      	cmp	r0, #1
 8004ade:	d118      	bne.n	8004b12 <osMutexWait+0x4a>
 8004ae0:	2000      	movs	r0, #0
 8004ae2:	b002      	add	sp, #8
 8004ae4:	bd10      	pop	{r4, pc}
 8004ae6:	aa01      	add	r2, sp, #4
 8004ae8:	4621      	mov	r1, r4
 8004aea:	f001 f881 	bl	8005bf0 <xQueueReceiveFromISR>
 8004aee:	2801      	cmp	r0, #1
 8004af0:	d10f      	bne.n	8004b12 <osMutexWait+0x4a>
 8004af2:	9b01      	ldr	r3, [sp, #4]
 8004af4:	2b00      	cmp	r3, #0
 8004af6:	d0f3      	beq.n	8004ae0 <osMutexWait+0x18>
 8004af8:	f04f 23e0 	mov.w	r3, #3758153728	; 0xe000e000
 8004afc:	f04f 5280 	mov.w	r2, #268435456	; 0x10000000
 8004b00:	f8c3 2d04 	str.w	r2, [r3, #3332]	; 0xd04
 8004b04:	f3bf 8f4f 	dsb	sy
 8004b08:	f3bf 8f6f 	isb	sy
 8004b0c:	4620      	mov	r0, r4
 8004b0e:	b002      	add	sp, #8
 8004b10:	bd10      	pop	{r4, pc}
 8004b12:	20ff      	movs	r0, #255	; 0xff
 8004b14:	b002      	add	sp, #8
 8004b16:	bd10      	pop	{r4, pc}
 8004b18:	2080      	movs	r0, #128	; 0x80
 8004b1a:	b002      	add	sp, #8
 8004b1c:	bd10      	pop	{r4, pc}
 8004b1e:	bf00      	nop

08004b20 <osMutexRelease>:
 8004b20:	b510      	push	{r4, lr}
 8004b22:	2400      	movs	r4, #0
 8004b24:	b082      	sub	sp, #8
 8004b26:	9401      	str	r4, [sp, #4]
 8004b28:	f3ef 8305 	mrs	r3, IPSR
 8004b2c:	b19b      	cbz	r3, 8004b56 <osMutexRelease+0x36>
 8004b2e:	a901      	add	r1, sp, #4
 8004b30:	f000 fce4 	bl	80054fc <xQueueGiveFromISR>
 8004b34:	2801      	cmp	r0, #1
 8004b36:	d114      	bne.n	8004b62 <osMutexRelease+0x42>
 8004b38:	9b01      	ldr	r3, [sp, #4]
 8004b3a:	b1ab      	cbz	r3, 8004b68 <osMutexRelease+0x48>
 8004b3c:	f04f 23e0 	mov.w	r3, #3758153728	; 0xe000e000
 8004b40:	f04f 5280 	mov.w	r2, #268435456	; 0x10000000
 8004b44:	f8c3 2d04 	str.w	r2, [r3, #3332]	; 0xd04
 8004b48:	f3bf 8f4f 	dsb	sy
 8004b4c:	f3bf 8f6f 	isb	sy
 8004b50:	4620      	mov	r0, r4
 8004b52:	b002      	add	sp, #8
 8004b54:	bd10      	pop	{r4, pc}
 8004b56:	461a      	mov	r2, r3
 8004b58:	4619      	mov	r1, r3
 8004b5a:	f000 fa9f 	bl	800509c <xQueueGenericSend>
 8004b5e:	2801      	cmp	r0, #1
 8004b60:	d002      	beq.n	8004b68 <osMutexRelease+0x48>
 8004b62:	20ff      	movs	r0, #255	; 0xff
 8004b64:	b002      	add	sp, #8
 8004b66:	bd10      	pop	{r4, pc}
 8004b68:	2000      	movs	r0, #0
 8004b6a:	b002      	add	sp, #8
 8004b6c:	bd10      	pop	{r4, pc}
 8004b6e:	bf00      	nop

08004b70 <osPoolCreate>:
 8004b70:	b5f8      	push	{r3, r4, r5, r6, r7, lr}
 8004b72:	4606      	mov	r6, r0
 8004b74:	2014      	movs	r0, #20
 8004b76:	6877      	ldr	r7, [r6, #4]
 8004b78:	f002 fd8e 	bl	8007698 <pvPortMalloc>
 8004b7c:	4605      	mov	r5, r0
 8004b7e:	b1f8      	cbz	r0, 8004bc0 <osPoolCreate+0x50>
 8004b80:	3703      	adds	r7, #3
 8004b82:	6833      	ldr	r3, [r6, #0]
 8004b84:	2400      	movs	r4, #0
 8004b86:	f027 0703 	bic.w	r7, r7, #3
 8004b8a:	6083      	str	r3, [r0, #8]
 8004b8c:	e9c0 7403 	strd	r7, r4, [r0, #12]
 8004b90:	6830      	ldr	r0, [r6, #0]
 8004b92:	f002 fd81 	bl	8007698 <pvPortMalloc>
 8004b96:	4603      	mov	r3, r0
 8004b98:	6068      	str	r0, [r5, #4]
 8004b9a:	b198      	cbz	r0, 8004bc4 <osPoolCreate+0x54>
 8004b9c:	6830      	ldr	r0, [r6, #0]
 8004b9e:	fb07 f000 	mul.w	r0, r7, r0
 8004ba2:	f002 fd79 	bl	8007698 <pvPortMalloc>
 8004ba6:	4607      	mov	r7, r0
 8004ba8:	6028      	str	r0, [r5, #0]
 8004baa:	b180      	cbz	r0, 8004bce <osPoolCreate+0x5e>
 8004bac:	6833      	ldr	r3, [r6, #0]
 8004bae:	b13b      	cbz	r3, 8004bc0 <osPoolCreate+0x50>
 8004bb0:	4623      	mov	r3, r4
 8004bb2:	4621      	mov	r1, r4
 8004bb4:	686a      	ldr	r2, [r5, #4]
 8004bb6:	54d1      	strb	r1, [r2, r3]
 8004bb8:	3301      	adds	r3, #1
 8004bba:	6832      	ldr	r2, [r6, #0]
 8004bbc:	429a      	cmp	r2, r3
 8004bbe:	d8f9      	bhi.n	8004bb4 <osPoolCreate+0x44>
 8004bc0:	4628      	mov	r0, r5
 8004bc2:	bdf8      	pop	{r3, r4, r5, r6, r7, pc}
 8004bc4:	4628      	mov	r0, r5
 8004bc6:	461d      	mov	r5, r3
 8004bc8:	f002 fe20 	bl	800780c <vPortFree>
 8004bcc:	e7f8      	b.n	8004bc0 <osPoolCreate+0x50>
 8004bce:	6868      	ldr	r0, [r5, #4]
 8004bd0:	f002 fe1c 	bl	800780c <vPortFree>
 8004bd4:	4628      	mov	r0, r5
 8004bd6:	f002 fe19 	bl	800780c <vPortFree>
 8004bda:	463d      	mov	r5, r7
 8004bdc:	e7f0      	b.n	8004bc0 <osPoolCreate+0x50>
 8004bde:	bf00      	nop

08004be0 <osMessageCreate>:
 8004be0:	2200      	movs	r2, #0
 8004be2:	e9d0 0100 	ldrd	r0, r1, [r0]
 8004be6:	f000 ba13 	b.w	8005010 <xQueueGenericCreate>
 8004bea:	bf00      	nop

08004bec <osMessagePut>:
 8004bec:	b510      	push	{r4, lr}
 8004bee:	2400      	movs	r4, #0
 8004bf0:	b084      	sub	sp, #16
 8004bf2:	9101      	str	r1, [sp, #4]
 8004bf4:	9403      	str	r4, [sp, #12]
 8004bf6:	f3ef 8305 	mrs	r3, IPSR
 8004bfa:	b15b      	cbz	r3, 8004c14 <osMessagePut+0x28>
 8004bfc:	4623      	mov	r3, r4
 8004bfe:	aa03      	add	r2, sp, #12
 8004c00:	a901      	add	r1, sp, #4
 8004c02:	f000 fc09 	bl	8005418 <xQueueGenericSendFromISR>
 8004c06:	2801      	cmp	r0, #1
 8004c08:	d10c      	bne.n	8004c24 <osMessagePut+0x38>
 8004c0a:	9b03      	ldr	r3, [sp, #12]
 8004c0c:	b96b      	cbnz	r3, 8004c2a <osMessagePut+0x3e>
 8004c0e:	2000      	movs	r0, #0
 8004c10:	b004      	add	sp, #16
 8004c12:	bd10      	pop	{r4, pc}
 8004c14:	2a01      	cmp	r2, #1
 8004c16:	a901      	add	r1, sp, #4
 8004c18:	bf38      	it	cc
 8004c1a:	2201      	movcc	r2, #1
 8004c1c:	f000 fa3e 	bl	800509c <xQueueGenericSend>
 8004c20:	2801      	cmp	r0, #1
 8004c22:	d0f4      	beq.n	8004c0e <osMessagePut+0x22>
 8004c24:	20ff      	movs	r0, #255	; 0xff
 8004c26:	b004      	add	sp, #16
 8004c28:	bd10      	pop	{r4, pc}
 8004c2a:	f04f 23e0 	mov.w	r3, #3758153728	; 0xe000e000
 8004c2e:	f04f 5280 	mov.w	r2, #268435456	; 0x10000000
 8004c32:	f8c3 2d04 	str.w	r2, [r3, #3332]	; 0xd04
 8004c36:	f3bf 8f4f 	dsb	sy
 8004c3a:	f3bf 8f6f 	isb	sy
 8004c3e:	4620      	mov	r0, r4
 8004c40:	b004      	add	sp, #16
 8004c42:	bd10      	pop	{r4, pc}

08004c44 <osMessageGet>:
 8004c44:	b570      	push	{r4, r5, r6, lr}
 8004c46:	2600      	movs	r6, #0
 8004c48:	b084      	sub	sp, #16
 8004c4a:	4604      	mov	r4, r0
 8004c4c:	e9cd 6102 	strd	r6, r1, [sp, #8]
 8004c50:	b379      	cbz	r1, 8004cb2 <osMessageGet+0x6e>
 8004c52:	460b      	mov	r3, r1
 8004c54:	9600      	str	r6, [sp, #0]
 8004c56:	f3ef 8105 	mrs	r1, IPSR
 8004c5a:	b991      	cbnz	r1, 8004c82 <osMessageGet+0x3e>
 8004c5c:	a902      	add	r1, sp, #8
 8004c5e:	4618      	mov	r0, r3
 8004c60:	4615      	mov	r5, r2
 8004c62:	f000 fcab 	bl	80055bc <xQueueReceive>
 8004c66:	2801      	cmp	r0, #1
 8004c68:	d02d      	beq.n	8004cc6 <osMessageGet+0x82>
 8004c6a:	2d00      	cmp	r5, #0
 8004c6c:	bf18      	it	ne
 8004c6e:	2540      	movne	r5, #64	; 0x40
 8004c70:	9501      	str	r5, [sp, #4]
 8004c72:	ab04      	add	r3, sp, #16
 8004c74:	e913 0007 	ldmdb	r3, {r0, r1, r2}
 8004c78:	e884 0007 	stmia.w	r4, {r0, r1, r2}
 8004c7c:	4620      	mov	r0, r4
 8004c7e:	b004      	add	sp, #16
 8004c80:	bd70      	pop	{r4, r5, r6, pc}
 8004c82:	466a      	mov	r2, sp
 8004c84:	4618      	mov	r0, r3
 8004c86:	a902      	add	r1, sp, #8
 8004c88:	f000 ffb2 	bl	8005bf0 <xQueueReceiveFromISR>
 8004c8c:	2801      	cmp	r0, #1
 8004c8e:	9b00      	ldr	r3, [sp, #0]
 8004c90:	bf0c      	ite	eq
 8004c92:	2210      	moveq	r2, #16
 8004c94:	2200      	movne	r2, #0
 8004c96:	9201      	str	r2, [sp, #4]
 8004c98:	2b00      	cmp	r3, #0
 8004c9a:	d0ea      	beq.n	8004c72 <osMessageGet+0x2e>
 8004c9c:	f04f 23e0 	mov.w	r3, #3758153728	; 0xe000e000
 8004ca0:	f04f 5280 	mov.w	r2, #268435456	; 0x10000000
 8004ca4:	f8c3 2d04 	str.w	r2, [r3, #3332]	; 0xd04
 8004ca8:	f3bf 8f4f 	dsb	sy
 8004cac:	f3bf 8f6f 	isb	sy
 8004cb0:	e7df      	b.n	8004c72 <osMessageGet+0x2e>
 8004cb2:	2380      	movs	r3, #128	; 0x80
 8004cb4:	9301      	str	r3, [sp, #4]
 8004cb6:	ab04      	add	r3, sp, #16
 8004cb8:	e913 0007 	ldmdb	r3, {r0, r1, r2}
 8004cbc:	e884 0007 	stmia.w	r4, {r0, r1, r2}
 8004cc0:	4620      	mov	r0, r4
 8004cc2:	b004      	add	sp, #16
 8004cc4:	bd70      	pop	{r4, r5, r6, pc}
 8004cc6:	2310      	movs	r3, #16
 8004cc8:	9301      	str	r3, [sp, #4]
 8004cca:	e7d2      	b.n	8004c72 <osMessageGet+0x2e>

08004ccc <osMailCreate>:
 8004ccc:	b570      	push	{r4, r5, r6, lr}
 8004cce:	4604      	mov	r4, r0
 8004cd0:	b084      	sub	sp, #16
 8004cd2:	2600      	movs	r6, #0
 8004cd4:	200c      	movs	r0, #12
 8004cd6:	68a5      	ldr	r5, [r4, #8]
 8004cd8:	9603      	str	r6, [sp, #12]
 8004cda:	e9d4 3200 	ldrd	r3, r2, [r4]
 8004cde:	9301      	str	r3, [sp, #4]
 8004ce0:	9202      	str	r2, [sp, #8]
 8004ce2:	f002 fcd9 	bl	8007698 <pvPortMalloc>
 8004ce6:	6028      	str	r0, [r5, #0]
 8004ce8:	68a3      	ldr	r3, [r4, #8]
 8004cea:	681d      	ldr	r5, [r3, #0]
 8004cec:	b1a5      	cbz	r5, 8004d18 <osMailCreate+0x4c>
 8004cee:	602c      	str	r4, [r5, #0]
 8004cf0:	4632      	mov	r2, r6
 8004cf2:	68a3      	ldr	r3, [r4, #8]
 8004cf4:	2104      	movs	r1, #4
 8004cf6:	6820      	ldr	r0, [r4, #0]
 8004cf8:	681d      	ldr	r5, [r3, #0]
 8004cfa:	f000 f989 	bl	8005010 <xQueueGenericCreate>
 8004cfe:	6068      	str	r0, [r5, #4]
 8004d00:	68a3      	ldr	r3, [r4, #8]
 8004d02:	681e      	ldr	r6, [r3, #0]
 8004d04:	6875      	ldr	r5, [r6, #4]
 8004d06:	b155      	cbz	r5, 8004d1e <osMailCreate+0x52>
 8004d08:	a801      	add	r0, sp, #4
 8004d0a:	f7ff ff31 	bl	8004b70 <osPoolCreate>
 8004d0e:	60b0      	str	r0, [r6, #8]
 8004d10:	68a3      	ldr	r3, [r4, #8]
 8004d12:	681d      	ldr	r5, [r3, #0]
 8004d14:	68ab      	ldr	r3, [r5, #8]
 8004d16:	b133      	cbz	r3, 8004d26 <osMailCreate+0x5a>
 8004d18:	4628      	mov	r0, r5
 8004d1a:	b004      	add	sp, #16
 8004d1c:	bd70      	pop	{r4, r5, r6, pc}
 8004d1e:	4630      	mov	r0, r6
 8004d20:	f002 fd74 	bl	800780c <vPortFree>
 8004d24:	e7f8      	b.n	8004d18 <osMailCreate+0x4c>
 8004d26:	4628      	mov	r0, r5
 8004d28:	461d      	mov	r5, r3
 8004d2a:	f002 fd6f 	bl	800780c <vPortFree>
 8004d2e:	e7f3      	b.n	8004d18 <osMailCreate+0x4c>

08004d30 <osMailAlloc>:
 8004d30:	2800      	cmp	r0, #0
 8004d32:	d042      	beq.n	8004dba <osMailAlloc+0x8a>
 8004d34:	b570      	push	{r4, r5, r6, lr}
 8004d36:	b082      	sub	sp, #8
 8004d38:	6885      	ldr	r5, [r0, #8]
 8004d3a:	f3ef 8605 	mrs	r6, IPSR
 8004d3e:	2e00      	cmp	r6, #0
 8004d40:	d038      	beq.n	8004db4 <osMailAlloc+0x84>
 8004d42:	f3ef 8611 	mrs	r6, BASEPRI
 8004d46:	f04f 0350 	mov.w	r3, #80	; 0x50
 8004d4a:	b672      	cpsid	i
 8004d4c:	f383 8811 	msr	BASEPRI, r3
 8004d50:	f3bf 8f6f 	isb	sy
 8004d54:	f3bf 8f4f 	dsb	sy
 8004d58:	b662      	cpsie	i
 8004d5a:	68a8      	ldr	r0, [r5, #8]
 8004d5c:	b1c0      	cbz	r0, 8004d90 <osMailAlloc+0x60>
 8004d5e:	692b      	ldr	r3, [r5, #16]
 8004d60:	6869      	ldr	r1, [r5, #4]
 8004d62:	eb03 0e00 	add.w	lr, r3, r0
 8004d66:	e001      	b.n	8004d6c <osMailAlloc+0x3c>
 8004d68:	459e      	cmp	lr, r3
 8004d6a:	d018      	beq.n	8004d9e <osMailAlloc+0x6e>
 8004d6c:	fbb3 f2f0 	udiv	r2, r3, r0
 8004d70:	fb00 3212 	mls	r2, r0, r2, r3
 8004d74:	3301      	adds	r3, #1
 8004d76:	5c8c      	ldrb	r4, [r1, r2]
 8004d78:	eb01 0c02 	add.w	ip, r1, r2
 8004d7c:	2c00      	cmp	r4, #0
 8004d7e:	d1f3      	bne.n	8004d68 <osMailAlloc+0x38>
 8004d80:	2301      	movs	r3, #1
 8004d82:	f88c 3000 	strb.w	r3, [ip]
 8004d86:	68eb      	ldr	r3, [r5, #12]
 8004d88:	6828      	ldr	r0, [r5, #0]
 8004d8a:	612a      	str	r2, [r5, #16]
 8004d8c:	fb03 0002 	mla	r0, r3, r2, r0
 8004d90:	f3ef 8305 	mrs	r3, IPSR
 8004d94:	b143      	cbz	r3, 8004da8 <osMailAlloc+0x78>
 8004d96:	f386 8811 	msr	BASEPRI, r6
 8004d9a:	b002      	add	sp, #8
 8004d9c:	bd70      	pop	{r4, r5, r6, pc}
 8004d9e:	2000      	movs	r0, #0
 8004da0:	f3ef 8305 	mrs	r3, IPSR
 8004da4:	2b00      	cmp	r3, #0
 8004da6:	d1f6      	bne.n	8004d96 <osMailAlloc+0x66>
 8004da8:	9001      	str	r0, [sp, #4]
 8004daa:	f002 fb49 	bl	8007440 <vPortExitCritical>
 8004dae:	9801      	ldr	r0, [sp, #4]
 8004db0:	b002      	add	sp, #8
 8004db2:	bd70      	pop	{r4, r5, r6, pc}
 8004db4:	f002 fb1e 	bl	80073f4 <vPortEnterCritical>
 8004db8:	e7cf      	b.n	8004d5a <osMailAlloc+0x2a>
 8004dba:	4770      	bx	lr

08004dbc <osMailPut>:
 8004dbc:	b510      	push	{r4, lr}
 8004dbe:	b084      	sub	sp, #16
 8004dc0:	9101      	str	r1, [sp, #4]
 8004dc2:	b348      	cbz	r0, 8004e18 <osMailPut+0x5c>
 8004dc4:	2400      	movs	r4, #0
 8004dc6:	9403      	str	r4, [sp, #12]
 8004dc8:	f3ef 8305 	mrs	r3, IPSR
 8004dcc:	b94b      	cbnz	r3, 8004de2 <osMailPut+0x26>
 8004dce:	461a      	mov	r2, r3
 8004dd0:	a901      	add	r1, sp, #4
 8004dd2:	6840      	ldr	r0, [r0, #4]
 8004dd4:	f000 f962 	bl	800509c <xQueueGenericSend>
 8004dd8:	2801      	cmp	r0, #1
 8004dda:	d11a      	bne.n	8004e12 <osMailPut+0x56>
 8004ddc:	2000      	movs	r0, #0
 8004dde:	b004      	add	sp, #16
 8004de0:	bd10      	pop	{r4, pc}
 8004de2:	4623      	mov	r3, r4
 8004de4:	aa03      	add	r2, sp, #12
 8004de6:	a901      	add	r1, sp, #4
 8004de8:	6840      	ldr	r0, [r0, #4]
 8004dea:	f000 fb15 	bl	8005418 <xQueueGenericSendFromISR>
 8004dee:	2801      	cmp	r0, #1
 8004df0:	d10f      	bne.n	8004e12 <osMailPut+0x56>
 8004df2:	9b03      	ldr	r3, [sp, #12]
 8004df4:	2b00      	cmp	r3, #0
 8004df6:	d0f1      	beq.n	8004ddc <osMailPut+0x20>
 8004df8:	f04f 23e0 	mov.w	r3, #3758153728	; 0xe000e000
 8004dfc:	f04f 5280 	mov.w	r2, #268435456	; 0x10000000
 8004e00:	f8c3 2d04 	str.w	r2, [r3, #3332]	; 0xd04
 8004e04:	f3bf 8f4f 	dsb	sy
 8004e08:	f3bf 8f6f 	isb	sy
 8004e0c:	4620      	mov	r0, r4
 8004e0e:	b004      	add	sp, #16
 8004e10:	bd10      	pop	{r4, pc}
 8004e12:	20ff      	movs	r0, #255	; 0xff
 8004e14:	b004      	add	sp, #16
 8004e16:	bd10      	pop	{r4, pc}
 8004e18:	2080      	movs	r0, #128	; 0x80
 8004e1a:	b004      	add	sp, #16
 8004e1c:	bd10      	pop	{r4, pc}
 8004e1e:	bf00      	nop

08004e20 <osMailGet>:
 8004e20:	b530      	push	{r4, r5, lr}
 8004e22:	b085      	sub	sp, #20
 8004e24:	4604      	mov	r4, r0
 8004e26:	9103      	str	r1, [sp, #12]
 8004e28:	2900      	cmp	r1, #0
 8004e2a:	d030      	beq.n	8004e8e <osMailGet+0x6e>
 8004e2c:	460b      	mov	r3, r1
 8004e2e:	2100      	movs	r1, #0
 8004e30:	9100      	str	r1, [sp, #0]
 8004e32:	f3ef 8105 	mrs	r1, IPSR
 8004e36:	b991      	cbnz	r1, 8004e5e <osMailGet+0x3e>
 8004e38:	a902      	add	r1, sp, #8
 8004e3a:	6858      	ldr	r0, [r3, #4]
 8004e3c:	4615      	mov	r5, r2
 8004e3e:	f000 fbbd 	bl	80055bc <xQueueReceive>
 8004e42:	2801      	cmp	r0, #1
 8004e44:	d02d      	beq.n	8004ea2 <osMailGet+0x82>
 8004e46:	2d00      	cmp	r5, #0
 8004e48:	bf18      	it	ne
 8004e4a:	2540      	movne	r5, #64	; 0x40
 8004e4c:	9501      	str	r5, [sp, #4]
 8004e4e:	ab04      	add	r3, sp, #16
 8004e50:	e913 0007 	ldmdb	r3, {r0, r1, r2}
 8004e54:	e884 0007 	stmia.w	r4, {r0, r1, r2}
 8004e58:	4620      	mov	r0, r4
 8004e5a:	b005      	add	sp, #20
 8004e5c:	bd30      	pop	{r4, r5, pc}
 8004e5e:	466a      	mov	r2, sp
 8004e60:	6858      	ldr	r0, [r3, #4]
 8004e62:	a902      	add	r1, sp, #8
 8004e64:	f000 fec4 	bl	8005bf0 <xQueueReceiveFromISR>
 8004e68:	2801      	cmp	r0, #1
 8004e6a:	9b00      	ldr	r3, [sp, #0]
 8004e6c:	bf0c      	ite	eq
 8004e6e:	2220      	moveq	r2, #32
 8004e70:	2200      	movne	r2, #0
 8004e72:	9201      	str	r2, [sp, #4]
 8004e74:	2b00      	cmp	r3, #0
 8004e76:	d0ea      	beq.n	8004e4e <osMailGet+0x2e>
 8004e78:	f04f 23e0 	mov.w	r3, #3758153728	; 0xe000e000
 8004e7c:	f04f 5280 	mov.w	r2, #268435456	; 0x10000000
 8004e80:	f8c3 2d04 	str.w	r2, [r3, #3332]	; 0xd04
 8004e84:	f3bf 8f4f 	dsb	sy
 8004e88:	f3bf 8f6f 	isb	sy
 8004e8c:	e7df      	b.n	8004e4e <osMailGet+0x2e>
 8004e8e:	2380      	movs	r3, #128	; 0x80
 8004e90:	9301      	str	r3, [sp, #4]
 8004e92:	ab04      	add	r3, sp, #16
 8004e94:	e913 0007 	ldmdb	r3, {r0, r1, r2}
 8004e98:	e884 0007 	stmia.w	r4, {r0, r1, r2}
 8004e9c:	4620      	mov	r0, r4
 8004e9e:	b005      	add	sp, #20
 8004ea0:	bd30      	pop	{r4, r5, pc}
 8004ea2:	2320      	movs	r3, #32
 8004ea4:	9301      	str	r3, [sp, #4]
 8004ea6:	e7d2      	b.n	8004e4e <osMailGet+0x2e>

08004ea8 <osMailFree>:
 8004ea8:	b190      	cbz	r0, 8004ed0 <osMailFree+0x28>
 8004eaa:	6883      	ldr	r3, [r0, #8]
 8004eac:	b183      	cbz	r3, 8004ed0 <osMailFree+0x28>
 8004eae:	b179      	cbz	r1, 8004ed0 <osMailFree+0x28>
 8004eb0:	6818      	ldr	r0, [r3, #0]
 8004eb2:	4281      	cmp	r1, r0
 8004eb4:	d30c      	bcc.n	8004ed0 <osMailFree+0x28>
 8004eb6:	1a09      	subs	r1, r1, r0
 8004eb8:	68d8      	ldr	r0, [r3, #12]
 8004eba:	fbb1 f2f0 	udiv	r2, r1, r0
 8004ebe:	fb00 1012 	mls	r0, r0, r2, r1
 8004ec2:	b928      	cbnz	r0, 8004ed0 <osMailFree+0x28>
 8004ec4:	6899      	ldr	r1, [r3, #8]
 8004ec6:	428a      	cmp	r2, r1
 8004ec8:	d202      	bcs.n	8004ed0 <osMailFree+0x28>
 8004eca:	685b      	ldr	r3, [r3, #4]
 8004ecc:	5498      	strb	r0, [r3, r2]
 8004ece:	4770      	bx	lr
 8004ed0:	2080      	movs	r0, #128	; 0x80
 8004ed2:	4770      	bx	lr

08004ed4 <osDelayUntil>:
 8004ed4:	2901      	cmp	r1, #1
 8004ed6:	b508      	push	{r3, lr}
 8004ed8:	bf38      	it	cc
 8004eda:	2101      	movcc	r1, #1
 8004edc:	f001 fc54 	bl	8006788 <vTaskDelayUntil>
 8004ee0:	2000      	movs	r0, #0
 8004ee2:	bd08      	pop	{r3, pc}

08004ee4 <osMessageDelete>:
 8004ee4:	b510      	push	{r4, lr}
 8004ee6:	f3ef 8405 	mrs	r4, IPSR
 8004eea:	b91c      	cbnz	r4, 8004ef4 <osMessageDelete+0x10>
 8004eec:	f000 fee8 	bl	8005cc0 <vQueueDelete>
 8004ef0:	4620      	mov	r0, r4
 8004ef2:	bd10      	pop	{r4, pc}
 8004ef4:	2482      	movs	r4, #130	; 0x82
 8004ef6:	4620      	mov	r0, r4
 8004ef8:	bd10      	pop	{r4, pc}
 8004efa:	bf00      	nop

08004efc <vListInitialise>:
 8004efc:	f100 0308 	add.w	r3, r0, #8
 8004f00:	f04f 31ff 	mov.w	r1, #4294967295
 8004f04:	2200      	movs	r2, #0
 8004f06:	6081      	str	r1, [r0, #8]
 8004f08:	6002      	str	r2, [r0, #0]
 8004f0a:	6043      	str	r3, [r0, #4]
 8004f0c:	e9c0 3303 	strd	r3, r3, [r0, #12]
 8004f10:	4770      	bx	lr
 8004f12:	bf00      	nop

08004f14 <vListInitialiseItem>:
 8004f14:	2300      	movs	r3, #0
 8004f16:	6103      	str	r3, [r0, #16]
 8004f18:	4770      	bx	lr
 8004f1a:	bf00      	nop

08004f1c <vListInsertEnd>:
 8004f1c:	6843      	ldr	r3, [r0, #4]
 8004f1e:	604b      	str	r3, [r1, #4]
 8004f20:	689a      	ldr	r2, [r3, #8]
 8004f22:	608a      	str	r2, [r1, #8]
 8004f24:	6051      	str	r1, [r2, #4]
 8004f26:	6099      	str	r1, [r3, #8]
 8004f28:	6108      	str	r0, [r1, #16]
 8004f2a:	6803      	ldr	r3, [r0, #0]
 8004f2c:	3301      	adds	r3, #1
 8004f2e:	6003      	str	r3, [r0, #0]
 8004f30:	4770      	bx	lr
 8004f32:	bf00      	nop

08004f34 <vListInsert>:
 8004f34:	b430      	push	{r4, r5}
 8004f36:	680d      	ldr	r5, [r1, #0]
 8004f38:	1c6b      	adds	r3, r5, #1
 8004f3a:	d010      	beq.n	8004f5e <vListInsert+0x2a>
 8004f3c:	f100 0308 	add.w	r3, r0, #8
 8004f40:	461c      	mov	r4, r3
 8004f42:	685b      	ldr	r3, [r3, #4]
 8004f44:	681a      	ldr	r2, [r3, #0]
 8004f46:	42aa      	cmp	r2, r5
 8004f48:	d9fa      	bls.n	8004f40 <vListInsert+0xc>
 8004f4a:	604b      	str	r3, [r1, #4]
 8004f4c:	6099      	str	r1, [r3, #8]
 8004f4e:	608c      	str	r4, [r1, #8]
 8004f50:	6061      	str	r1, [r4, #4]
 8004f52:	6108      	str	r0, [r1, #16]
 8004f54:	6803      	ldr	r3, [r0, #0]
 8004f56:	3301      	adds	r3, #1
 8004f58:	bc30      	pop	{r4, r5}
 8004f5a:	6003      	str	r3, [r0, #0]
 8004f5c:	4770      	bx	lr
 8004f5e:	6904      	ldr	r4, [r0, #16]
 8004f60:	6863      	ldr	r3, [r4, #4]
 8004f62:	e7f2      	b.n	8004f4a <vListInsert+0x16>

08004f64 <uxListRemove>:
 8004f64:	e9d0 1201 	ldrd	r1, r2, [r0, #4]
 8004f68:	6903      	ldr	r3, [r0, #16]
 8004f6a:	608a      	str	r2, [r1, #8]
 8004f6c:	6841      	ldr	r1, [r0, #4]
 8004f6e:	6051      	str	r1, [r2, #4]
 8004f70:	685a      	ldr	r2, [r3, #4]
 8004f72:	4282      	cmp	r2, r0
 8004f74:	d006      	beq.n	8004f84 <uxListRemove+0x20>
 8004f76:	2200      	movs	r2, #0
 8004f78:	6102      	str	r2, [r0, #16]
 8004f7a:	681a      	ldr	r2, [r3, #0]
 8004f7c:	3a01      	subs	r2, #1
 8004f7e:	601a      	str	r2, [r3, #0]
 8004f80:	6818      	ldr	r0, [r3, #0]
 8004f82:	4770      	bx	lr
 8004f84:	6882      	ldr	r2, [r0, #8]
 8004f86:	605a      	str	r2, [r3, #4]
 8004f88:	e7f5      	b.n	8004f76 <uxListRemove+0x12>
 8004f8a:	bf00      	nop

08004f8c <prvCopyDataToQueue>:
 8004f8c:	b570      	push	{r4, r5, r6, lr}
 8004f8e:	4615      	mov	r5, r2
 8004f90:	6c02      	ldr	r2, [r0, #64]	; 0x40
 8004f92:	4604      	mov	r4, r0
 8004f94:	6b86      	ldr	r6, [r0, #56]	; 0x38
 8004f96:	b92a      	cbnz	r2, 8004fa4 <prvCopyDataToQueue+0x18>
 8004f98:	6805      	ldr	r5, [r0, #0]
 8004f9a:	b365      	cbz	r5, 8004ff6 <prvCopyDataToQueue+0x6a>
 8004f9c:	3601      	adds	r6, #1
 8004f9e:	4610      	mov	r0, r2
 8004fa0:	63a6      	str	r6, [r4, #56]	; 0x38
 8004fa2:	bd70      	pop	{r4, r5, r6, pc}
 8004fa4:	b97d      	cbnz	r5, 8004fc6 <prvCopyDataToQueue+0x3a>
 8004fa6:	6840      	ldr	r0, [r0, #4]
 8004fa8:	f004 f900 	bl	80091ac <memcpy>
 8004fac:	6863      	ldr	r3, [r4, #4]
 8004fae:	6c22      	ldr	r2, [r4, #64]	; 0x40
 8004fb0:	4413      	add	r3, r2
 8004fb2:	68a2      	ldr	r2, [r4, #8]
 8004fb4:	4293      	cmp	r3, r2
 8004fb6:	6063      	str	r3, [r4, #4]
 8004fb8:	d319      	bcc.n	8004fee <prvCopyDataToQueue+0x62>
 8004fba:	6822      	ldr	r2, [r4, #0]
 8004fbc:	3601      	adds	r6, #1
 8004fbe:	4628      	mov	r0, r5
 8004fc0:	6062      	str	r2, [r4, #4]
 8004fc2:	63a6      	str	r6, [r4, #56]	; 0x38
 8004fc4:	bd70      	pop	{r4, r5, r6, pc}
 8004fc6:	68c0      	ldr	r0, [r0, #12]
 8004fc8:	f004 f8f0 	bl	80091ac <memcpy>
 8004fcc:	6c22      	ldr	r2, [r4, #64]	; 0x40
 8004fce:	68e3      	ldr	r3, [r4, #12]
 8004fd0:	4251      	negs	r1, r2
 8004fd2:	1a9b      	subs	r3, r3, r2
 8004fd4:	6822      	ldr	r2, [r4, #0]
 8004fd6:	4293      	cmp	r3, r2
 8004fd8:	60e3      	str	r3, [r4, #12]
 8004fda:	d202      	bcs.n	8004fe2 <prvCopyDataToQueue+0x56>
 8004fdc:	68a3      	ldr	r3, [r4, #8]
 8004fde:	440b      	add	r3, r1
 8004fe0:	60e3      	str	r3, [r4, #12]
 8004fe2:	2d02      	cmp	r5, #2
 8004fe4:	d00d      	beq.n	8005002 <prvCopyDataToQueue+0x76>
 8004fe6:	3601      	adds	r6, #1
 8004fe8:	2000      	movs	r0, #0
 8004fea:	63a6      	str	r6, [r4, #56]	; 0x38
 8004fec:	bd70      	pop	{r4, r5, r6, pc}
 8004fee:	3601      	adds	r6, #1
 8004ff0:	4628      	mov	r0, r5
 8004ff2:	63a6      	str	r6, [r4, #56]	; 0x38
 8004ff4:	bd70      	pop	{r4, r5, r6, pc}
 8004ff6:	6880      	ldr	r0, [r0, #8]
 8004ff8:	3601      	adds	r6, #1
 8004ffa:	f001 fe35 	bl	8006c68 <xTaskPriorityDisinherit>
 8004ffe:	60a5      	str	r5, [r4, #8]
 8005000:	e7ce      	b.n	8004fa0 <prvCopyDataToQueue+0x14>
 8005002:	2e01      	cmp	r6, #1
 8005004:	f04f 0000 	mov.w	r0, #0
 8005008:	bf38      	it	cc
 800500a:	2601      	movcc	r6, #1
 800500c:	e7c8      	b.n	8004fa0 <prvCopyDataToQueue+0x14>
 800500e:	bf00      	nop

08005010 <xQueueGenericCreate>:
 8005010:	b950      	cbnz	r0, 8005028 <xQueueGenericCreate+0x18>
 8005012:	f04f 0350 	mov.w	r3, #80	; 0x50
 8005016:	b672      	cpsid	i
 8005018:	f383 8811 	msr	BASEPRI, r3
 800501c:	f3bf 8f6f 	isb	sy
 8005020:	f3bf 8f4f 	dsb	sy
 8005024:	b662      	cpsie	i
 8005026:	e7fe      	b.n	8005026 <xQueueGenericCreate+0x16>
 8005028:	b570      	push	{r4, r5, r6, lr}
 800502a:	4605      	mov	r5, r0
 800502c:	460e      	mov	r6, r1
 800502e:	bb39      	cbnz	r1, 8005080 <xQueueGenericCreate+0x70>
 8005030:	2048      	movs	r0, #72	; 0x48
 8005032:	f002 fb31 	bl	8007698 <pvPortMalloc>
 8005036:	4604      	mov	r4, r0
 8005038:	b368      	cbz	r0, 8005096 <xQueueGenericCreate+0x86>
 800503a:	6024      	str	r4, [r4, #0]
 800503c:	e9c4 560f 	strd	r5, r6, [r4, #60]	; 0x3c
 8005040:	f002 f9d8 	bl	80073f4 <vPortEnterCritical>
 8005044:	6822      	ldr	r2, [r4, #0]
 8005046:	f104 0010 	add.w	r0, r4, #16
 800504a:	6062      	str	r2, [r4, #4]
 800504c:	e9d4 310f 	ldrd	r3, r1, [r4, #60]	; 0x3c
 8005050:	fb01 f303 	mul.w	r3, r1, r3
 8005054:	1a59      	subs	r1, r3, r1
 8005056:	4413      	add	r3, r2
 8005058:	440a      	add	r2, r1
 800505a:	60a3      	str	r3, [r4, #8]
 800505c:	21ff      	movs	r1, #255	; 0xff
 800505e:	2300      	movs	r3, #0
 8005060:	60e2      	str	r2, [r4, #12]
 8005062:	63a3      	str	r3, [r4, #56]	; 0x38
 8005064:	f884 1044 	strb.w	r1, [r4, #68]	; 0x44
 8005068:	f884 1045 	strb.w	r1, [r4, #69]	; 0x45
 800506c:	f7ff ff46 	bl	8004efc <vListInitialise>
 8005070:	f104 0024 	add.w	r0, r4, #36	; 0x24
 8005074:	f7ff ff42 	bl	8004efc <vListInitialise>
 8005078:	f002 f9e2 	bl	8007440 <vPortExitCritical>
 800507c:	4620      	mov	r0, r4
 800507e:	bd70      	pop	{r4, r5, r6, pc}
 8005080:	fb01 f000 	mul.w	r0, r1, r0
 8005084:	3048      	adds	r0, #72	; 0x48
 8005086:	f002 fb07 	bl	8007698 <pvPortMalloc>
 800508a:	4604      	mov	r4, r0
 800508c:	b118      	cbz	r0, 8005096 <xQueueGenericCreate+0x86>
 800508e:	f100 0348 	add.w	r3, r0, #72	; 0x48
 8005092:	6003      	str	r3, [r0, #0]
 8005094:	e7d2      	b.n	800503c <xQueueGenericCreate+0x2c>
 8005096:	2400      	movs	r4, #0
 8005098:	4620      	mov	r0, r4
 800509a:	bd70      	pop	{r4, r5, r6, pc}

0800509c <xQueueGenericSend>:
 800509c:	e92d 47f0 	stmdb	sp!, {r4, r5, r6, r7, r8, r9, sl, lr}
 80050a0:	b084      	sub	sp, #16
 80050a2:	9201      	str	r2, [sp, #4]
 80050a4:	2800      	cmp	r0, #0
 80050a6:	f000 8107 	beq.w	80052b8 <xQueueGenericSend+0x21c>
 80050aa:	4688      	mov	r8, r1
 80050ac:	4604      	mov	r4, r0
 80050ae:	461f      	mov	r7, r3
 80050b0:	2900      	cmp	r1, #0
 80050b2:	f000 8099 	beq.w	80051e8 <xQueueGenericSend+0x14c>
 80050b6:	2f02      	cmp	r7, #2
 80050b8:	d10d      	bne.n	80050d6 <xQueueGenericSend+0x3a>
 80050ba:	6be3      	ldr	r3, [r4, #60]	; 0x3c
 80050bc:	2b01      	cmp	r3, #1
 80050be:	d00a      	beq.n	80050d6 <xQueueGenericSend+0x3a>
 80050c0:	f04f 0350 	mov.w	r3, #80	; 0x50
 80050c4:	b672      	cpsid	i
 80050c6:	f383 8811 	msr	BASEPRI, r3
 80050ca:	f3bf 8f6f 	isb	sy
 80050ce:	f3bf 8f4f 	dsb	sy
 80050d2:	b662      	cpsie	i
 80050d4:	e7fe      	b.n	80050d4 <xQueueGenericSend+0x38>
 80050d6:	f001 fd5f 	bl	8006b98 <xTaskGetSchedulerState>
 80050da:	2800      	cmp	r0, #0
 80050dc:	f000 80f7 	beq.w	80052ce <xQueueGenericSend+0x232>
 80050e0:	f1a7 0902 	sub.w	r9, r7, #2
 80050e4:	2500      	movs	r5, #0
 80050e6:	f104 0624 	add.w	r6, r4, #36	; 0x24
 80050ea:	fab9 f989 	clz	r9, r9
 80050ee:	ea4f 1959 	mov.w	r9, r9, lsr #5
 80050f2:	f002 f97f 	bl	80073f4 <vPortEnterCritical>
 80050f6:	6ba2      	ldr	r2, [r4, #56]	; 0x38
 80050f8:	6be3      	ldr	r3, [r4, #60]	; 0x3c
 80050fa:	429a      	cmp	r2, r3
 80050fc:	f0c0 80f6 	bcc.w	80052ec <xQueueGenericSend+0x250>
 8005100:	f1b9 0f00 	cmp.w	r9, #0
 8005104:	f040 80f2 	bne.w	80052ec <xQueueGenericSend+0x250>
 8005108:	9b01      	ldr	r3, [sp, #4]
 800510a:	2b00      	cmp	r3, #0
 800510c:	f000 8107 	beq.w	800531e <xQueueGenericSend+0x282>
 8005110:	2d00      	cmp	r5, #0
 8005112:	f000 80cd 	beq.w	80052b0 <xQueueGenericSend+0x214>
 8005116:	f002 f993 	bl	8007440 <vPortExitCritical>
 800511a:	f001 f987 	bl	800642c <vTaskSuspendAll>
 800511e:	f002 f969 	bl	80073f4 <vPortEnterCritical>
 8005122:	f894 3044 	ldrb.w	r3, [r4, #68]	; 0x44
 8005126:	2bff      	cmp	r3, #255	; 0xff
 8005128:	d102      	bne.n	8005130 <xQueueGenericSend+0x94>
 800512a:	2300      	movs	r3, #0
 800512c:	f884 3044 	strb.w	r3, [r4, #68]	; 0x44
 8005130:	f894 3045 	ldrb.w	r3, [r4, #69]	; 0x45
 8005134:	2bff      	cmp	r3, #255	; 0xff
 8005136:	d102      	bne.n	800513e <xQueueGenericSend+0xa2>
 8005138:	2300      	movs	r3, #0
 800513a:	f884 3045 	strb.w	r3, [r4, #69]	; 0x45
 800513e:	f002 f97f 	bl	8007440 <vPortExitCritical>
 8005142:	a901      	add	r1, sp, #4
 8005144:	a802      	add	r0, sp, #8
 8005146:	f001 fccf 	bl	8006ae8 <xTaskCheckForTimeOut>
 800514a:	2800      	cmp	r0, #0
 800514c:	f040 80eb 	bne.w	8005326 <xQueueGenericSend+0x28a>
 8005150:	f002 f950 	bl	80073f4 <vPortEnterCritical>
 8005154:	6ba2      	ldr	r2, [r4, #56]	; 0x38
 8005156:	6be3      	ldr	r3, [r4, #60]	; 0x3c
 8005158:	429a      	cmp	r2, r3
 800515a:	d054      	beq.n	8005206 <xQueueGenericSend+0x16a>
 800515c:	f002 f970 	bl	8007440 <vPortExitCritical>
 8005160:	f002 f948 	bl	80073f4 <vPortEnterCritical>
 8005164:	f894 2045 	ldrb.w	r2, [r4, #69]	; 0x45
 8005168:	b255      	sxtb	r5, r2
 800516a:	2d00      	cmp	r5, #0
 800516c:	dc04      	bgt.n	8005178 <xQueueGenericSend+0xdc>
 800516e:	e011      	b.n	8005194 <xQueueGenericSend+0xf8>
 8005170:	1e6a      	subs	r2, r5, #1
 8005172:	b2d3      	uxtb	r3, r2
 8005174:	b255      	sxtb	r5, r2
 8005176:	b16b      	cbz	r3, 8005194 <xQueueGenericSend+0xf8>
 8005178:	6a63      	ldr	r3, [r4, #36]	; 0x24
 800517a:	4630      	mov	r0, r6
 800517c:	b153      	cbz	r3, 8005194 <xQueueGenericSend+0xf8>
 800517e:	f001 fc5b 	bl	8006a38 <xTaskRemoveFromEventList>
 8005182:	2800      	cmp	r0, #0
 8005184:	d0f4      	beq.n	8005170 <xQueueGenericSend+0xd4>
 8005186:	f001 fcfb 	bl	8006b80 <vTaskMissedYield>
 800518a:	1e6a      	subs	r2, r5, #1
 800518c:	b2d3      	uxtb	r3, r2
 800518e:	b255      	sxtb	r5, r2
 8005190:	2b00      	cmp	r3, #0
 8005192:	d1f1      	bne.n	8005178 <xQueueGenericSend+0xdc>
 8005194:	23ff      	movs	r3, #255	; 0xff
 8005196:	f884 3045 	strb.w	r3, [r4, #69]	; 0x45
 800519a:	f002 f951 	bl	8007440 <vPortExitCritical>
 800519e:	f002 f929 	bl	80073f4 <vPortEnterCritical>
 80051a2:	f894 2044 	ldrb.w	r2, [r4, #68]	; 0x44
 80051a6:	b255      	sxtb	r5, r2
 80051a8:	2d00      	cmp	r5, #0
 80051aa:	dd14      	ble.n	80051d6 <xQueueGenericSend+0x13a>
 80051ac:	f104 0a10 	add.w	sl, r4, #16
 80051b0:	e003      	b.n	80051ba <xQueueGenericSend+0x11e>
 80051b2:	1e6a      	subs	r2, r5, #1
 80051b4:	b2d3      	uxtb	r3, r2
 80051b6:	b255      	sxtb	r5, r2
 80051b8:	b16b      	cbz	r3, 80051d6 <xQueueGenericSend+0x13a>
 80051ba:	6923      	ldr	r3, [r4, #16]
 80051bc:	4650      	mov	r0, sl
 80051be:	b153      	cbz	r3, 80051d6 <xQueueGenericSend+0x13a>
 80051c0:	f001 fc3a 	bl	8006a38 <xTaskRemoveFromEventList>
 80051c4:	2800      	cmp	r0, #0
 80051c6:	d0f4      	beq.n	80051b2 <xQueueGenericSend+0x116>
 80051c8:	f001 fcda 	bl	8006b80 <vTaskMissedYield>
 80051cc:	1e6a      	subs	r2, r5, #1
 80051ce:	b2d3      	uxtb	r3, r2
 80051d0:	b255      	sxtb	r5, r2
 80051d2:	2b00      	cmp	r3, #0
 80051d4:	d1f1      	bne.n	80051ba <xQueueGenericSend+0x11e>
 80051d6:	23ff      	movs	r3, #255	; 0xff
 80051d8:	f884 3044 	strb.w	r3, [r4, #68]	; 0x44
 80051dc:	f002 f930 	bl	8007440 <vPortExitCritical>
 80051e0:	f001 fa8c 	bl	80066fc <xTaskResumeAll>
 80051e4:	2501      	movs	r5, #1
 80051e6:	e784      	b.n	80050f2 <xQueueGenericSend+0x56>
 80051e8:	6c03      	ldr	r3, [r0, #64]	; 0x40
 80051ea:	2b00      	cmp	r3, #0
 80051ec:	f43f af63 	beq.w	80050b6 <xQueueGenericSend+0x1a>
 80051f0:	f04f 0350 	mov.w	r3, #80	; 0x50
 80051f4:	b672      	cpsid	i
 80051f6:	f383 8811 	msr	BASEPRI, r3
 80051fa:	f3bf 8f6f 	isb	sy
 80051fe:	f3bf 8f4f 	dsb	sy
 8005202:	b662      	cpsie	i
 8005204:	e7fe      	b.n	8005204 <xQueueGenericSend+0x168>
 8005206:	f104 0a10 	add.w	sl, r4, #16
 800520a:	f002 f919 	bl	8007440 <vPortExitCritical>
 800520e:	9901      	ldr	r1, [sp, #4]
 8005210:	4650      	mov	r0, sl
 8005212:	f001 fb53 	bl	80068bc <vTaskPlaceOnEventList>
 8005216:	f002 f8ed 	bl	80073f4 <vPortEnterCritical>
 800521a:	f894 3045 	ldrb.w	r3, [r4, #69]	; 0x45
 800521e:	b25d      	sxtb	r5, r3
 8005220:	2d00      	cmp	r5, #0
 8005222:	dc04      	bgt.n	800522e <xQueueGenericSend+0x192>
 8005224:	e011      	b.n	800524a <xQueueGenericSend+0x1ae>
 8005226:	1e6b      	subs	r3, r5, #1
 8005228:	b2da      	uxtb	r2, r3
 800522a:	b25d      	sxtb	r5, r3
 800522c:	b16a      	cbz	r2, 800524a <xQueueGenericSend+0x1ae>
 800522e:	6a63      	ldr	r3, [r4, #36]	; 0x24
 8005230:	4630      	mov	r0, r6
 8005232:	b153      	cbz	r3, 800524a <xQueueGenericSend+0x1ae>
 8005234:	f001 fc00 	bl	8006a38 <xTaskRemoveFromEventList>
 8005238:	2800      	cmp	r0, #0
 800523a:	d0f4      	beq.n	8005226 <xQueueGenericSend+0x18a>
 800523c:	f001 fca0 	bl	8006b80 <vTaskMissedYield>
 8005240:	1e6b      	subs	r3, r5, #1
 8005242:	b2da      	uxtb	r2, r3
 8005244:	b25d      	sxtb	r5, r3
 8005246:	2a00      	cmp	r2, #0
 8005248:	d1f1      	bne.n	800522e <xQueueGenericSend+0x192>
 800524a:	23ff      	movs	r3, #255	; 0xff
 800524c:	f884 3045 	strb.w	r3, [r4, #69]	; 0x45
 8005250:	f002 f8f6 	bl	8007440 <vPortExitCritical>
 8005254:	f002 f8ce 	bl	80073f4 <vPortEnterCritical>
 8005258:	f894 3044 	ldrb.w	r3, [r4, #68]	; 0x44
 800525c:	b25d      	sxtb	r5, r3
 800525e:	2d00      	cmp	r5, #0
 8005260:	dc04      	bgt.n	800526c <xQueueGenericSend+0x1d0>
 8005262:	e011      	b.n	8005288 <xQueueGenericSend+0x1ec>
 8005264:	1e6b      	subs	r3, r5, #1
 8005266:	b2da      	uxtb	r2, r3
 8005268:	b25d      	sxtb	r5, r3
 800526a:	b16a      	cbz	r2, 8005288 <xQueueGenericSend+0x1ec>
 800526c:	6923      	ldr	r3, [r4, #16]
 800526e:	4650      	mov	r0, sl
 8005270:	b153      	cbz	r3, 8005288 <xQueueGenericSend+0x1ec>
 8005272:	f001 fbe1 	bl	8006a38 <xTaskRemoveFromEventList>
 8005276:	2800      	cmp	r0, #0
 8005278:	d0f4      	beq.n	8005264 <xQueueGenericSend+0x1c8>
 800527a:	f001 fc81 	bl	8006b80 <vTaskMissedYield>
 800527e:	1e6b      	subs	r3, r5, #1
 8005280:	b2da      	uxtb	r2, r3
 8005282:	b25d      	sxtb	r5, r3
 8005284:	2a00      	cmp	r2, #0
 8005286:	d1f1      	bne.n	800526c <xQueueGenericSend+0x1d0>
 8005288:	23ff      	movs	r3, #255	; 0xff
 800528a:	f884 3044 	strb.w	r3, [r4, #68]	; 0x44
 800528e:	f002 f8d7 	bl	8007440 <vPortExitCritical>
 8005292:	f001 fa33 	bl	80066fc <xTaskResumeAll>
 8005296:	2800      	cmp	r0, #0
 8005298:	d1a4      	bne.n	80051e4 <xQueueGenericSend+0x148>
 800529a:	f04f 23e0 	mov.w	r3, #3758153728	; 0xe000e000
 800529e:	f04f 5280 	mov.w	r2, #268435456	; 0x10000000
 80052a2:	f8c3 2d04 	str.w	r2, [r3, #3332]	; 0xd04
 80052a6:	f3bf 8f4f 	dsb	sy
 80052aa:	f3bf 8f6f 	isb	sy
 80052ae:	e799      	b.n	80051e4 <xQueueGenericSend+0x148>
 80052b0:	a802      	add	r0, sp, #8
 80052b2:	f001 fc0d 	bl	8006ad0 <vTaskInternalSetTimeOutState>
 80052b6:	e72e      	b.n	8005116 <xQueueGenericSend+0x7a>
 80052b8:	f04f 0350 	mov.w	r3, #80	; 0x50
 80052bc:	b672      	cpsid	i
 80052be:	f383 8811 	msr	BASEPRI, r3
 80052c2:	f3bf 8f6f 	isb	sy
 80052c6:	f3bf 8f4f 	dsb	sy
 80052ca:	b662      	cpsie	i
 80052cc:	e7fe      	b.n	80052cc <xQueueGenericSend+0x230>
 80052ce:	9b01      	ldr	r3, [sp, #4]
 80052d0:	2b00      	cmp	r3, #0
 80052d2:	f43f af05 	beq.w	80050e0 <xQueueGenericSend+0x44>
 80052d6:	f04f 0350 	mov.w	r3, #80	; 0x50
 80052da:	b672      	cpsid	i
 80052dc:	f383 8811 	msr	BASEPRI, r3
 80052e0:	f3bf 8f6f 	isb	sy
 80052e4:	f3bf 8f4f 	dsb	sy
 80052e8:	b662      	cpsie	i
 80052ea:	e7fe      	b.n	80052ea <xQueueGenericSend+0x24e>
 80052ec:	463a      	mov	r2, r7
 80052ee:	4641      	mov	r1, r8
 80052f0:	4620      	mov	r0, r4
 80052f2:	f7ff fe4b 	bl	8004f8c <prvCopyDataToQueue>
 80052f6:	6a63      	ldr	r3, [r4, #36]	; 0x24
 80052f8:	2b00      	cmp	r3, #0
 80052fa:	d152      	bne.n	80053a2 <xQueueGenericSend+0x306>
 80052fc:	b148      	cbz	r0, 8005312 <xQueueGenericSend+0x276>
 80052fe:	f04f 23e0 	mov.w	r3, #3758153728	; 0xe000e000
 8005302:	f04f 5280 	mov.w	r2, #268435456	; 0x10000000
 8005306:	f8c3 2d04 	str.w	r2, [r3, #3332]	; 0xd04
 800530a:	f3bf 8f4f 	dsb	sy
 800530e:	f3bf 8f6f 	isb	sy
 8005312:	f002 f895 	bl	8007440 <vPortExitCritical>
 8005316:	2001      	movs	r0, #1
 8005318:	b004      	add	sp, #16
 800531a:	e8bd 87f0 	ldmia.w	sp!, {r4, r5, r6, r7, r8, r9, sl, pc}
 800531e:	f002 f88f 	bl	8007440 <vPortExitCritical>
 8005322:	4648      	mov	r0, r9
 8005324:	e7f8      	b.n	8005318 <xQueueGenericSend+0x27c>
 8005326:	f002 f865 	bl	80073f4 <vPortEnterCritical>
 800532a:	f894 3045 	ldrb.w	r3, [r4, #69]	; 0x45
 800532e:	b25d      	sxtb	r5, r3
 8005330:	2d00      	cmp	r5, #0
 8005332:	dd10      	ble.n	8005356 <xQueueGenericSend+0x2ba>
 8005334:	f104 0624 	add.w	r6, r4, #36	; 0x24
 8005338:	e003      	b.n	8005342 <xQueueGenericSend+0x2a6>
 800533a:	1e6b      	subs	r3, r5, #1
 800533c:	b2da      	uxtb	r2, r3
 800533e:	b25d      	sxtb	r5, r3
 8005340:	b14a      	cbz	r2, 8005356 <xQueueGenericSend+0x2ba>
 8005342:	6a63      	ldr	r3, [r4, #36]	; 0x24
 8005344:	4630      	mov	r0, r6
 8005346:	b133      	cbz	r3, 8005356 <xQueueGenericSend+0x2ba>
 8005348:	f001 fb76 	bl	8006a38 <xTaskRemoveFromEventList>
 800534c:	2800      	cmp	r0, #0
 800534e:	d0f4      	beq.n	800533a <xQueueGenericSend+0x29e>
 8005350:	f001 fc16 	bl	8006b80 <vTaskMissedYield>
 8005354:	e7f1      	b.n	800533a <xQueueGenericSend+0x29e>
 8005356:	23ff      	movs	r3, #255	; 0xff
 8005358:	f884 3045 	strb.w	r3, [r4, #69]	; 0x45
 800535c:	f002 f870 	bl	8007440 <vPortExitCritical>
 8005360:	f002 f848 	bl	80073f4 <vPortEnterCritical>
 8005364:	f894 3044 	ldrb.w	r3, [r4, #68]	; 0x44
 8005368:	b25d      	sxtb	r5, r3
 800536a:	2d00      	cmp	r5, #0
 800536c:	dd10      	ble.n	8005390 <xQueueGenericSend+0x2f4>
 800536e:	f104 0610 	add.w	r6, r4, #16
 8005372:	e003      	b.n	800537c <xQueueGenericSend+0x2e0>
 8005374:	1e6b      	subs	r3, r5, #1
 8005376:	b2da      	uxtb	r2, r3
 8005378:	b25d      	sxtb	r5, r3
 800537a:	b14a      	cbz	r2, 8005390 <xQueueGenericSend+0x2f4>
 800537c:	6923      	ldr	r3, [r4, #16]
 800537e:	4630      	mov	r0, r6
 8005380:	b133      	cbz	r3, 8005390 <xQueueGenericSend+0x2f4>
 8005382:	f001 fb59 	bl	8006a38 <xTaskRemoveFromEventList>
 8005386:	2800      	cmp	r0, #0
 8005388:	d0f4      	beq.n	8005374 <xQueueGenericSend+0x2d8>
 800538a:	f001 fbf9 	bl	8006b80 <vTaskMissedYield>
 800538e:	e7f1      	b.n	8005374 <xQueueGenericSend+0x2d8>
 8005390:	23ff      	movs	r3, #255	; 0xff
 8005392:	f884 3044 	strb.w	r3, [r4, #68]	; 0x44
 8005396:	f002 f853 	bl	8007440 <vPortExitCritical>
 800539a:	f001 f9af 	bl	80066fc <xTaskResumeAll>
 800539e:	2000      	movs	r0, #0
 80053a0:	e7ba      	b.n	8005318 <xQueueGenericSend+0x27c>
 80053a2:	f104 0024 	add.w	r0, r4, #36	; 0x24
 80053a6:	f001 fb47 	bl	8006a38 <xTaskRemoveFromEventList>
 80053aa:	2800      	cmp	r0, #0
 80053ac:	d0b1      	beq.n	8005312 <xQueueGenericSend+0x276>
 80053ae:	e7a6      	b.n	80052fe <xQueueGenericSend+0x262>

080053b0 <xQueueCreateMutex>:
 80053b0:	b538      	push	{r3, r4, r5, lr}
 80053b2:	2048      	movs	r0, #72	; 0x48
 80053b4:	f002 f970 	bl	8007698 <pvPortMalloc>
 80053b8:	4604      	mov	r4, r0
 80053ba:	b350      	cbz	r0, 8005412 <xQueueCreateMutex+0x62>
 80053bc:	2500      	movs	r5, #0
 80053be:	2301      	movs	r3, #1
 80053c0:	6020      	str	r0, [r4, #0]
 80053c2:	e9c0 350f 	strd	r3, r5, [r0, #60]	; 0x3c
 80053c6:	f002 f815 	bl	80073f4 <vPortEnterCritical>
 80053ca:	6822      	ldr	r2, [r4, #0]
 80053cc:	63a5      	str	r5, [r4, #56]	; 0x38
 80053ce:	f104 0010 	add.w	r0, r4, #16
 80053d2:	6062      	str	r2, [r4, #4]
 80053d4:	e9d4 310f 	ldrd	r3, r1, [r4, #60]	; 0x3c
 80053d8:	fb01 f303 	mul.w	r3, r1, r3
 80053dc:	1a59      	subs	r1, r3, r1
 80053de:	4413      	add	r3, r2
 80053e0:	440a      	add	r2, r1
 80053e2:	60a3      	str	r3, [r4, #8]
 80053e4:	23ff      	movs	r3, #255	; 0xff
 80053e6:	60e2      	str	r2, [r4, #12]
 80053e8:	f884 3044 	strb.w	r3, [r4, #68]	; 0x44
 80053ec:	f884 3045 	strb.w	r3, [r4, #69]	; 0x45
 80053f0:	f7ff fd84 	bl	8004efc <vListInitialise>
 80053f4:	f104 0024 	add.w	r0, r4, #36	; 0x24
 80053f8:	f7ff fd80 	bl	8004efc <vListInitialise>
 80053fc:	f002 f820 	bl	8007440 <vPortExitCritical>
 8005400:	462b      	mov	r3, r5
 8005402:	462a      	mov	r2, r5
 8005404:	4629      	mov	r1, r5
 8005406:	4620      	mov	r0, r4
 8005408:	60a5      	str	r5, [r4, #8]
 800540a:	6025      	str	r5, [r4, #0]
 800540c:	60e5      	str	r5, [r4, #12]
 800540e:	f7ff fe45 	bl	800509c <xQueueGenericSend>
 8005412:	4620      	mov	r0, r4
 8005414:	bd38      	pop	{r3, r4, r5, pc}
 8005416:	bf00      	nop

08005418 <xQueueGenericSendFromISR>:
 8005418:	2800      	cmp	r0, #0
 800541a:	d053      	beq.n	80054c4 <xQueueGenericSendFromISR+0xac>
 800541c:	e92d 41f0 	stmdb	sp!, {r4, r5, r6, r7, r8, lr}
 8005420:	460e      	mov	r6, r1
 8005422:	4604      	mov	r4, r0
 8005424:	4617      	mov	r7, r2
 8005426:	461d      	mov	r5, r3
 8005428:	b359      	cbz	r1, 8005482 <xQueueGenericSendFromISR+0x6a>
 800542a:	2d02      	cmp	r5, #2
 800542c:	d10d      	bne.n	800544a <xQueueGenericSendFromISR+0x32>
 800542e:	6be3      	ldr	r3, [r4, #60]	; 0x3c
 8005430:	2b01      	cmp	r3, #1
 8005432:	d00a      	beq.n	800544a <xQueueGenericSendFromISR+0x32>
 8005434:	f04f 0350 	mov.w	r3, #80	; 0x50
 8005438:	b672      	cpsid	i
 800543a:	f383 8811 	msr	BASEPRI, r3
 800543e:	f3bf 8f6f 	isb	sy
 8005442:	f3bf 8f4f 	dsb	sy
 8005446:	b662      	cpsie	i
 8005448:	e7fe      	b.n	8005448 <xQueueGenericSendFromISR+0x30>
 800544a:	f002 f8f3 	bl	8007634 <vPortValidateInterruptPriority>
 800544e:	f3ef 8811 	mrs	r8, BASEPRI
 8005452:	f04f 0350 	mov.w	r3, #80	; 0x50
 8005456:	b672      	cpsid	i
 8005458:	f383 8811 	msr	BASEPRI, r3
 800545c:	f3bf 8f6f 	isb	sy
 8005460:	f3bf 8f4f 	dsb	sy
 8005464:	b662      	cpsie	i
 8005466:	6ba2      	ldr	r2, [r4, #56]	; 0x38
 8005468:	6be3      	ldr	r3, [r4, #60]	; 0x3c
 800546a:	429a      	cmp	r2, r3
 800546c:	d317      	bcc.n	800549e <xQueueGenericSendFromISR+0x86>
 800546e:	f1a5 0002 	sub.w	r0, r5, #2
 8005472:	fab0 f080 	clz	r0, r0
 8005476:	0940      	lsrs	r0, r0, #5
 8005478:	b988      	cbnz	r0, 800549e <xQueueGenericSendFromISR+0x86>
 800547a:	f388 8811 	msr	BASEPRI, r8
 800547e:	e8bd 81f0 	ldmia.w	sp!, {r4, r5, r6, r7, r8, pc}
 8005482:	6c03      	ldr	r3, [r0, #64]	; 0x40
 8005484:	2b00      	cmp	r3, #0
 8005486:	d0d0      	beq.n	800542a <xQueueGenericSendFromISR+0x12>
 8005488:	f04f 0350 	mov.w	r3, #80	; 0x50
 800548c:	b672      	cpsid	i
 800548e:	f383 8811 	msr	BASEPRI, r3
 8005492:	f3bf 8f6f 	isb	sy
 8005496:	f3bf 8f4f 	dsb	sy
 800549a:	b662      	cpsie	i
 800549c:	e7fe      	b.n	800549c <xQueueGenericSendFromISR+0x84>
 800549e:	462a      	mov	r2, r5
 80054a0:	f894 5045 	ldrb.w	r5, [r4, #69]	; 0x45
 80054a4:	4631      	mov	r1, r6
 80054a6:	4620      	mov	r0, r4
 80054a8:	b26d      	sxtb	r5, r5
 80054aa:	f7ff fd6f 	bl	8004f8c <prvCopyDataToQueue>
 80054ae:	1c6b      	adds	r3, r5, #1
 80054b0:	d013      	beq.n	80054da <xQueueGenericSendFromISR+0xc2>
 80054b2:	1c6b      	adds	r3, r5, #1
 80054b4:	2001      	movs	r0, #1
 80054b6:	b25b      	sxtb	r3, r3
 80054b8:	f884 3045 	strb.w	r3, [r4, #69]	; 0x45
 80054bc:	f388 8811 	msr	BASEPRI, r8
 80054c0:	e8bd 81f0 	ldmia.w	sp!, {r4, r5, r6, r7, r8, pc}
 80054c4:	f04f 0350 	mov.w	r3, #80	; 0x50
 80054c8:	b672      	cpsid	i
 80054ca:	f383 8811 	msr	BASEPRI, r3
 80054ce:	f3bf 8f6f 	isb	sy
 80054d2:	f3bf 8f4f 	dsb	sy
 80054d6:	b662      	cpsie	i
 80054d8:	e7fe      	b.n	80054d8 <xQueueGenericSendFromISR+0xc0>
 80054da:	6a63      	ldr	r3, [r4, #36]	; 0x24
 80054dc:	b90b      	cbnz	r3, 80054e2 <xQueueGenericSendFromISR+0xca>
 80054de:	2001      	movs	r0, #1
 80054e0:	e7cb      	b.n	800547a <xQueueGenericSendFromISR+0x62>
 80054e2:	f104 0024 	add.w	r0, r4, #36	; 0x24
 80054e6:	f001 faa7 	bl	8006a38 <xTaskRemoveFromEventList>
 80054ea:	2800      	cmp	r0, #0
 80054ec:	d0f7      	beq.n	80054de <xQueueGenericSendFromISR+0xc6>
 80054ee:	2f00      	cmp	r7, #0
 80054f0:	d0f5      	beq.n	80054de <xQueueGenericSendFromISR+0xc6>
 80054f2:	2301      	movs	r3, #1
 80054f4:	4618      	mov	r0, r3
 80054f6:	603b      	str	r3, [r7, #0]
 80054f8:	e7bf      	b.n	800547a <xQueueGenericSendFromISR+0x62>
 80054fa:	bf00      	nop

080054fc <xQueueGiveFromISR>:
 80054fc:	b380      	cbz	r0, 8005560 <xQueueGiveFromISR+0x64>
 80054fe:	b570      	push	{r4, r5, r6, lr}
 8005500:	6c03      	ldr	r3, [r0, #64]	; 0x40
 8005502:	4604      	mov	r4, r0
 8005504:	b153      	cbz	r3, 800551c <xQueueGiveFromISR+0x20>
 8005506:	f04f 0350 	mov.w	r3, #80	; 0x50
 800550a:	b672      	cpsid	i
 800550c:	f383 8811 	msr	BASEPRI, r3
 8005510:	f3bf 8f6f 	isb	sy
 8005514:	f3bf 8f4f 	dsb	sy
 8005518:	b662      	cpsie	i
 800551a:	e7fe      	b.n	800551a <xQueueGiveFromISR+0x1e>
 800551c:	6803      	ldr	r3, [r0, #0]
 800551e:	460d      	mov	r5, r1
 8005520:	b34b      	cbz	r3, 8005576 <xQueueGiveFromISR+0x7a>
 8005522:	f002 f887 	bl	8007634 <vPortValidateInterruptPriority>
 8005526:	f3ef 8611 	mrs	r6, BASEPRI
 800552a:	f04f 0350 	mov.w	r3, #80	; 0x50
 800552e:	b672      	cpsid	i
 8005530:	f383 8811 	msr	BASEPRI, r3
 8005534:	f3bf 8f6f 	isb	sy
 8005538:	f3bf 8f4f 	dsb	sy
 800553c:	b662      	cpsie	i
 800553e:	6ba3      	ldr	r3, [r4, #56]	; 0x38
 8005540:	6be2      	ldr	r2, [r4, #60]	; 0x3c
 8005542:	429a      	cmp	r2, r3
 8005544:	d925      	bls.n	8005592 <xQueueGiveFromISR+0x96>
 8005546:	f894 2045 	ldrb.w	r2, [r4, #69]	; 0x45
 800554a:	3301      	adds	r3, #1
 800554c:	2aff      	cmp	r2, #255	; 0xff
 800554e:	63a3      	str	r3, [r4, #56]	; 0x38
 8005550:	b253      	sxtb	r3, r2
 8005552:	d022      	beq.n	800559a <xQueueGiveFromISR+0x9e>
 8005554:	3301      	adds	r3, #1
 8005556:	2001      	movs	r0, #1
 8005558:	b25b      	sxtb	r3, r3
 800555a:	f884 3045 	strb.w	r3, [r4, #69]	; 0x45
 800555e:	e019      	b.n	8005594 <xQueueGiveFromISR+0x98>
 8005560:	f04f 0350 	mov.w	r3, #80	; 0x50
 8005564:	b672      	cpsid	i
 8005566:	f383 8811 	msr	BASEPRI, r3
 800556a:	f3bf 8f6f 	isb	sy
 800556e:	f3bf 8f4f 	dsb	sy
 8005572:	b662      	cpsie	i
 8005574:	e7fe      	b.n	8005574 <xQueueGiveFromISR+0x78>
 8005576:	6883      	ldr	r3, [r0, #8]
 8005578:	2b00      	cmp	r3, #0
 800557a:	d0d2      	beq.n	8005522 <xQueueGiveFromISR+0x26>
 800557c:	f04f 0350 	mov.w	r3, #80	; 0x50
 8005580:	b672      	cpsid	i
 8005582:	f383 8811 	msr	BASEPRI, r3
 8005586:	f3bf 8f6f 	isb	sy
 800558a:	f3bf 8f4f 	dsb	sy
 800558e:	b662      	cpsie	i
 8005590:	e7fe      	b.n	8005590 <xQueueGiveFromISR+0x94>
 8005592:	2000      	movs	r0, #0
 8005594:	f386 8811 	msr	BASEPRI, r6
 8005598:	bd70      	pop	{r4, r5, r6, pc}
 800559a:	6a63      	ldr	r3, [r4, #36]	; 0x24
 800559c:	b90b      	cbnz	r3, 80055a2 <xQueueGiveFromISR+0xa6>
 800559e:	2001      	movs	r0, #1
 80055a0:	e7f8      	b.n	8005594 <xQueueGiveFromISR+0x98>
 80055a2:	f104 0024 	add.w	r0, r4, #36	; 0x24
 80055a6:	f001 fa47 	bl	8006a38 <xTaskRemoveFromEventList>
 80055aa:	2d00      	cmp	r5, #0
 80055ac:	d0f7      	beq.n	800559e <xQueueGiveFromISR+0xa2>
 80055ae:	2800      	cmp	r0, #0
 80055b0:	d0f5      	beq.n	800559e <xQueueGiveFromISR+0xa2>
 80055b2:	2301      	movs	r3, #1
 80055b4:	4618      	mov	r0, r3
 80055b6:	602b      	str	r3, [r5, #0]
 80055b8:	e7ec      	b.n	8005594 <xQueueGiveFromISR+0x98>
 80055ba:	bf00      	nop

080055bc <xQueueReceive>:
 80055bc:	e92d 43f0 	stmdb	sp!, {r4, r5, r6, r7, r8, r9, lr}
 80055c0:	b085      	sub	sp, #20
 80055c2:	9201      	str	r2, [sp, #4]
 80055c4:	2800      	cmp	r0, #0
 80055c6:	f000 8166 	beq.w	8005896 <xQueueReceive+0x2da>
 80055ca:	460f      	mov	r7, r1
 80055cc:	4604      	mov	r4, r0
 80055ce:	2900      	cmp	r1, #0
 80055d0:	f000 8096 	beq.w	8005700 <xQueueReceive+0x144>
 80055d4:	f001 fae0 	bl	8006b98 <xTaskGetSchedulerState>
 80055d8:	2800      	cmp	r0, #0
 80055da:	f000 80a0 	beq.w	800571e <xQueueReceive+0x162>
 80055de:	f001 ff09 	bl	80073f4 <vPortEnterCritical>
 80055e2:	6ba5      	ldr	r5, [r4, #56]	; 0x38
 80055e4:	2d00      	cmp	r5, #0
 80055e6:	d174      	bne.n	80056d2 <xQueueReceive+0x116>
 80055e8:	9b01      	ldr	r3, [sp, #4]
 80055ea:	2b00      	cmp	r3, #0
 80055ec:	f000 80f8 	beq.w	80057e0 <xQueueReceive+0x224>
 80055f0:	46a8      	mov	r8, r5
 80055f2:	f104 0624 	add.w	r6, r4, #36	; 0x24
 80055f6:	a802      	add	r0, sp, #8
 80055f8:	f001 fa6a 	bl	8006ad0 <vTaskInternalSetTimeOutState>
 80055fc:	f001 ff20 	bl	8007440 <vPortExitCritical>
 8005600:	f000 ff14 	bl	800642c <vTaskSuspendAll>
 8005604:	f001 fef6 	bl	80073f4 <vPortEnterCritical>
 8005608:	f894 3044 	ldrb.w	r3, [r4, #68]	; 0x44
 800560c:	2bff      	cmp	r3, #255	; 0xff
 800560e:	d101      	bne.n	8005614 <xQueueReceive+0x58>
 8005610:	f884 8044 	strb.w	r8, [r4, #68]	; 0x44
 8005614:	f894 3045 	ldrb.w	r3, [r4, #69]	; 0x45
 8005618:	2bff      	cmp	r3, #255	; 0xff
 800561a:	d101      	bne.n	8005620 <xQueueReceive+0x64>
 800561c:	f884 8045 	strb.w	r8, [r4, #69]	; 0x45
 8005620:	f001 ff0e 	bl	8007440 <vPortExitCritical>
 8005624:	a901      	add	r1, sp, #4
 8005626:	a802      	add	r0, sp, #8
 8005628:	f001 fa5e 	bl	8006ae8 <xTaskCheckForTimeOut>
 800562c:	2800      	cmp	r0, #0
 800562e:	f040 8085 	bne.w	800573c <xQueueReceive+0x180>
 8005632:	f001 fedf 	bl	80073f4 <vPortEnterCritical>
 8005636:	6ba3      	ldr	r3, [r4, #56]	; 0x38
 8005638:	2b00      	cmp	r3, #0
 800563a:	f000 80d7 	beq.w	80057ec <xQueueReceive+0x230>
 800563e:	f001 feff 	bl	8007440 <vPortExitCritical>
 8005642:	f001 fed7 	bl	80073f4 <vPortEnterCritical>
 8005646:	f894 3045 	ldrb.w	r3, [r4, #69]	; 0x45
 800564a:	b25d      	sxtb	r5, r3
 800564c:	2d00      	cmp	r5, #0
 800564e:	dc04      	bgt.n	800565a <xQueueReceive+0x9e>
 8005650:	e011      	b.n	8005676 <xQueueReceive+0xba>
 8005652:	1e6b      	subs	r3, r5, #1
 8005654:	b2da      	uxtb	r2, r3
 8005656:	b25d      	sxtb	r5, r3
 8005658:	b16a      	cbz	r2, 8005676 <xQueueReceive+0xba>
 800565a:	6a63      	ldr	r3, [r4, #36]	; 0x24
 800565c:	4630      	mov	r0, r6
 800565e:	b153      	cbz	r3, 8005676 <xQueueReceive+0xba>
 8005660:	f001 f9ea 	bl	8006a38 <xTaskRemoveFromEventList>
 8005664:	2800      	cmp	r0, #0
 8005666:	d0f4      	beq.n	8005652 <xQueueReceive+0x96>
 8005668:	f001 fa8a 	bl	8006b80 <vTaskMissedYield>
 800566c:	1e6b      	subs	r3, r5, #1
 800566e:	b2da      	uxtb	r2, r3
 8005670:	b25d      	sxtb	r5, r3
 8005672:	2a00      	cmp	r2, #0
 8005674:	d1f1      	bne.n	800565a <xQueueReceive+0x9e>
 8005676:	23ff      	movs	r3, #255	; 0xff
 8005678:	f884 3045 	strb.w	r3, [r4, #69]	; 0x45
 800567c:	f001 fee0 	bl	8007440 <vPortExitCritical>
 8005680:	f001 feb8 	bl	80073f4 <vPortEnterCritical>
 8005684:	f894 3044 	ldrb.w	r3, [r4, #68]	; 0x44
 8005688:	b25d      	sxtb	r5, r3
 800568a:	2d00      	cmp	r5, #0
 800568c:	dd14      	ble.n	80056b8 <xQueueReceive+0xfc>
 800568e:	f104 0910 	add.w	r9, r4, #16
 8005692:	e003      	b.n	800569c <xQueueReceive+0xe0>
 8005694:	1e6b      	subs	r3, r5, #1
 8005696:	b2da      	uxtb	r2, r3
 8005698:	b25d      	sxtb	r5, r3
 800569a:	b16a      	cbz	r2, 80056b8 <xQueueReceive+0xfc>
 800569c:	6923      	ldr	r3, [r4, #16]
 800569e:	4648      	mov	r0, r9
 80056a0:	b153      	cbz	r3, 80056b8 <xQueueReceive+0xfc>
 80056a2:	f001 f9c9 	bl	8006a38 <xTaskRemoveFromEventList>
 80056a6:	2800      	cmp	r0, #0
 80056a8:	d0f4      	beq.n	8005694 <xQueueReceive+0xd8>
 80056aa:	f001 fa69 	bl	8006b80 <vTaskMissedYield>
 80056ae:	1e6b      	subs	r3, r5, #1
 80056b0:	b2da      	uxtb	r2, r3
 80056b2:	b25d      	sxtb	r5, r3
 80056b4:	2a00      	cmp	r2, #0
 80056b6:	d1f1      	bne.n	800569c <xQueueReceive+0xe0>
 80056b8:	23ff      	movs	r3, #255	; 0xff
 80056ba:	f884 3044 	strb.w	r3, [r4, #68]	; 0x44
 80056be:	f001 febf 	bl	8007440 <vPortExitCritical>
 80056c2:	f001 f81b 	bl	80066fc <xTaskResumeAll>
 80056c6:	f001 fe95 	bl	80073f4 <vPortEnterCritical>
 80056ca:	6ba5      	ldr	r5, [r4, #56]	; 0x38
 80056cc:	2d00      	cmp	r5, #0
 80056ce:	f000 8083 	beq.w	80057d8 <xQueueReceive+0x21c>
 80056d2:	6c22      	ldr	r2, [r4, #64]	; 0x40
 80056d4:	b152      	cbz	r2, 80056ec <xQueueReceive+0x130>
 80056d6:	68e1      	ldr	r1, [r4, #12]
 80056d8:	68a3      	ldr	r3, [r4, #8]
 80056da:	4411      	add	r1, r2
 80056dc:	4299      	cmp	r1, r3
 80056de:	60e1      	str	r1, [r4, #12]
 80056e0:	d301      	bcc.n	80056e6 <xQueueReceive+0x12a>
 80056e2:	6821      	ldr	r1, [r4, #0]
 80056e4:	60e1      	str	r1, [r4, #12]
 80056e6:	4638      	mov	r0, r7
 80056e8:	f003 fd60 	bl	80091ac <memcpy>
 80056ec:	3d01      	subs	r5, #1
 80056ee:	63a5      	str	r5, [r4, #56]	; 0x38
 80056f0:	6923      	ldr	r3, [r4, #16]
 80056f2:	2b00      	cmp	r3, #0
 80056f4:	f040 80da 	bne.w	80058ac <xQueueReceive+0x2f0>
 80056f8:	f001 fea2 	bl	8007440 <vPortExitCritical>
 80056fc:	2001      	movs	r0, #1
 80056fe:	e072      	b.n	80057e6 <xQueueReceive+0x22a>
 8005700:	6c03      	ldr	r3, [r0, #64]	; 0x40
 8005702:	2b00      	cmp	r3, #0
 8005704:	f43f af66 	beq.w	80055d4 <xQueueReceive+0x18>
 8005708:	f04f 0350 	mov.w	r3, #80	; 0x50
 800570c:	b672      	cpsid	i
 800570e:	f383 8811 	msr	BASEPRI, r3
 8005712:	f3bf 8f6f 	isb	sy
 8005716:	f3bf 8f4f 	dsb	sy
 800571a:	b662      	cpsie	i
 800571c:	e7fe      	b.n	800571c <xQueueReceive+0x160>
 800571e:	9b01      	ldr	r3, [sp, #4]
 8005720:	2b00      	cmp	r3, #0
 8005722:	f43f af5c 	beq.w	80055de <xQueueReceive+0x22>
 8005726:	f04f 0350 	mov.w	r3, #80	; 0x50
 800572a:	b672      	cpsid	i
 800572c:	f383 8811 	msr	BASEPRI, r3
 8005730:	f3bf 8f6f 	isb	sy
 8005734:	f3bf 8f4f 	dsb	sy
 8005738:	b662      	cpsie	i
 800573a:	e7fe      	b.n	800573a <xQueueReceive+0x17e>
 800573c:	f001 fe5a 	bl	80073f4 <vPortEnterCritical>
 8005740:	f894 3045 	ldrb.w	r3, [r4, #69]	; 0x45
 8005744:	b25d      	sxtb	r5, r3
 8005746:	2d00      	cmp	r5, #0
 8005748:	dc04      	bgt.n	8005754 <xQueueReceive+0x198>
 800574a:	e011      	b.n	8005770 <xQueueReceive+0x1b4>
 800574c:	1e6b      	subs	r3, r5, #1
 800574e:	b2da      	uxtb	r2, r3
 8005750:	b25d      	sxtb	r5, r3
 8005752:	b16a      	cbz	r2, 8005770 <xQueueReceive+0x1b4>
 8005754:	6a63      	ldr	r3, [r4, #36]	; 0x24
 8005756:	4630      	mov	r0, r6
 8005758:	b153      	cbz	r3, 8005770 <xQueueReceive+0x1b4>
 800575a:	f001 f96d 	bl	8006a38 <xTaskRemoveFromEventList>
 800575e:	2800      	cmp	r0, #0
 8005760:	d0f4      	beq.n	800574c <xQueueReceive+0x190>
 8005762:	f001 fa0d 	bl	8006b80 <vTaskMissedYield>
 8005766:	1e6b      	subs	r3, r5, #1
 8005768:	b2da      	uxtb	r2, r3
 800576a:	b25d      	sxtb	r5, r3
 800576c:	2a00      	cmp	r2, #0
 800576e:	d1f1      	bne.n	8005754 <xQueueReceive+0x198>
 8005770:	23ff      	movs	r3, #255	; 0xff
 8005772:	f884 3045 	strb.w	r3, [r4, #69]	; 0x45
 8005776:	f001 fe63 	bl	8007440 <vPortExitCritical>
 800577a:	f001 fe3b 	bl	80073f4 <vPortEnterCritical>
 800577e:	f894 3044 	ldrb.w	r3, [r4, #68]	; 0x44
 8005782:	b25d      	sxtb	r5, r3
 8005784:	2d00      	cmp	r5, #0
 8005786:	dd14      	ble.n	80057b2 <xQueueReceive+0x1f6>
 8005788:	f104 0910 	add.w	r9, r4, #16
 800578c:	e003      	b.n	8005796 <xQueueReceive+0x1da>
 800578e:	1e6b      	subs	r3, r5, #1
 8005790:	b2da      	uxtb	r2, r3
 8005792:	b25d      	sxtb	r5, r3
 8005794:	b16a      	cbz	r2, 80057b2 <xQueueReceive+0x1f6>
 8005796:	6923      	ldr	r3, [r4, #16]
 8005798:	4648      	mov	r0, r9
 800579a:	b153      	cbz	r3, 80057b2 <xQueueReceive+0x1f6>
 800579c:	f001 f94c 	bl	8006a38 <xTaskRemoveFromEventList>
 80057a0:	2800      	cmp	r0, #0
 80057a2:	d0f4      	beq.n	800578e <xQueueReceive+0x1d2>
 80057a4:	f001 f9ec 	bl	8006b80 <vTaskMissedYield>
 80057a8:	1e6b      	subs	r3, r5, #1
 80057aa:	b2da      	uxtb	r2, r3
 80057ac:	b25d      	sxtb	r5, r3
 80057ae:	2a00      	cmp	r2, #0
 80057b0:	d1f1      	bne.n	8005796 <xQueueReceive+0x1da>
 80057b2:	23ff      	movs	r3, #255	; 0xff
 80057b4:	f884 3044 	strb.w	r3, [r4, #68]	; 0x44
 80057b8:	f001 fe42 	bl	8007440 <vPortExitCritical>
 80057bc:	f000 ff9e 	bl	80066fc <xTaskResumeAll>
 80057c0:	f001 fe18 	bl	80073f4 <vPortEnterCritical>
 80057c4:	6ba3      	ldr	r3, [r4, #56]	; 0x38
 80057c6:	b15b      	cbz	r3, 80057e0 <xQueueReceive+0x224>
 80057c8:	f001 fe3a 	bl	8007440 <vPortExitCritical>
 80057cc:	f001 fe12 	bl	80073f4 <vPortEnterCritical>
 80057d0:	6ba5      	ldr	r5, [r4, #56]	; 0x38
 80057d2:	2d00      	cmp	r5, #0
 80057d4:	f47f af7d 	bne.w	80056d2 <xQueueReceive+0x116>
 80057d8:	9b01      	ldr	r3, [sp, #4]
 80057da:	2b00      	cmp	r3, #0
 80057dc:	f47f af0e 	bne.w	80055fc <xQueueReceive+0x40>
 80057e0:	f001 fe2e 	bl	8007440 <vPortExitCritical>
 80057e4:	2000      	movs	r0, #0
 80057e6:	b005      	add	sp, #20
 80057e8:	e8bd 83f0 	ldmia.w	sp!, {r4, r5, r6, r7, r8, r9, pc}
 80057ec:	f001 fe28 	bl	8007440 <vPortExitCritical>
 80057f0:	9901      	ldr	r1, [sp, #4]
 80057f2:	4630      	mov	r0, r6
 80057f4:	f001 f862 	bl	80068bc <vTaskPlaceOnEventList>
 80057f8:	f001 fdfc 	bl	80073f4 <vPortEnterCritical>
 80057fc:	f894 3045 	ldrb.w	r3, [r4, #69]	; 0x45
 8005800:	b25d      	sxtb	r5, r3
 8005802:	2d00      	cmp	r5, #0
 8005804:	dc04      	bgt.n	8005810 <xQueueReceive+0x254>
 8005806:	e011      	b.n	800582c <xQueueReceive+0x270>
 8005808:	1e6b      	subs	r3, r5, #1
 800580a:	b2da      	uxtb	r2, r3
 800580c:	b25d      	sxtb	r5, r3
 800580e:	b16a      	cbz	r2, 800582c <xQueueReceive+0x270>
 8005810:	6a63      	ldr	r3, [r4, #36]	; 0x24
 8005812:	4630      	mov	r0, r6
 8005814:	b153      	cbz	r3, 800582c <xQueueReceive+0x270>
 8005816:	f001 f90f 	bl	8006a38 <xTaskRemoveFromEventList>
 800581a:	2800      	cmp	r0, #0
 800581c:	d0f4      	beq.n	8005808 <xQueueReceive+0x24c>
 800581e:	f001 f9af 	bl	8006b80 <vTaskMissedYield>
 8005822:	1e6b      	subs	r3, r5, #1
 8005824:	b2da      	uxtb	r2, r3
 8005826:	b25d      	sxtb	r5, r3
 8005828:	2a00      	cmp	r2, #0
 800582a:	d1f1      	bne.n	8005810 <xQueueReceive+0x254>
 800582c:	23ff      	movs	r3, #255	; 0xff
 800582e:	f884 3045 	strb.w	r3, [r4, #69]	; 0x45
 8005832:	f001 fe05 	bl	8007440 <vPortExitCritical>
 8005836:	f001 fddd 	bl	80073f4 <vPortEnterCritical>
 800583a:	f894 3044 	ldrb.w	r3, [r4, #68]	; 0x44
 800583e:	b25d      	sxtb	r5, r3
 8005840:	2d00      	cmp	r5, #0
 8005842:	dd14      	ble.n	800586e <xQueueReceive+0x2b2>
 8005844:	f104 0910 	add.w	r9, r4, #16
 8005848:	e003      	b.n	8005852 <xQueueReceive+0x296>
 800584a:	1e6b      	subs	r3, r5, #1
 800584c:	b2da      	uxtb	r2, r3
 800584e:	b25d      	sxtb	r5, r3
 8005850:	b16a      	cbz	r2, 800586e <xQueueReceive+0x2b2>
 8005852:	6923      	ldr	r3, [r4, #16]
 8005854:	4648      	mov	r0, r9
 8005856:	b153      	cbz	r3, 800586e <xQueueReceive+0x2b2>
 8005858:	f001 f8ee 	bl	8006a38 <xTaskRemoveFromEventList>
 800585c:	2800      	cmp	r0, #0
 800585e:	d0f4      	beq.n	800584a <xQueueReceive+0x28e>
 8005860:	f001 f98e 	bl	8006b80 <vTaskMissedYield>
 8005864:	1e6b      	subs	r3, r5, #1
 8005866:	b2da      	uxtb	r2, r3
 8005868:	b25d      	sxtb	r5, r3
 800586a:	2a00      	cmp	r2, #0
 800586c:	d1f1      	bne.n	8005852 <xQueueReceive+0x296>
 800586e:	23ff      	movs	r3, #255	; 0xff
 8005870:	f884 3044 	strb.w	r3, [r4, #68]	; 0x44
 8005874:	f001 fde4 	bl	8007440 <vPortExitCritical>
 8005878:	f000 ff40 	bl	80066fc <xTaskResumeAll>
 800587c:	2800      	cmp	r0, #0
 800587e:	d1a5      	bne.n	80057cc <xQueueReceive+0x210>
 8005880:	f04f 23e0 	mov.w	r3, #3758153728	; 0xe000e000
 8005884:	f04f 5280 	mov.w	r2, #268435456	; 0x10000000
 8005888:	f8c3 2d04 	str.w	r2, [r3, #3332]	; 0xd04
 800588c:	f3bf 8f4f 	dsb	sy
 8005890:	f3bf 8f6f 	isb	sy
 8005894:	e79a      	b.n	80057cc <xQueueReceive+0x210>
 8005896:	f04f 0350 	mov.w	r3, #80	; 0x50
 800589a:	b672      	cpsid	i
 800589c:	f383 8811 	msr	BASEPRI, r3
 80058a0:	f3bf 8f6f 	isb	sy
 80058a4:	f3bf 8f4f 	dsb	sy
 80058a8:	b662      	cpsie	i
 80058aa:	e7fe      	b.n	80058aa <xQueueReceive+0x2ee>
 80058ac:	f104 0010 	add.w	r0, r4, #16
 80058b0:	f001 f8c2 	bl	8006a38 <xTaskRemoveFromEventList>
 80058b4:	2800      	cmp	r0, #0
 80058b6:	f43f af1f 	beq.w	80056f8 <xQueueReceive+0x13c>
 80058ba:	f04f 23e0 	mov.w	r3, #3758153728	; 0xe000e000
 80058be:	f04f 5280 	mov.w	r2, #268435456	; 0x10000000
 80058c2:	f8c3 2d04 	str.w	r2, [r3, #3332]	; 0xd04
 80058c6:	f3bf 8f4f 	dsb	sy
 80058ca:	f3bf 8f6f 	isb	sy
 80058ce:	e713      	b.n	80056f8 <xQueueReceive+0x13c>

080058d0 <xQueueSemaphoreTake>:
 80058d0:	e92d 41f0 	stmdb	sp!, {r4, r5, r6, r7, r8, lr}
 80058d4:	b084      	sub	sp, #16
 80058d6:	9101      	str	r1, [sp, #4]
 80058d8:	2800      	cmp	r0, #0
 80058da:	d05e      	beq.n	800599a <xQueueSemaphoreTake+0xca>
 80058dc:	6c07      	ldr	r7, [r0, #64]	; 0x40
 80058de:	4604      	mov	r4, r0
 80058e0:	b157      	cbz	r7, 80058f8 <xQueueSemaphoreTake+0x28>
 80058e2:	f04f 0350 	mov.w	r3, #80	; 0x50
 80058e6:	b672      	cpsid	i
 80058e8:	f383 8811 	msr	BASEPRI, r3
 80058ec:	f3bf 8f6f 	isb	sy
 80058f0:	f3bf 8f4f 	dsb	sy
 80058f4:	b662      	cpsie	i
 80058f6:	e7fe      	b.n	80058f6 <xQueueSemaphoreTake+0x26>
 80058f8:	f001 f94e 	bl	8006b98 <xTaskGetSchedulerState>
 80058fc:	4605      	mov	r5, r0
 80058fe:	2800      	cmp	r0, #0
 8005900:	d056      	beq.n	80059b0 <xQueueSemaphoreTake+0xe0>
 8005902:	463d      	mov	r5, r7
 8005904:	f104 0624 	add.w	r6, r4, #36	; 0x24
 8005908:	f001 fd74 	bl	80073f4 <vPortEnterCritical>
 800590c:	6ba3      	ldr	r3, [r4, #56]	; 0x38
 800590e:	2b00      	cmp	r3, #0
 8005910:	f040 814f 	bne.w	8005bb2 <xQueueSemaphoreTake+0x2e2>
 8005914:	9b01      	ldr	r3, [sp, #4]
 8005916:	2b00      	cmp	r3, #0
 8005918:	f000 813e 	beq.w	8005b98 <xQueueSemaphoreTake+0x2c8>
 800591c:	2d00      	cmp	r5, #0
 800591e:	f000 80a1 	beq.w	8005a64 <xQueueSemaphoreTake+0x194>
 8005922:	f001 fd8d 	bl	8007440 <vPortExitCritical>
 8005926:	f000 fd81 	bl	800642c <vTaskSuspendAll>
 800592a:	f001 fd63 	bl	80073f4 <vPortEnterCritical>
 800592e:	f894 3044 	ldrb.w	r3, [r4, #68]	; 0x44
 8005932:	2bff      	cmp	r3, #255	; 0xff
 8005934:	d102      	bne.n	800593c <xQueueSemaphoreTake+0x6c>
 8005936:	2300      	movs	r3, #0
 8005938:	f884 3044 	strb.w	r3, [r4, #68]	; 0x44
 800593c:	f894 3045 	ldrb.w	r3, [r4, #69]	; 0x45
 8005940:	2bff      	cmp	r3, #255	; 0xff
 8005942:	d102      	bne.n	800594a <xQueueSemaphoreTake+0x7a>
 8005944:	2300      	movs	r3, #0
 8005946:	f884 3045 	strb.w	r3, [r4, #69]	; 0x45
 800594a:	f001 fd79 	bl	8007440 <vPortExitCritical>
 800594e:	a901      	add	r1, sp, #4
 8005950:	a802      	add	r0, sp, #8
 8005952:	f001 f8c9 	bl	8006ae8 <xTaskCheckForTimeOut>
 8005956:	2800      	cmp	r0, #0
 8005958:	d139      	bne.n	80059ce <xQueueSemaphoreTake+0xfe>
 800595a:	f001 fd4b 	bl	80073f4 <vPortEnterCritical>
 800595e:	6ba3      	ldr	r3, [r4, #56]	; 0x38
 8005960:	2b00      	cmp	r3, #0
 8005962:	f000 80a8 	beq.w	8005ab6 <xQueueSemaphoreTake+0x1e6>
 8005966:	f001 fd6b 	bl	8007440 <vPortExitCritical>
 800596a:	f001 fd43 	bl	80073f4 <vPortEnterCritical>
 800596e:	f894 3045 	ldrb.w	r3, [r4, #69]	; 0x45
 8005972:	b25d      	sxtb	r5, r3
 8005974:	2d00      	cmp	r5, #0
 8005976:	dc05      	bgt.n	8005984 <xQueueSemaphoreTake+0xb4>
 8005978:	e078      	b.n	8005a6c <xQueueSemaphoreTake+0x19c>
 800597a:	1e6b      	subs	r3, r5, #1
 800597c:	b2da      	uxtb	r2, r3
 800597e:	b25d      	sxtb	r5, r3
 8005980:	2a00      	cmp	r2, #0
 8005982:	d073      	beq.n	8005a6c <xQueueSemaphoreTake+0x19c>
 8005984:	6a63      	ldr	r3, [r4, #36]	; 0x24
 8005986:	4630      	mov	r0, r6
 8005988:	2b00      	cmp	r3, #0
 800598a:	d06f      	beq.n	8005a6c <xQueueSemaphoreTake+0x19c>
 800598c:	f001 f854 	bl	8006a38 <xTaskRemoveFromEventList>
 8005990:	2800      	cmp	r0, #0
 8005992:	d0f2      	beq.n	800597a <xQueueSemaphoreTake+0xaa>
 8005994:	f001 f8f4 	bl	8006b80 <vTaskMissedYield>
 8005998:	e7ef      	b.n	800597a <xQueueSemaphoreTake+0xaa>
 800599a:	f04f 0350 	mov.w	r3, #80	; 0x50
 800599e:	b672      	cpsid	i
 80059a0:	f383 8811 	msr	BASEPRI, r3
 80059a4:	f3bf 8f6f 	isb	sy
 80059a8:	f3bf 8f4f 	dsb	sy
 80059ac:	b662      	cpsie	i
 80059ae:	e7fe      	b.n	80059ae <xQueueSemaphoreTake+0xde>
 80059b0:	9b01      	ldr	r3, [sp, #4]
 80059b2:	2b00      	cmp	r3, #0
 80059b4:	f000 80d6 	beq.w	8005b64 <xQueueSemaphoreTake+0x294>
 80059b8:	f04f 0350 	mov.w	r3, #80	; 0x50
 80059bc:	b672      	cpsid	i
 80059be:	f383 8811 	msr	BASEPRI, r3
 80059c2:	f3bf 8f6f 	isb	sy
 80059c6:	f3bf 8f4f 	dsb	sy
 80059ca:	b662      	cpsie	i
 80059cc:	e7fe      	b.n	80059cc <xQueueSemaphoreTake+0xfc>
 80059ce:	f001 fd11 	bl	80073f4 <vPortEnterCritical>
 80059d2:	f894 3045 	ldrb.w	r3, [r4, #69]	; 0x45
 80059d6:	b25d      	sxtb	r5, r3
 80059d8:	2d00      	cmp	r5, #0
 80059da:	dc04      	bgt.n	80059e6 <xQueueSemaphoreTake+0x116>
 80059dc:	e011      	b.n	8005a02 <xQueueSemaphoreTake+0x132>
 80059de:	1e6b      	subs	r3, r5, #1
 80059e0:	b2da      	uxtb	r2, r3
 80059e2:	b25d      	sxtb	r5, r3
 80059e4:	b16a      	cbz	r2, 8005a02 <xQueueSemaphoreTake+0x132>
 80059e6:	6a63      	ldr	r3, [r4, #36]	; 0x24
 80059e8:	4630      	mov	r0, r6
 80059ea:	b153      	cbz	r3, 8005a02 <xQueueSemaphoreTake+0x132>
 80059ec:	f001 f824 	bl	8006a38 <xTaskRemoveFromEventList>
 80059f0:	2800      	cmp	r0, #0
 80059f2:	d0f4      	beq.n	80059de <xQueueSemaphoreTake+0x10e>
 80059f4:	f001 f8c4 	bl	8006b80 <vTaskMissedYield>
 80059f8:	1e6b      	subs	r3, r5, #1
 80059fa:	b2da      	uxtb	r2, r3
 80059fc:	b25d      	sxtb	r5, r3
 80059fe:	2a00      	cmp	r2, #0
 8005a00:	d1f1      	bne.n	80059e6 <xQueueSemaphoreTake+0x116>
 8005a02:	23ff      	movs	r3, #255	; 0xff
 8005a04:	f884 3045 	strb.w	r3, [r4, #69]	; 0x45
 8005a08:	f001 fd1a 	bl	8007440 <vPortExitCritical>
 8005a0c:	f001 fcf2 	bl	80073f4 <vPortEnterCritical>
 8005a10:	f894 3044 	ldrb.w	r3, [r4, #68]	; 0x44
 8005a14:	b25d      	sxtb	r5, r3
 8005a16:	2d00      	cmp	r5, #0
 8005a18:	dd14      	ble.n	8005a44 <xQueueSemaphoreTake+0x174>
 8005a1a:	f104 0810 	add.w	r8, r4, #16
 8005a1e:	e003      	b.n	8005a28 <xQueueSemaphoreTake+0x158>
 8005a20:	1e6b      	subs	r3, r5, #1
 8005a22:	b2da      	uxtb	r2, r3
 8005a24:	b25d      	sxtb	r5, r3
 8005a26:	b16a      	cbz	r2, 8005a44 <xQueueSemaphoreTake+0x174>
 8005a28:	6923      	ldr	r3, [r4, #16]
 8005a2a:	4640      	mov	r0, r8
 8005a2c:	b153      	cbz	r3, 8005a44 <xQueueSemaphoreTake+0x174>
 8005a2e:	f001 f803 	bl	8006a38 <xTaskRemoveFromEventList>
 8005a32:	2800      	cmp	r0, #0
 8005a34:	d0f4      	beq.n	8005a20 <xQueueSemaphoreTake+0x150>
 8005a36:	f001 f8a3 	bl	8006b80 <vTaskMissedYield>
 8005a3a:	1e6b      	subs	r3, r5, #1
 8005a3c:	b2da      	uxtb	r2, r3
 8005a3e:	b25d      	sxtb	r5, r3
 8005a40:	2a00      	cmp	r2, #0
 8005a42:	d1f1      	bne.n	8005a28 <xQueueSemaphoreTake+0x158>
 8005a44:	23ff      	movs	r3, #255	; 0xff
 8005a46:	f884 3044 	strb.w	r3, [r4, #68]	; 0x44
 8005a4a:	f001 fcf9 	bl	8007440 <vPortExitCritical>
 8005a4e:	f000 fe55 	bl	80066fc <xTaskResumeAll>
 8005a52:	f001 fccf 	bl	80073f4 <vPortEnterCritical>
 8005a56:	6ba3      	ldr	r3, [r4, #56]	; 0x38
 8005a58:	2b00      	cmp	r3, #0
 8005a5a:	d07c      	beq.n	8005b56 <xQueueSemaphoreTake+0x286>
 8005a5c:	f001 fcf0 	bl	8007440 <vPortExitCritical>
 8005a60:	2501      	movs	r5, #1
 8005a62:	e751      	b.n	8005908 <xQueueSemaphoreTake+0x38>
 8005a64:	a802      	add	r0, sp, #8
 8005a66:	f001 f833 	bl	8006ad0 <vTaskInternalSetTimeOutState>
 8005a6a:	e75a      	b.n	8005922 <xQueueSemaphoreTake+0x52>
 8005a6c:	23ff      	movs	r3, #255	; 0xff
 8005a6e:	f884 3045 	strb.w	r3, [r4, #69]	; 0x45
 8005a72:	f001 fce5 	bl	8007440 <vPortExitCritical>
 8005a76:	f001 fcbd 	bl	80073f4 <vPortEnterCritical>
 8005a7a:	f894 3044 	ldrb.w	r3, [r4, #68]	; 0x44
 8005a7e:	b25d      	sxtb	r5, r3
 8005a80:	2d00      	cmp	r5, #0
 8005a82:	dd10      	ble.n	8005aa6 <xQueueSemaphoreTake+0x1d6>
 8005a84:	f104 0810 	add.w	r8, r4, #16
 8005a88:	e003      	b.n	8005a92 <xQueueSemaphoreTake+0x1c2>
 8005a8a:	1e6b      	subs	r3, r5, #1
 8005a8c:	b2da      	uxtb	r2, r3
 8005a8e:	b25d      	sxtb	r5, r3
 8005a90:	b14a      	cbz	r2, 8005aa6 <xQueueSemaphoreTake+0x1d6>
 8005a92:	6923      	ldr	r3, [r4, #16]
 8005a94:	4640      	mov	r0, r8
 8005a96:	b133      	cbz	r3, 8005aa6 <xQueueSemaphoreTake+0x1d6>
 8005a98:	f000 ffce 	bl	8006a38 <xTaskRemoveFromEventList>
 8005a9c:	2800      	cmp	r0, #0
 8005a9e:	d0f4      	beq.n	8005a8a <xQueueSemaphoreTake+0x1ba>
 8005aa0:	f001 f86e 	bl	8006b80 <vTaskMissedYield>
 8005aa4:	e7f1      	b.n	8005a8a <xQueueSemaphoreTake+0x1ba>
 8005aa6:	23ff      	movs	r3, #255	; 0xff
 8005aa8:	f884 3044 	strb.w	r3, [r4, #68]	; 0x44
 8005aac:	f001 fcc8 	bl	8007440 <vPortExitCritical>
 8005ab0:	f000 fe24 	bl	80066fc <xTaskResumeAll>
 8005ab4:	e7d4      	b.n	8005a60 <xQueueSemaphoreTake+0x190>
 8005ab6:	f001 fcc3 	bl	8007440 <vPortExitCritical>
 8005aba:	6823      	ldr	r3, [r4, #0]
 8005abc:	2b00      	cmp	r3, #0
 8005abe:	d062      	beq.n	8005b86 <xQueueSemaphoreTake+0x2b6>
 8005ac0:	9901      	ldr	r1, [sp, #4]
 8005ac2:	4630      	mov	r0, r6
 8005ac4:	f000 fefa 	bl	80068bc <vTaskPlaceOnEventList>
 8005ac8:	f001 fc94 	bl	80073f4 <vPortEnterCritical>
 8005acc:	f894 3045 	ldrb.w	r3, [r4, #69]	; 0x45
 8005ad0:	b25d      	sxtb	r5, r3
 8005ad2:	2d00      	cmp	r5, #0
 8005ad4:	dc04      	bgt.n	8005ae0 <xQueueSemaphoreTake+0x210>
 8005ad6:	e00d      	b.n	8005af4 <xQueueSemaphoreTake+0x224>
 8005ad8:	1e6b      	subs	r3, r5, #1
 8005ada:	b2da      	uxtb	r2, r3
 8005adc:	b25d      	sxtb	r5, r3
 8005ade:	b14a      	cbz	r2, 8005af4 <xQueueSemaphoreTake+0x224>
 8005ae0:	6a63      	ldr	r3, [r4, #36]	; 0x24
 8005ae2:	4630      	mov	r0, r6
 8005ae4:	b133      	cbz	r3, 8005af4 <xQueueSemaphoreTake+0x224>
 8005ae6:	f000 ffa7 	bl	8006a38 <xTaskRemoveFromEventList>
 8005aea:	2800      	cmp	r0, #0
 8005aec:	d0f4      	beq.n	8005ad8 <xQueueSemaphoreTake+0x208>
 8005aee:	f001 f847 	bl	8006b80 <vTaskMissedYield>
 8005af2:	e7f1      	b.n	8005ad8 <xQueueSemaphoreTake+0x208>
 8005af4:	23ff      	movs	r3, #255	; 0xff
 8005af6:	f884 3045 	strb.w	r3, [r4, #69]	; 0x45
 8005afa:	f001 fca1 	bl	8007440 <vPortExitCritical>
 8005afe:	f001 fc79 	bl	80073f4 <vPortEnterCritical>
 8005b02:	f894 3044 	ldrb.w	r3, [r4, #68]	; 0x44
 8005b06:	b25d      	sxtb	r5, r3
 8005b08:	2d00      	cmp	r5, #0
 8005b0a:	dd10      	ble.n	8005b2e <xQueueSemaphoreTake+0x25e>
 8005b0c:	f104 0810 	add.w	r8, r4, #16
 8005b10:	e003      	b.n	8005b1a <xQueueSemaphoreTake+0x24a>
 8005b12:	1e6b      	subs	r3, r5, #1
 8005b14:	b2da      	uxtb	r2, r3
 8005b16:	b25d      	sxtb	r5, r3
 8005b18:	b14a      	cbz	r2, 8005b2e <xQueueSemaphoreTake+0x25e>
 8005b1a:	6923      	ldr	r3, [r4, #16]
 8005b1c:	4640      	mov	r0, r8
 8005b1e:	b133      	cbz	r3, 8005b2e <xQueueSemaphoreTake+0x25e>
 8005b20:	f000 ff8a 	bl	8006a38 <xTaskRemoveFromEventList>
 8005b24:	2800      	cmp	r0, #0
 8005b26:	d0f4      	beq.n	8005b12 <xQueueSemaphoreTake+0x242>
 8005b28:	f001 f82a 	bl	8006b80 <vTaskMissedYield>
 8005b2c:	e7f1      	b.n	8005b12 <xQueueSemaphoreTake+0x242>
 8005b2e:	23ff      	movs	r3, #255	; 0xff
 8005b30:	f884 3044 	strb.w	r3, [r4, #68]	; 0x44
 8005b34:	f001 fc84 	bl	8007440 <vPortExitCritical>
 8005b38:	f000 fde0 	bl	80066fc <xTaskResumeAll>
 8005b3c:	2800      	cmp	r0, #0
 8005b3e:	d18f      	bne.n	8005a60 <xQueueSemaphoreTake+0x190>
 8005b40:	f04f 23e0 	mov.w	r3, #3758153728	; 0xe000e000
 8005b44:	f04f 5280 	mov.w	r2, #268435456	; 0x10000000
 8005b48:	f8c3 2d04 	str.w	r2, [r3, #3332]	; 0xd04
 8005b4c:	f3bf 8f4f 	dsb	sy
 8005b50:	f3bf 8f6f 	isb	sy
 8005b54:	e784      	b.n	8005a60 <xQueueSemaphoreTake+0x190>
 8005b56:	f001 fc73 	bl	8007440 <vPortExitCritical>
 8005b5a:	b92f      	cbnz	r7, 8005b68 <xQueueSemaphoreTake+0x298>
 8005b5c:	4638      	mov	r0, r7
 8005b5e:	b004      	add	sp, #16
 8005b60:	e8bd 81f0 	ldmia.w	sp!, {r4, r5, r6, r7, r8, pc}
 8005b64:	4607      	mov	r7, r0
 8005b66:	e6cd      	b.n	8005904 <xQueueSemaphoreTake+0x34>
 8005b68:	f001 fc44 	bl	80073f4 <vPortEnterCritical>
 8005b6c:	6a61      	ldr	r1, [r4, #36]	; 0x24
 8005b6e:	b119      	cbz	r1, 8005b78 <xQueueSemaphoreTake+0x2a8>
 8005b70:	6b23      	ldr	r3, [r4, #48]	; 0x30
 8005b72:	6819      	ldr	r1, [r3, #0]
 8005b74:	f1c1 0107 	rsb	r1, r1, #7
 8005b78:	68a0      	ldr	r0, [r4, #8]
 8005b7a:	2700      	movs	r7, #0
 8005b7c:	f001 f8d4 	bl	8006d28 <vTaskPriorityDisinheritAfterTimeout>
 8005b80:	f001 fc5e 	bl	8007440 <vPortExitCritical>
 8005b84:	e7ea      	b.n	8005b5c <xQueueSemaphoreTake+0x28c>
 8005b86:	f001 fc35 	bl	80073f4 <vPortEnterCritical>
 8005b8a:	68a0      	ldr	r0, [r4, #8]
 8005b8c:	f001 f814 	bl	8006bb8 <xTaskPriorityInherit>
 8005b90:	4607      	mov	r7, r0
 8005b92:	f001 fc55 	bl	8007440 <vPortExitCritical>
 8005b96:	e793      	b.n	8005ac0 <xQueueSemaphoreTake+0x1f0>
 8005b98:	2f00      	cmp	r7, #0
 8005b9a:	d0f1      	beq.n	8005b80 <xQueueSemaphoreTake+0x2b0>
 8005b9c:	f04f 0350 	mov.w	r3, #80	; 0x50
 8005ba0:	b672      	cpsid	i
 8005ba2:	f383 8811 	msr	BASEPRI, r3
 8005ba6:	f3bf 8f6f 	isb	sy
 8005baa:	f3bf 8f4f 	dsb	sy
 8005bae:	b662      	cpsie	i
 8005bb0:	e7fe      	b.n	8005bb0 <xQueueSemaphoreTake+0x2e0>
 8005bb2:	3b01      	subs	r3, #1
 8005bb4:	6822      	ldr	r2, [r4, #0]
 8005bb6:	63a3      	str	r3, [r4, #56]	; 0x38
 8005bb8:	b12a      	cbz	r2, 8005bc6 <xQueueSemaphoreTake+0x2f6>
 8005bba:	6923      	ldr	r3, [r4, #16]
 8005bbc:	b93b      	cbnz	r3, 8005bce <xQueueSemaphoreTake+0x2fe>
 8005bbe:	2701      	movs	r7, #1
 8005bc0:	f001 fc3e 	bl	8007440 <vPortExitCritical>
 8005bc4:	e7ca      	b.n	8005b5c <xQueueSemaphoreTake+0x28c>
 8005bc6:	f001 f91d 	bl	8006e04 <pvTaskIncrementMutexHeldCount>
 8005bca:	60a0      	str	r0, [r4, #8]
 8005bcc:	e7f5      	b.n	8005bba <xQueueSemaphoreTake+0x2ea>
 8005bce:	f104 0010 	add.w	r0, r4, #16
 8005bd2:	f000 ff31 	bl	8006a38 <xTaskRemoveFromEventList>
 8005bd6:	2800      	cmp	r0, #0
 8005bd8:	d0f1      	beq.n	8005bbe <xQueueSemaphoreTake+0x2ee>
 8005bda:	f04f 23e0 	mov.w	r3, #3758153728	; 0xe000e000
 8005bde:	f04f 5280 	mov.w	r2, #268435456	; 0x10000000
 8005be2:	f8c3 2d04 	str.w	r2, [r3, #3332]	; 0xd04
 8005be6:	f3bf 8f4f 	dsb	sy
 8005bea:	f3bf 8f6f 	isb	sy
 8005bee:	e7e6      	b.n	8005bbe <xQueueSemaphoreTake+0x2ee>

08005bf0 <xQueueReceiveFromISR>:
 8005bf0:	e92d 43f8 	stmdb	sp!, {r3, r4, r5, r6, r7, r8, r9, lr}
 8005bf4:	b330      	cbz	r0, 8005c44 <xQueueReceiveFromISR+0x54>
 8005bf6:	460e      	mov	r6, r1
 8005bf8:	4604      	mov	r4, r0
 8005bfa:	4617      	mov	r7, r2
 8005bfc:	b1a1      	cbz	r1, 8005c28 <xQueueReceiveFromISR+0x38>
 8005bfe:	f001 fd19 	bl	8007634 <vPortValidateInterruptPriority>
 8005c02:	f3ef 8911 	mrs	r9, BASEPRI
 8005c06:	f04f 0350 	mov.w	r3, #80	; 0x50
 8005c0a:	b672      	cpsid	i
 8005c0c:	f383 8811 	msr	BASEPRI, r3
 8005c10:	f3bf 8f6f 	isb	sy
 8005c14:	f3bf 8f4f 	dsb	sy
 8005c18:	b662      	cpsie	i
 8005c1a:	6ba5      	ldr	r5, [r4, #56]	; 0x38
 8005c1c:	b9ed      	cbnz	r5, 8005c5a <xQueueReceiveFromISR+0x6a>
 8005c1e:	4628      	mov	r0, r5
 8005c20:	f389 8811 	msr	BASEPRI, r9
 8005c24:	e8bd 83f8 	ldmia.w	sp!, {r3, r4, r5, r6, r7, r8, r9, pc}
 8005c28:	6c03      	ldr	r3, [r0, #64]	; 0x40
 8005c2a:	2b00      	cmp	r3, #0
 8005c2c:	d0e7      	beq.n	8005bfe <xQueueReceiveFromISR+0xe>
 8005c2e:	f04f 0350 	mov.w	r3, #80	; 0x50
 8005c32:	b672      	cpsid	i
 8005c34:	f383 8811 	msr	BASEPRI, r3
 8005c38:	f3bf 8f6f 	isb	sy
 8005c3c:	f3bf 8f4f 	dsb	sy
 8005c40:	b662      	cpsie	i
 8005c42:	e7fe      	b.n	8005c42 <xQueueReceiveFromISR+0x52>
 8005c44:	f04f 0350 	mov.w	r3, #80	; 0x50
 8005c48:	b672      	cpsid	i
 8005c4a:	f383 8811 	msr	BASEPRI, r3
 8005c4e:	f3bf 8f6f 	isb	sy
 8005c52:	f3bf 8f4f 	dsb	sy
 8005c56:	b662      	cpsie	i
 8005c58:	e7fe      	b.n	8005c58 <xQueueReceiveFromISR+0x68>
 8005c5a:	f894 8044 	ldrb.w	r8, [r4, #68]	; 0x44
 8005c5e:	6c22      	ldr	r2, [r4, #64]	; 0x40
 8005c60:	fa4f f888 	sxtb.w	r8, r8
 8005c64:	b142      	cbz	r2, 8005c78 <xQueueReceiveFromISR+0x88>
 8005c66:	68e1      	ldr	r1, [r4, #12]
 8005c68:	68a3      	ldr	r3, [r4, #8]
 8005c6a:	4411      	add	r1, r2
 8005c6c:	4299      	cmp	r1, r3
 8005c6e:	60e1      	str	r1, [r4, #12]
 8005c70:	d215      	bcs.n	8005c9e <xQueueReceiveFromISR+0xae>
 8005c72:	4630      	mov	r0, r6
 8005c74:	f003 fa9a 	bl	80091ac <memcpy>
 8005c78:	3d01      	subs	r5, #1
 8005c7a:	f1b8 3fff 	cmp.w	r8, #4294967295
 8005c7e:	63a5      	str	r5, [r4, #56]	; 0x38
 8005c80:	d009      	beq.n	8005c96 <xQueueReceiveFromISR+0xa6>
 8005c82:	f108 0301 	add.w	r3, r8, #1
 8005c86:	2001      	movs	r0, #1
 8005c88:	b25b      	sxtb	r3, r3
 8005c8a:	f884 3044 	strb.w	r3, [r4, #68]	; 0x44
 8005c8e:	f389 8811 	msr	BASEPRI, r9
 8005c92:	e8bd 83f8 	ldmia.w	sp!, {r3, r4, r5, r6, r7, r8, r9, pc}
 8005c96:	6923      	ldr	r3, [r4, #16]
 8005c98:	b923      	cbnz	r3, 8005ca4 <xQueueReceiveFromISR+0xb4>
 8005c9a:	2001      	movs	r0, #1
 8005c9c:	e7c0      	b.n	8005c20 <xQueueReceiveFromISR+0x30>
 8005c9e:	6821      	ldr	r1, [r4, #0]
 8005ca0:	60e1      	str	r1, [r4, #12]
 8005ca2:	e7e6      	b.n	8005c72 <xQueueReceiveFromISR+0x82>
 8005ca4:	f104 0010 	add.w	r0, r4, #16
 8005ca8:	f000 fec6 	bl	8006a38 <xTaskRemoveFromEventList>
 8005cac:	2f00      	cmp	r7, #0
 8005cae:	d0f4      	beq.n	8005c9a <xQueueReceiveFromISR+0xaa>
 8005cb0:	2800      	cmp	r0, #0
 8005cb2:	d0f2      	beq.n	8005c9a <xQueueReceiveFromISR+0xaa>
 8005cb4:	2301      	movs	r3, #1
 8005cb6:	4618      	mov	r0, r3
 8005cb8:	603b      	str	r3, [r7, #0]
 8005cba:	e7b1      	b.n	8005c20 <xQueueReceiveFromISR+0x30>
 8005cbc:	0000      	movs	r0, r0
	...

08005cc0 <vQueueDelete>:
 8005cc0:	b1d0      	cbz	r0, 8005cf8 <vQueueDelete+0x38>
 8005cc2:	4b21      	ldr	r3, [pc, #132]	; (8005d48 <vQueueDelete+0x88>)
 8005cc4:	685a      	ldr	r2, [r3, #4]
 8005cc6:	4290      	cmp	r0, r2
 8005cc8:	d02a      	beq.n	8005d20 <vQueueDelete+0x60>
 8005cca:	68da      	ldr	r2, [r3, #12]
 8005ccc:	4290      	cmp	r0, r2
 8005cce:	d029      	beq.n	8005d24 <vQueueDelete+0x64>
 8005cd0:	695a      	ldr	r2, [r3, #20]
 8005cd2:	4290      	cmp	r0, r2
 8005cd4:	d028      	beq.n	8005d28 <vQueueDelete+0x68>
 8005cd6:	69da      	ldr	r2, [r3, #28]
 8005cd8:	4290      	cmp	r0, r2
 8005cda:	d027      	beq.n	8005d2c <vQueueDelete+0x6c>
 8005cdc:	6a5a      	ldr	r2, [r3, #36]	; 0x24
 8005cde:	4290      	cmp	r0, r2
 8005ce0:	d026      	beq.n	8005d30 <vQueueDelete+0x70>
 8005ce2:	6ada      	ldr	r2, [r3, #44]	; 0x2c
 8005ce4:	4290      	cmp	r0, r2
 8005ce6:	d012      	beq.n	8005d0e <vQueueDelete+0x4e>
 8005ce8:	6b5a      	ldr	r2, [r3, #52]	; 0x34
 8005cea:	4290      	cmp	r0, r2
 8005cec:	d022      	beq.n	8005d34 <vQueueDelete+0x74>
 8005cee:	6bda      	ldr	r2, [r3, #60]	; 0x3c
 8005cf0:	4290      	cmp	r0, r2
 8005cf2:	d021      	beq.n	8005d38 <vQueueDelete+0x78>
 8005cf4:	f001 bd8a 	b.w	800780c <vPortFree>
 8005cf8:	f04f 0350 	mov.w	r3, #80	; 0x50
 8005cfc:	b672      	cpsid	i
 8005cfe:	f383 8811 	msr	BASEPRI, r3
 8005d02:	f3bf 8f6f 	isb	sy
 8005d06:	f3bf 8f4f 	dsb	sy
 8005d0a:	b662      	cpsie	i
 8005d0c:	e7fe      	b.n	8005d0c <vQueueDelete+0x4c>
 8005d0e:	2205      	movs	r2, #5
 8005d10:	eb03 03c2 	add.w	r3, r3, r2, lsl #3
 8005d14:	ed9f 7b0a 	vldr	d7, [pc, #40]	; 8005d40 <vQueueDelete+0x80>
 8005d18:	ed83 7b00 	vstr	d7, [r3]
 8005d1c:	f001 bd76 	b.w	800780c <vPortFree>
 8005d20:	2200      	movs	r2, #0
 8005d22:	e7f5      	b.n	8005d10 <vQueueDelete+0x50>
 8005d24:	2201      	movs	r2, #1
 8005d26:	e7f3      	b.n	8005d10 <vQueueDelete+0x50>
 8005d28:	2202      	movs	r2, #2
 8005d2a:	e7f1      	b.n	8005d10 <vQueueDelete+0x50>
 8005d2c:	2203      	movs	r2, #3
 8005d2e:	e7ef      	b.n	8005d10 <vQueueDelete+0x50>
 8005d30:	2204      	movs	r2, #4
 8005d32:	e7ed      	b.n	8005d10 <vQueueDelete+0x50>
 8005d34:	2206      	movs	r2, #6
 8005d36:	e7eb      	b.n	8005d10 <vQueueDelete+0x50>
 8005d38:	2207      	movs	r2, #7
 8005d3a:	e7e9      	b.n	8005d10 <vQueueDelete+0x50>
 8005d3c:	f3af 8000 	nop.w
	...
 8005d48:	20000568 	.word	0x20000568

08005d4c <vQueueAddToRegistry>:
 8005d4c:	4b12      	ldr	r3, [pc, #72]	; (8005d98 <vQueueAddToRegistry+0x4c>)
 8005d4e:	681a      	ldr	r2, [r3, #0]
 8005d50:	b17a      	cbz	r2, 8005d72 <vQueueAddToRegistry+0x26>
 8005d52:	689a      	ldr	r2, [r3, #8]
 8005d54:	b162      	cbz	r2, 8005d70 <vQueueAddToRegistry+0x24>
 8005d56:	691a      	ldr	r2, [r3, #16]
 8005d58:	b192      	cbz	r2, 8005d80 <vQueueAddToRegistry+0x34>
 8005d5a:	699a      	ldr	r2, [r3, #24]
 8005d5c:	b192      	cbz	r2, 8005d84 <vQueueAddToRegistry+0x38>
 8005d5e:	6a1a      	ldr	r2, [r3, #32]
 8005d60:	b192      	cbz	r2, 8005d88 <vQueueAddToRegistry+0x3c>
 8005d62:	6a9a      	ldr	r2, [r3, #40]	; 0x28
 8005d64:	b192      	cbz	r2, 8005d8c <vQueueAddToRegistry+0x40>
 8005d66:	6b1a      	ldr	r2, [r3, #48]	; 0x30
 8005d68:	b192      	cbz	r2, 8005d90 <vQueueAddToRegistry+0x44>
 8005d6a:	6b9a      	ldr	r2, [r3, #56]	; 0x38
 8005d6c:	b192      	cbz	r2, 8005d94 <vQueueAddToRegistry+0x48>
 8005d6e:	4770      	bx	lr
 8005d70:	2201      	movs	r2, #1
 8005d72:	eb03 0cc2 	add.w	ip, r3, r2, lsl #3
 8005d76:	f843 1032 	str.w	r1, [r3, r2, lsl #3]
 8005d7a:	f8cc 0004 	str.w	r0, [ip, #4]
 8005d7e:	4770      	bx	lr
 8005d80:	2202      	movs	r2, #2
 8005d82:	e7f6      	b.n	8005d72 <vQueueAddToRegistry+0x26>
 8005d84:	2203      	movs	r2, #3
 8005d86:	e7f4      	b.n	8005d72 <vQueueAddToRegistry+0x26>
 8005d88:	2204      	movs	r2, #4
 8005d8a:	e7f2      	b.n	8005d72 <vQueueAddToRegistry+0x26>
 8005d8c:	2205      	movs	r2, #5
 8005d8e:	e7f0      	b.n	8005d72 <vQueueAddToRegistry+0x26>
 8005d90:	2206      	movs	r2, #6
 8005d92:	e7ee      	b.n	8005d72 <vQueueAddToRegistry+0x26>
 8005d94:	2207      	movs	r2, #7
 8005d96:	e7ec      	b.n	8005d72 <vQueueAddToRegistry+0x26>
 8005d98:	20000568 	.word	0x20000568

08005d9c <vQueueWaitForMessageRestricted>:
 8005d9c:	b570      	push	{r4, r5, r6, lr}
 8005d9e:	4605      	mov	r5, r0
 8005da0:	460e      	mov	r6, r1
 8005da2:	4614      	mov	r4, r2
 8005da4:	f001 fb26 	bl	80073f4 <vPortEnterCritical>
 8005da8:	f895 3044 	ldrb.w	r3, [r5, #68]	; 0x44
 8005dac:	2bff      	cmp	r3, #255	; 0xff
 8005dae:	d102      	bne.n	8005db6 <vQueueWaitForMessageRestricted+0x1a>
 8005db0:	2300      	movs	r3, #0
 8005db2:	f885 3044 	strb.w	r3, [r5, #68]	; 0x44
 8005db6:	f895 3045 	ldrb.w	r3, [r5, #69]	; 0x45
 8005dba:	2bff      	cmp	r3, #255	; 0xff
 8005dbc:	d102      	bne.n	8005dc4 <vQueueWaitForMessageRestricted+0x28>
 8005dbe:	2300      	movs	r3, #0
 8005dc0:	f885 3045 	strb.w	r3, [r5, #69]	; 0x45
 8005dc4:	f001 fb3c 	bl	8007440 <vPortExitCritical>
 8005dc8:	6bab      	ldr	r3, [r5, #56]	; 0x38
 8005dca:	2b00      	cmp	r3, #0
 8005dcc:	d043      	beq.n	8005e56 <vQueueWaitForMessageRestricted+0xba>
 8005dce:	f001 fb11 	bl	80073f4 <vPortEnterCritical>
 8005dd2:	f895 3045 	ldrb.w	r3, [r5, #69]	; 0x45
 8005dd6:	b25c      	sxtb	r4, r3
 8005dd8:	2c00      	cmp	r4, #0
 8005dda:	dd14      	ble.n	8005e06 <vQueueWaitForMessageRestricted+0x6a>
 8005ddc:	f105 0624 	add.w	r6, r5, #36	; 0x24
 8005de0:	e003      	b.n	8005dea <vQueueWaitForMessageRestricted+0x4e>
 8005de2:	1e63      	subs	r3, r4, #1
 8005de4:	b2da      	uxtb	r2, r3
 8005de6:	b25c      	sxtb	r4, r3
 8005de8:	b16a      	cbz	r2, 8005e06 <vQueueWaitForMessageRestricted+0x6a>
 8005dea:	6a6b      	ldr	r3, [r5, #36]	; 0x24
 8005dec:	4630      	mov	r0, r6
 8005dee:	b153      	cbz	r3, 8005e06 <vQueueWaitForMessageRestricted+0x6a>
 8005df0:	f000 fe22 	bl	8006a38 <xTaskRemoveFromEventList>
 8005df4:	2800      	cmp	r0, #0
 8005df6:	d0f4      	beq.n	8005de2 <vQueueWaitForMessageRestricted+0x46>
 8005df8:	f000 fec2 	bl	8006b80 <vTaskMissedYield>
 8005dfc:	1e63      	subs	r3, r4, #1
 8005dfe:	b2da      	uxtb	r2, r3
 8005e00:	b25c      	sxtb	r4, r3
 8005e02:	2a00      	cmp	r2, #0
 8005e04:	d1f1      	bne.n	8005dea <vQueueWaitForMessageRestricted+0x4e>
 8005e06:	23ff      	movs	r3, #255	; 0xff
 8005e08:	f885 3045 	strb.w	r3, [r5, #69]	; 0x45
 8005e0c:	f001 fb18 	bl	8007440 <vPortExitCritical>
 8005e10:	f001 faf0 	bl	80073f4 <vPortEnterCritical>
 8005e14:	f895 3044 	ldrb.w	r3, [r5, #68]	; 0x44
 8005e18:	b25c      	sxtb	r4, r3
 8005e1a:	2c00      	cmp	r4, #0
 8005e1c:	dd14      	ble.n	8005e48 <vQueueWaitForMessageRestricted+0xac>
 8005e1e:	f105 0610 	add.w	r6, r5, #16
 8005e22:	e003      	b.n	8005e2c <vQueueWaitForMessageRestricted+0x90>
 8005e24:	1e63      	subs	r3, r4, #1
 8005e26:	b2da      	uxtb	r2, r3
 8005e28:	b25c      	sxtb	r4, r3
 8005e2a:	b16a      	cbz	r2, 8005e48 <vQueueWaitForMessageRestricted+0xac>
 8005e2c:	692b      	ldr	r3, [r5, #16]
 8005e2e:	4630      	mov	r0, r6
 8005e30:	b153      	cbz	r3, 8005e48 <vQueueWaitForMessageRestricted+0xac>
 8005e32:	f000 fe01 	bl	8006a38 <xTaskRemoveFromEventList>
 8005e36:	2800      	cmp	r0, #0
 8005e38:	d0f4      	beq.n	8005e24 <vQueueWaitForMessageRestricted+0x88>
 8005e3a:	f000 fea1 	bl	8006b80 <vTaskMissedYield>
 8005e3e:	1e63      	subs	r3, r4, #1
 8005e40:	b2da      	uxtb	r2, r3
 8005e42:	b25c      	sxtb	r4, r3
 8005e44:	2a00      	cmp	r2, #0
 8005e46:	d1f1      	bne.n	8005e2c <vQueueWaitForMessageRestricted+0x90>
 8005e48:	23ff      	movs	r3, #255	; 0xff
 8005e4a:	f885 3044 	strb.w	r3, [r5, #68]	; 0x44
 8005e4e:	e8bd 4070 	ldmia.w	sp!, {r4, r5, r6, lr}
 8005e52:	f001 baf5 	b.w	8007440 <vPortExitCritical>
 8005e56:	4622      	mov	r2, r4
 8005e58:	4631      	mov	r1, r6
 8005e5a:	f105 0024 	add.w	r0, r5, #36	; 0x24
 8005e5e:	f000 fd81 	bl	8006964 <vTaskPlaceOnEventListRestricted>
 8005e62:	e7b4      	b.n	8005dce <vQueueWaitForMessageRestricted+0x32>

08005e64 <prvIdleTask>:
 8005e64:	b580      	push	{r7, lr}
 8005e66:	4d16      	ldr	r5, [pc, #88]	; (8005ec0 <prvIdleTask+0x5c>)
 8005e68:	f04f 2ae0 	mov.w	sl, #3758153728	; 0xe000e000
 8005e6c:	4f15      	ldr	r7, [pc, #84]	; (8005ec4 <prvIdleTask+0x60>)
 8005e6e:	f04f 5980 	mov.w	r9, #268435456	; 0x10000000
 8005e72:	4e15      	ldr	r6, [pc, #84]	; (8005ec8 <prvIdleTask+0x64>)
 8005e74:	f8df 8054 	ldr.w	r8, [pc, #84]	; 8005ecc <prvIdleTask+0x68>
 8005e78:	e014      	b.n	8005ea4 <prvIdleTask+0x40>
 8005e7a:	f001 fabb 	bl	80073f4 <vPortEnterCritical>
 8005e7e:	68fb      	ldr	r3, [r7, #12]
 8005e80:	68dc      	ldr	r4, [r3, #12]
 8005e82:	1d20      	adds	r0, r4, #4
 8005e84:	f7ff f86e 	bl	8004f64 <uxListRemove>
 8005e88:	6833      	ldr	r3, [r6, #0]
 8005e8a:	3b01      	subs	r3, #1
 8005e8c:	6033      	str	r3, [r6, #0]
 8005e8e:	682b      	ldr	r3, [r5, #0]
 8005e90:	3b01      	subs	r3, #1
 8005e92:	602b      	str	r3, [r5, #0]
 8005e94:	f001 fad4 	bl	8007440 <vPortExitCritical>
 8005e98:	6b20      	ldr	r0, [r4, #48]	; 0x30
 8005e9a:	f001 fcb7 	bl	800780c <vPortFree>
 8005e9e:	4620      	mov	r0, r4
 8005ea0:	f001 fcb4 	bl	800780c <vPortFree>
 8005ea4:	682b      	ldr	r3, [r5, #0]
 8005ea6:	2b00      	cmp	r3, #0
 8005ea8:	d1e7      	bne.n	8005e7a <prvIdleTask+0x16>
 8005eaa:	f8d8 3000 	ldr.w	r3, [r8]
 8005eae:	2b01      	cmp	r3, #1
 8005eb0:	d9f8      	bls.n	8005ea4 <prvIdleTask+0x40>
 8005eb2:	f8ca 9d04 	str.w	r9, [sl, #3332]	; 0xd04
 8005eb6:	f3bf 8f4f 	dsb	sy
 8005eba:	f3bf 8f6f 	isb	sy
 8005ebe:	e7f1      	b.n	8005ea4 <prvIdleTask+0x40>
 8005ec0:	20000644 	.word	0x20000644
 8005ec4:	200006b8 	.word	0x200006b8
 8005ec8:	20000640 	.word	0x20000640
 8005ecc:	200005b4 	.word	0x200005b4

08005ed0 <prvAddCurrentTaskToDelayedList>:
 8005ed0:	b5f8      	push	{r3, r4, r5, r6, r7, lr}
 8005ed2:	4b1b      	ldr	r3, [pc, #108]	; (8005f40 <prvAddCurrentTaskToDelayedList+0x70>)
 8005ed4:	4604      	mov	r4, r0
 8005ed6:	4e1b      	ldr	r6, [pc, #108]	; (8005f44 <prvAddCurrentTaskToDelayedList+0x74>)
 8005ed8:	460f      	mov	r7, r1
 8005eda:	681d      	ldr	r5, [r3, #0]
 8005edc:	6833      	ldr	r3, [r6, #0]
 8005ede:	1d18      	adds	r0, r3, #4
 8005ee0:	f7ff f840 	bl	8004f64 <uxListRemove>
 8005ee4:	b948      	cbnz	r0, 8005efa <prvAddCurrentTaskToDelayedList+0x2a>
 8005ee6:	6833      	ldr	r3, [r6, #0]
 8005ee8:	4917      	ldr	r1, [pc, #92]	; (8005f48 <prvAddCurrentTaskToDelayedList+0x78>)
 8005eea:	6ada      	ldr	r2, [r3, #44]	; 0x2c
 8005eec:	2301      	movs	r3, #1
 8005eee:	fa03 f202 	lsl.w	r2, r3, r2
 8005ef2:	680b      	ldr	r3, [r1, #0]
 8005ef4:	ea23 0302 	bic.w	r3, r3, r2
 8005ef8:	600b      	str	r3, [r1, #0]
 8005efa:	1c63      	adds	r3, r4, #1
 8005efc:	d100      	bne.n	8005f00 <prvAddCurrentTaskToDelayedList+0x30>
 8005efe:	b9bf      	cbnz	r7, 8005f30 <prvAddCurrentTaskToDelayedList+0x60>
 8005f00:	192c      	adds	r4, r5, r4
 8005f02:	6833      	ldr	r3, [r6, #0]
 8005f04:	605c      	str	r4, [r3, #4]
 8005f06:	d307      	bcc.n	8005f18 <prvAddCurrentTaskToDelayedList+0x48>
 8005f08:	4b10      	ldr	r3, [pc, #64]	; (8005f4c <prvAddCurrentTaskToDelayedList+0x7c>)
 8005f0a:	6818      	ldr	r0, [r3, #0]
 8005f0c:	6831      	ldr	r1, [r6, #0]
 8005f0e:	e8bd 40f8 	ldmia.w	sp!, {r3, r4, r5, r6, r7, lr}
 8005f12:	3104      	adds	r1, #4
 8005f14:	f7ff b80e 	b.w	8004f34 <vListInsert>
 8005f18:	4b0d      	ldr	r3, [pc, #52]	; (8005f50 <prvAddCurrentTaskToDelayedList+0x80>)
 8005f1a:	6818      	ldr	r0, [r3, #0]
 8005f1c:	6831      	ldr	r1, [r6, #0]
 8005f1e:	3104      	adds	r1, #4
 8005f20:	f7ff f808 	bl	8004f34 <vListInsert>
 8005f24:	4b0b      	ldr	r3, [pc, #44]	; (8005f54 <prvAddCurrentTaskToDelayedList+0x84>)
 8005f26:	681a      	ldr	r2, [r3, #0]
 8005f28:	42a2      	cmp	r2, r4
 8005f2a:	d900      	bls.n	8005f2e <prvAddCurrentTaskToDelayedList+0x5e>
 8005f2c:	601c      	str	r4, [r3, #0]
 8005f2e:	bdf8      	pop	{r3, r4, r5, r6, r7, pc}
 8005f30:	6831      	ldr	r1, [r6, #0]
 8005f32:	4809      	ldr	r0, [pc, #36]	; (8005f58 <prvAddCurrentTaskToDelayedList+0x88>)
 8005f34:	3104      	adds	r1, #4
 8005f36:	e8bd 40f8 	ldmia.w	sp!, {r3, r4, r5, r6, r7, lr}
 8005f3a:	f7fe bfef 	b.w	8004f1c <vListInsertEnd>
 8005f3e:	bf00      	nop
 8005f40:	200006cc 	.word	0x200006cc
 8005f44:	200005a8 	.word	0x200005a8
 8005f48:	20000654 	.word	0x20000654
 8005f4c:	200005b0 	.word	0x200005b0
 8005f50:	200005ac 	.word	0x200005ac
 8005f54:	20000684 	.word	0x20000684
 8005f58:	200006a4 	.word	0x200006a4

08005f5c <xTaskCreate>:
 8005f5c:	e92d 4ff8 	stmdb	sp!, {r3, r4, r5, r6, r7, r8, r9, sl, fp, lr}
 8005f60:	0095      	lsls	r5, r2, #2
 8005f62:	4606      	mov	r6, r0
 8005f64:	4688      	mov	r8, r1
 8005f66:	461f      	mov	r7, r3
 8005f68:	4628      	mov	r0, r5
 8005f6a:	f001 fb95 	bl	8007698 <pvPortMalloc>
 8005f6e:	2800      	cmp	r0, #0
 8005f70:	f000 8086 	beq.w	8006080 <xTaskCreate+0x124>
 8005f74:	4682      	mov	sl, r0
 8005f76:	2084      	movs	r0, #132	; 0x84
 8005f78:	f001 fb8e 	bl	8007698 <pvPortMalloc>
 8005f7c:	4604      	mov	r4, r0
 8005f7e:	2800      	cmp	r0, #0
 8005f80:	f000 808b 	beq.w	800609a <xTaskCreate+0x13e>
 8005f84:	f8c0 a030 	str.w	sl, [r0, #48]	; 0x30
 8005f88:	f1b8 0f00 	cmp.w	r8, #0
 8005f8c:	f000 808e 	beq.w	80060ac <xTaskCreate+0x150>
 8005f90:	f108 3cff 	add.w	ip, r8, #4294967295
 8005f94:	f108 033f 	add.w	r3, r8, #63	; 0x3f
 8005f98:	f100 0e33 	add.w	lr, r0, #51	; 0x33
 8005f9c:	e001      	b.n	8005fa2 <xTaskCreate+0x46>
 8005f9e:	459c      	cmp	ip, r3
 8005fa0:	d005      	beq.n	8005fae <xTaskCreate+0x52>
 8005fa2:	f81c 1f01 	ldrb.w	r1, [ip, #1]!
 8005fa6:	f80e 1f01 	strb.w	r1, [lr, #1]!
 8005faa:	2900      	cmp	r1, #0
 8005fac:	d1f7      	bne.n	8005f9e <xTaskCreate+0x42>
 8005fae:	2300      	movs	r3, #0
 8005fb0:	f884 3073 	strb.w	r3, [r4, #115]	; 0x73
 8005fb4:	9b0a      	ldr	r3, [sp, #40]	; 0x28
 8005fb6:	f04f 0b00 	mov.w	fp, #0
 8005fba:	f104 0904 	add.w	r9, r4, #4
 8005fbe:	2b06      	cmp	r3, #6
 8005fc0:	f8c4 b078 	str.w	fp, [r4, #120]	; 0x78
 8005fc4:	4648      	mov	r0, r9
 8005fc6:	bf28      	it	cs
 8005fc8:	2306      	movcs	r3, #6
 8005fca:	62e3      	str	r3, [r4, #44]	; 0x2c
 8005fcc:	4698      	mov	r8, r3
 8005fce:	6763      	str	r3, [r4, #116]	; 0x74
 8005fd0:	f7fe ffa0 	bl	8004f14 <vListInitialiseItem>
 8005fd4:	f104 0018 	add.w	r0, r4, #24
 8005fd8:	f7fe ff9c 	bl	8004f14 <vListInitialiseItem>
 8005fdc:	f1a5 0c04 	sub.w	ip, r5, #4
 8005fe0:	f1c8 0307 	rsb	r3, r8, #7
 8005fe4:	f8c4 b07c 	str.w	fp, [r4, #124]	; 0x7c
 8005fe8:	44d4      	add	ip, sl
 8005fea:	463a      	mov	r2, r7
 8005fec:	61a3      	str	r3, [r4, #24]
 8005fee:	4631      	mov	r1, r6
 8005ff0:	f02c 0007 	bic.w	r0, ip, #7
 8005ff4:	f884 b080 	strb.w	fp, [r4, #128]	; 0x80
 8005ff8:	6124      	str	r4, [r4, #16]
 8005ffa:	6264      	str	r4, [r4, #36]	; 0x24
 8005ffc:	f001 f9ce 	bl	800739c <pxPortInitialiseStack>
 8006000:	9b0b      	ldr	r3, [sp, #44]	; 0x2c
 8006002:	6020      	str	r0, [r4, #0]
 8006004:	b103      	cbz	r3, 8006008 <xTaskCreate+0xac>
 8006006:	601c      	str	r4, [r3, #0]
 8006008:	f001 f9f4 	bl	80073f4 <vPortEnterCritical>
 800600c:	4a40      	ldr	r2, [pc, #256]	; (8006110 <xTaskCreate+0x1b4>)
 800600e:	4e41      	ldr	r6, [pc, #260]	; (8006114 <xTaskCreate+0x1b8>)
 8006010:	6813      	ldr	r3, [r2, #0]
 8006012:	3301      	adds	r3, #1
 8006014:	6013      	str	r3, [r2, #0]
 8006016:	6833      	ldr	r3, [r6, #0]
 8006018:	2b00      	cmp	r3, #0
 800601a:	d04a      	beq.n	80060b2 <xTaskCreate+0x156>
 800601c:	4f3e      	ldr	r7, [pc, #248]	; (8006118 <xTaskCreate+0x1bc>)
 800601e:	683b      	ldr	r3, [r7, #0]
 8006020:	b393      	cbz	r3, 8006088 <xTaskCreate+0x12c>
 8006022:	6ae0      	ldr	r0, [r4, #44]	; 0x2c
 8006024:	f8df 8110 	ldr.w	r8, [pc, #272]	; 8006138 <xTaskCreate+0x1dc>
 8006028:	f8df c110 	ldr.w	ip, [pc, #272]	; 800613c <xTaskCreate+0x1e0>
 800602c:	2501      	movs	r5, #1
 800602e:	4a3b      	ldr	r2, [pc, #236]	; (800611c <xTaskCreate+0x1c0>)
 8006030:	4649      	mov	r1, r9
 8006032:	f8dc 3000 	ldr.w	r3, [ip]
 8006036:	442b      	add	r3, r5
 8006038:	f8cc 3000 	str.w	r3, [ip]
 800603c:	fa05 f300 	lsl.w	r3, r5, r0
 8006040:	f8d2 c000 	ldr.w	ip, [r2]
 8006044:	eb00 0080 	add.w	r0, r0, r0, lsl #2
 8006048:	ea43 030c 	orr.w	r3, r3, ip
 800604c:	eb08 0080 	add.w	r0, r8, r0, lsl #2
 8006050:	6013      	str	r3, [r2, #0]
 8006052:	f7fe ff63 	bl	8004f1c <vListInsertEnd>
 8006056:	f001 f9f3 	bl	8007440 <vPortExitCritical>
 800605a:	683b      	ldr	r3, [r7, #0]
 800605c:	b31b      	cbz	r3, 80060a6 <xTaskCreate+0x14a>
 800605e:	6832      	ldr	r2, [r6, #0]
 8006060:	6ae3      	ldr	r3, [r4, #44]	; 0x2c
 8006062:	6ad2      	ldr	r2, [r2, #44]	; 0x2c
 8006064:	429a      	cmp	r2, r3
 8006066:	d21e      	bcs.n	80060a6 <xTaskCreate+0x14a>
 8006068:	f04f 23e0 	mov.w	r3, #3758153728	; 0xe000e000
 800606c:	f04f 5280 	mov.w	r2, #268435456	; 0x10000000
 8006070:	f8c3 2d04 	str.w	r2, [r3, #3332]	; 0xd04
 8006074:	f3bf 8f4f 	dsb	sy
 8006078:	f3bf 8f6f 	isb	sy
 800607c:	4628      	mov	r0, r5
 800607e:	e001      	b.n	8006084 <xTaskCreate+0x128>
 8006080:	f04f 30ff 	mov.w	r0, #4294967295
 8006084:	e8bd 8ff8 	ldmia.w	sp!, {r3, r4, r5, r6, r7, r8, r9, sl, fp, pc}
 8006088:	6833      	ldr	r3, [r6, #0]
 800608a:	6ae0      	ldr	r0, [r4, #44]	; 0x2c
 800608c:	6adb      	ldr	r3, [r3, #44]	; 0x2c
 800608e:	4283      	cmp	r3, r0
 8006090:	d800      	bhi.n	8006094 <xTaskCreate+0x138>
 8006092:	6034      	str	r4, [r6, #0]
 8006094:	f8df 80a0 	ldr.w	r8, [pc, #160]	; 8006138 <xTaskCreate+0x1dc>
 8006098:	e7c6      	b.n	8006028 <xTaskCreate+0xcc>
 800609a:	4650      	mov	r0, sl
 800609c:	f001 fbb6 	bl	800780c <vPortFree>
 80060a0:	f04f 30ff 	mov.w	r0, #4294967295
 80060a4:	e7ee      	b.n	8006084 <xTaskCreate+0x128>
 80060a6:	4628      	mov	r0, r5
 80060a8:	e8bd 8ff8 	ldmia.w	sp!, {r3, r4, r5, r6, r7, r8, r9, sl, fp, pc}
 80060ac:	f880 8034 	strb.w	r8, [r0, #52]	; 0x34
 80060b0:	e780      	b.n	8005fb4 <xTaskCreate+0x58>
 80060b2:	6034      	str	r4, [r6, #0]
 80060b4:	6813      	ldr	r3, [r2, #0]
 80060b6:	2b01      	cmp	r3, #1
 80060b8:	d004      	beq.n	80060c4 <xTaskCreate+0x168>
 80060ba:	6ae0      	ldr	r0, [r4, #44]	; 0x2c
 80060bc:	f8df 8078 	ldr.w	r8, [pc, #120]	; 8006138 <xTaskCreate+0x1dc>
 80060c0:	4f15      	ldr	r7, [pc, #84]	; (8006118 <xTaskCreate+0x1bc>)
 80060c2:	e7b1      	b.n	8006028 <xTaskCreate+0xcc>
 80060c4:	f8df 8070 	ldr.w	r8, [pc, #112]	; 8006138 <xTaskCreate+0x1dc>
 80060c8:	4645      	mov	r5, r8
 80060ca:	f108 078c 	add.w	r7, r8, #140	; 0x8c
 80060ce:	4628      	mov	r0, r5
 80060d0:	3514      	adds	r5, #20
 80060d2:	f7fe ff13 	bl	8004efc <vListInitialise>
 80060d6:	42af      	cmp	r7, r5
 80060d8:	d1f9      	bne.n	80060ce <xTaskCreate+0x172>
 80060da:	f8df a064 	ldr.w	sl, [pc, #100]	; 8006140 <xTaskCreate+0x1e4>
 80060de:	4d10      	ldr	r5, [pc, #64]	; (8006120 <xTaskCreate+0x1c4>)
 80060e0:	4650      	mov	r0, sl
 80060e2:	4f0d      	ldr	r7, [pc, #52]	; (8006118 <xTaskCreate+0x1bc>)
 80060e4:	f7fe ff0a 	bl	8004efc <vListInitialise>
 80060e8:	4628      	mov	r0, r5
 80060ea:	f7fe ff07 	bl	8004efc <vListInitialise>
 80060ee:	480d      	ldr	r0, [pc, #52]	; (8006124 <xTaskCreate+0x1c8>)
 80060f0:	f7fe ff04 	bl	8004efc <vListInitialise>
 80060f4:	480c      	ldr	r0, [pc, #48]	; (8006128 <xTaskCreate+0x1cc>)
 80060f6:	f7fe ff01 	bl	8004efc <vListInitialise>
 80060fa:	480c      	ldr	r0, [pc, #48]	; (800612c <xTaskCreate+0x1d0>)
 80060fc:	f7fe fefe 	bl	8004efc <vListInitialise>
 8006100:	4b0b      	ldr	r3, [pc, #44]	; (8006130 <xTaskCreate+0x1d4>)
 8006102:	6ae0      	ldr	r0, [r4, #44]	; 0x2c
 8006104:	f8c3 a000 	str.w	sl, [r3]
 8006108:	4b0a      	ldr	r3, [pc, #40]	; (8006134 <xTaskCreate+0x1d8>)
 800610a:	601d      	str	r5, [r3, #0]
 800610c:	e78c      	b.n	8006028 <xTaskCreate+0xcc>
 800610e:	bf00      	nop
 8006110:	20000640 	.word	0x20000640
 8006114:	200005a8 	.word	0x200005a8
 8006118:	200006a0 	.word	0x200006a0
 800611c:	20000654 	.word	0x20000654
 8006120:	2000066c 	.word	0x2000066c
 8006124:	2000068c 	.word	0x2000068c
 8006128:	200006b8 	.word	0x200006b8
 800612c:	200006a4 	.word	0x200006a4
 8006130:	200005ac 	.word	0x200005ac
 8006134:	200005b0 	.word	0x200005b0
 8006138:	200005b4 	.word	0x200005b4
 800613c:	20000650 	.word	0x20000650
 8006140:	20000658 	.word	0x20000658

08006144 <vTaskPrioritySet>:
 8006144:	2906      	cmp	r1, #6
 8006146:	d90a      	bls.n	800615e <vTaskPrioritySet+0x1a>
 8006148:	f04f 0350 	mov.w	r3, #80	; 0x50
 800614c:	b672      	cpsid	i
 800614e:	f383 8811 	msr	BASEPRI, r3
 8006152:	f3bf 8f6f 	isb	sy
 8006156:	f3bf 8f4f 	dsb	sy
 800615a:	b662      	cpsie	i
 800615c:	e7fe      	b.n	800615c <vTaskPrioritySet+0x18>
 800615e:	b5f0      	push	{r4, r5, r6, r7, lr}
 8006160:	4604      	mov	r4, r0
 8006162:	b083      	sub	sp, #12
 8006164:	460d      	mov	r5, r1
 8006166:	f001 f945 	bl	80073f4 <vPortEnterCritical>
 800616a:	2c00      	cmp	r4, #0
 800616c:	d036      	beq.n	80061dc <vTaskPrioritySet+0x98>
 800616e:	6f63      	ldr	r3, [r4, #116]	; 0x74
 8006170:	429d      	cmp	r5, r3
 8006172:	d024      	beq.n	80061be <vTaskPrioritySet+0x7a>
 8006174:	4a2a      	ldr	r2, [pc, #168]	; (8006220 <vTaskPrioritySet+0xdc>)
 8006176:	d827      	bhi.n	80061c8 <vTaskPrioritySet+0x84>
 8006178:	6817      	ldr	r7, [r2, #0]
 800617a:	1b3f      	subs	r7, r7, r4
 800617c:	fab7 f787 	clz	r7, r7
 8006180:	097f      	lsrs	r7, r7, #5
 8006182:	6ae6      	ldr	r6, [r4, #44]	; 0x2c
 8006184:	6765      	str	r5, [r4, #116]	; 0x74
 8006186:	42b3      	cmp	r3, r6
 8006188:	69a3      	ldr	r3, [r4, #24]
 800618a:	bf08      	it	eq
 800618c:	62e5      	streq	r5, [r4, #44]	; 0x2c
 800618e:	2b00      	cmp	r3, #0
 8006190:	db02      	blt.n	8006198 <vTaskPrioritySet+0x54>
 8006192:	f1c5 0507 	rsb	r5, r5, #7
 8006196:	61a5      	str	r5, [r4, #24]
 8006198:	4d22      	ldr	r5, [pc, #136]	; (8006224 <vTaskPrioritySet+0xe0>)
 800619a:	eb06 0386 	add.w	r3, r6, r6, lsl #2
 800619e:	6962      	ldr	r2, [r4, #20]
 80061a0:	eb05 0383 	add.w	r3, r5, r3, lsl #2
 80061a4:	429a      	cmp	r2, r3
 80061a6:	d01c      	beq.n	80061e2 <vTaskPrioritySet+0x9e>
 80061a8:	b14f      	cbz	r7, 80061be <vTaskPrioritySet+0x7a>
 80061aa:	f04f 23e0 	mov.w	r3, #3758153728	; 0xe000e000
 80061ae:	f04f 5280 	mov.w	r2, #268435456	; 0x10000000
 80061b2:	f8c3 2d04 	str.w	r2, [r3, #3332]	; 0xd04
 80061b6:	f3bf 8f4f 	dsb	sy
 80061ba:	f3bf 8f6f 	isb	sy
 80061be:	b003      	add	sp, #12
 80061c0:	e8bd 40f0 	ldmia.w	sp!, {r4, r5, r6, r7, lr}
 80061c4:	f001 b93c 	b.w	8007440 <vPortExitCritical>
 80061c8:	6811      	ldr	r1, [r2, #0]
 80061ca:	42a1      	cmp	r1, r4
 80061cc:	d025      	beq.n	800621a <vTaskPrioritySet+0xd6>
 80061ce:	6812      	ldr	r2, [r2, #0]
 80061d0:	6ad7      	ldr	r7, [r2, #44]	; 0x2c
 80061d2:	42af      	cmp	r7, r5
 80061d4:	bf8c      	ite	hi
 80061d6:	2700      	movhi	r7, #0
 80061d8:	2701      	movls	r7, #1
 80061da:	e7d2      	b.n	8006182 <vTaskPrioritySet+0x3e>
 80061dc:	4b10      	ldr	r3, [pc, #64]	; (8006220 <vTaskPrioritySet+0xdc>)
 80061de:	681c      	ldr	r4, [r3, #0]
 80061e0:	e7c5      	b.n	800616e <vTaskPrioritySet+0x2a>
 80061e2:	1d21      	adds	r1, r4, #4
 80061e4:	4608      	mov	r0, r1
 80061e6:	9101      	str	r1, [sp, #4]
 80061e8:	f7fe febc 	bl	8004f64 <uxListRemove>
 80061ec:	9901      	ldr	r1, [sp, #4]
 80061ee:	4b0e      	ldr	r3, [pc, #56]	; (8006228 <vTaskPrioritySet+0xe4>)
 80061f0:	b930      	cbnz	r0, 8006200 <vTaskPrioritySet+0xbc>
 80061f2:	2201      	movs	r2, #1
 80061f4:	fa02 f606 	lsl.w	r6, r2, r6
 80061f8:	681a      	ldr	r2, [r3, #0]
 80061fa:	ea22 0206 	bic.w	r2, r2, r6
 80061fe:	601a      	str	r2, [r3, #0]
 8006200:	6ae0      	ldr	r0, [r4, #44]	; 0x2c
 8006202:	2201      	movs	r2, #1
 8006204:	681c      	ldr	r4, [r3, #0]
 8006206:	4082      	lsls	r2, r0
 8006208:	eb00 0080 	add.w	r0, r0, r0, lsl #2
 800620c:	4322      	orrs	r2, r4
 800620e:	eb05 0080 	add.w	r0, r5, r0, lsl #2
 8006212:	601a      	str	r2, [r3, #0]
 8006214:	f7fe fe82 	bl	8004f1c <vListInsertEnd>
 8006218:	e7c6      	b.n	80061a8 <vTaskPrioritySet+0x64>
 800621a:	2700      	movs	r7, #0
 800621c:	e7b1      	b.n	8006182 <vTaskPrioritySet+0x3e>
 800621e:	bf00      	nop
 8006220:	200005a8 	.word	0x200005a8
 8006224:	200005b4 	.word	0x200005b4
 8006228:	20000654 	.word	0x20000654

0800622c <vTaskStartScheduler>:
 800622c:	e92d 47f0 	stmdb	sp!, {r4, r5, r6, r7, r8, r9, sl, lr}
 8006230:	f44f 6080 	mov.w	r0, #1024	; 0x400
 8006234:	f001 fa30 	bl	8007698 <pvPortMalloc>
 8006238:	2800      	cmp	r0, #0
 800623a:	d079      	beq.n	8006330 <vTaskStartScheduler+0x104>
 800623c:	4605      	mov	r5, r0
 800623e:	2084      	movs	r0, #132	; 0x84
 8006240:	f001 fa2a 	bl	8007698 <pvPortMalloc>
 8006244:	4604      	mov	r4, r0
 8006246:	2800      	cmp	r0, #0
 8006248:	d06f      	beq.n	800632a <vTaskStartScheduler+0xfe>
 800624a:	4b66      	ldr	r3, [pc, #408]	; (80063e4 <vTaskStartScheduler+0x1b8>)
 800624c:	4601      	mov	r1, r0
 800624e:	6305      	str	r5, [r0, #48]	; 0x30
 8006250:	2249      	movs	r2, #73	; 0x49
 8006252:	f103 003f 	add.w	r0, r3, #63	; 0x3f
 8006256:	f801 2f34 	strb.w	r2, [r1, #52]!
 800625a:	4298      	cmp	r0, r3
 800625c:	d005      	beq.n	800626a <vTaskStartScheduler+0x3e>
 800625e:	f813 2f01 	ldrb.w	r2, [r3, #1]!
 8006262:	f801 2f01 	strb.w	r2, [r1, #1]!
 8006266:	2a00      	cmp	r2, #0
 8006268:	d1f7      	bne.n	800625a <vTaskStartScheduler+0x2e>
 800626a:	2600      	movs	r6, #0
 800626c:	1d27      	adds	r7, r4, #4
 800626e:	f884 6073 	strb.w	r6, [r4, #115]	; 0x73
 8006272:	4638      	mov	r0, r7
 8006274:	62e6      	str	r6, [r4, #44]	; 0x2c
 8006276:	e9c4 661d 	strd	r6, r6, [r4, #116]	; 0x74
 800627a:	f7fe fe4b 	bl	8004f14 <vListInitialiseItem>
 800627e:	f104 0018 	add.w	r0, r4, #24
 8006282:	f7fe fe47 	bl	8004f14 <vListInitialiseItem>
 8006286:	2307      	movs	r3, #7
 8006288:	f505 707f 	add.w	r0, r5, #1020	; 0x3fc
 800628c:	4632      	mov	r2, r6
 800628e:	67e6      	str	r6, [r4, #124]	; 0x7c
 8006290:	4955      	ldr	r1, [pc, #340]	; (80063e8 <vTaskStartScheduler+0x1bc>)
 8006292:	f020 0007 	bic.w	r0, r0, #7
 8006296:	61a3      	str	r3, [r4, #24]
 8006298:	f884 6080 	strb.w	r6, [r4, #128]	; 0x80
 800629c:	6124      	str	r4, [r4, #16]
 800629e:	6264      	str	r4, [r4, #36]	; 0x24
 80062a0:	f001 f87c 	bl	800739c <pxPortInitialiseStack>
 80062a4:	4b51      	ldr	r3, [pc, #324]	; (80063ec <vTaskStartScheduler+0x1c0>)
 80062a6:	6020      	str	r0, [r4, #0]
 80062a8:	601c      	str	r4, [r3, #0]
 80062aa:	f001 f8a3 	bl	80073f4 <vPortEnterCritical>
 80062ae:	4a50      	ldr	r2, [pc, #320]	; (80063f0 <vTaskStartScheduler+0x1c4>)
 80062b0:	4e50      	ldr	r6, [pc, #320]	; (80063f4 <vTaskStartScheduler+0x1c8>)
 80062b2:	6813      	ldr	r3, [r2, #0]
 80062b4:	3301      	adds	r3, #1
 80062b6:	6013      	str	r3, [r2, #0]
 80062b8:	6833      	ldr	r3, [r6, #0]
 80062ba:	2b00      	cmp	r3, #0
 80062bc:	d062      	beq.n	8006384 <vTaskStartScheduler+0x158>
 80062be:	4d4e      	ldr	r5, [pc, #312]	; (80063f8 <vTaskStartScheduler+0x1cc>)
 80062c0:	682b      	ldr	r3, [r5, #0]
 80062c2:	2b00      	cmp	r3, #0
 80062c4:	d03f      	beq.n	8006346 <vTaskStartScheduler+0x11a>
 80062c6:	6ae0      	ldr	r0, [r4, #44]	; 0x2c
 80062c8:	f8df 8150 	ldr.w	r8, [pc, #336]	; 800641c <vTaskStartScheduler+0x1f0>
 80062cc:	f8df c150 	ldr.w	ip, [pc, #336]	; 8006420 <vTaskStartScheduler+0x1f4>
 80062d0:	4639      	mov	r1, r7
 80062d2:	2301      	movs	r3, #1
 80062d4:	4f49      	ldr	r7, [pc, #292]	; (80063fc <vTaskStartScheduler+0x1d0>)
 80062d6:	f8dc 2000 	ldr.w	r2, [ip]
 80062da:	4083      	lsls	r3, r0
 80062dc:	eb00 0080 	add.w	r0, r0, r0, lsl #2
 80062e0:	3201      	adds	r2, #1
 80062e2:	eb08 0080 	add.w	r0, r8, r0, lsl #2
 80062e6:	f8cc 2000 	str.w	r2, [ip]
 80062ea:	683a      	ldr	r2, [r7, #0]
 80062ec:	4313      	orrs	r3, r2
 80062ee:	603b      	str	r3, [r7, #0]
 80062f0:	f7fe fe14 	bl	8004f1c <vListInsertEnd>
 80062f4:	f001 f8a4 	bl	8007440 <vPortExitCritical>
 80062f8:	682b      	ldr	r3, [r5, #0]
 80062fa:	b173      	cbz	r3, 800631a <vTaskStartScheduler+0xee>
 80062fc:	6832      	ldr	r2, [r6, #0]
 80062fe:	6ae3      	ldr	r3, [r4, #44]	; 0x2c
 8006300:	6ad2      	ldr	r2, [r2, #44]	; 0x2c
 8006302:	429a      	cmp	r2, r3
 8006304:	d209      	bcs.n	800631a <vTaskStartScheduler+0xee>
 8006306:	f04f 23e0 	mov.w	r3, #3758153728	; 0xe000e000
 800630a:	f04f 5280 	mov.w	r2, #268435456	; 0x10000000
 800630e:	f8c3 2d04 	str.w	r2, [r3, #3332]	; 0xd04
 8006312:	f3bf 8f4f 	dsb	sy
 8006316:	f3bf 8f6f 	isb	sy
 800631a:	f000 ff13 	bl	8007144 <xTimerCreateTimerTask>
 800631e:	2801      	cmp	r0, #1
 8006320:	d01a      	beq.n	8006358 <vTaskStartScheduler+0x12c>
 8006322:	3001      	adds	r0, #1
 8006324:	d004      	beq.n	8006330 <vTaskStartScheduler+0x104>
 8006326:	e8bd 87f0 	ldmia.w	sp!, {r4, r5, r6, r7, r8, r9, sl, pc}
 800632a:	4628      	mov	r0, r5
 800632c:	f001 fa6e 	bl	800780c <vPortFree>
 8006330:	f04f 0350 	mov.w	r3, #80	; 0x50
 8006334:	b672      	cpsid	i
 8006336:	f383 8811 	msr	BASEPRI, r3
 800633a:	f3bf 8f6f 	isb	sy
 800633e:	f3bf 8f4f 	dsb	sy
 8006342:	b662      	cpsie	i
 8006344:	e7fe      	b.n	8006344 <vTaskStartScheduler+0x118>
 8006346:	6833      	ldr	r3, [r6, #0]
 8006348:	6ae0      	ldr	r0, [r4, #44]	; 0x2c
 800634a:	6adb      	ldr	r3, [r3, #44]	; 0x2c
 800634c:	4283      	cmp	r3, r0
 800634e:	d800      	bhi.n	8006352 <vTaskStartScheduler+0x126>
 8006350:	6034      	str	r4, [r6, #0]
 8006352:	f8df 80c8 	ldr.w	r8, [pc, #200]	; 800641c <vTaskStartScheduler+0x1f0>
 8006356:	e7b9      	b.n	80062cc <vTaskStartScheduler+0xa0>
 8006358:	f04f 0350 	mov.w	r3, #80	; 0x50
 800635c:	b672      	cpsid	i
 800635e:	f383 8811 	msr	BASEPRI, r3
 8006362:	f3bf 8f6f 	isb	sy
 8006366:	f3bf 8f4f 	dsb	sy
 800636a:	b662      	cpsie	i
 800636c:	4a24      	ldr	r2, [pc, #144]	; (8006400 <vTaskStartScheduler+0x1d4>)
 800636e:	f04f 31ff 	mov.w	r1, #4294967295
 8006372:	4b24      	ldr	r3, [pc, #144]	; (8006404 <vTaskStartScheduler+0x1d8>)
 8006374:	6011      	str	r1, [r2, #0]
 8006376:	2200      	movs	r2, #0
 8006378:	6028      	str	r0, [r5, #0]
 800637a:	601a      	str	r2, [r3, #0]
 800637c:	e8bd 47f0 	ldmia.w	sp!, {r4, r5, r6, r7, r8, r9, sl, lr}
 8006380:	f001 b8d4 	b.w	800752c <xPortStartScheduler>
 8006384:	6034      	str	r4, [r6, #0]
 8006386:	6813      	ldr	r3, [r2, #0]
 8006388:	2b01      	cmp	r3, #1
 800638a:	d004      	beq.n	8006396 <vTaskStartScheduler+0x16a>
 800638c:	6ae0      	ldr	r0, [r4, #44]	; 0x2c
 800638e:	f8df 808c 	ldr.w	r8, [pc, #140]	; 800641c <vTaskStartScheduler+0x1f0>
 8006392:	4d19      	ldr	r5, [pc, #100]	; (80063f8 <vTaskStartScheduler+0x1cc>)
 8006394:	e79a      	b.n	80062cc <vTaskStartScheduler+0xa0>
 8006396:	f8df 8084 	ldr.w	r8, [pc, #132]	; 800641c <vTaskStartScheduler+0x1f0>
 800639a:	4645      	mov	r5, r8
 800639c:	f108 098c 	add.w	r9, r8, #140	; 0x8c
 80063a0:	4628      	mov	r0, r5
 80063a2:	3514      	adds	r5, #20
 80063a4:	f7fe fdaa 	bl	8004efc <vListInitialise>
 80063a8:	45a9      	cmp	r9, r5
 80063aa:	d1f9      	bne.n	80063a0 <vTaskStartScheduler+0x174>
 80063ac:	f8df a074 	ldr.w	sl, [pc, #116]	; 8006424 <vTaskStartScheduler+0x1f8>
 80063b0:	f8df 9074 	ldr.w	r9, [pc, #116]	; 8006428 <vTaskStartScheduler+0x1fc>
 80063b4:	4650      	mov	r0, sl
 80063b6:	4d10      	ldr	r5, [pc, #64]	; (80063f8 <vTaskStartScheduler+0x1cc>)
 80063b8:	f7fe fda0 	bl	8004efc <vListInitialise>
 80063bc:	4648      	mov	r0, r9
 80063be:	f7fe fd9d 	bl	8004efc <vListInitialise>
 80063c2:	4811      	ldr	r0, [pc, #68]	; (8006408 <vTaskStartScheduler+0x1dc>)
 80063c4:	f7fe fd9a 	bl	8004efc <vListInitialise>
 80063c8:	4810      	ldr	r0, [pc, #64]	; (800640c <vTaskStartScheduler+0x1e0>)
 80063ca:	f7fe fd97 	bl	8004efc <vListInitialise>
 80063ce:	4810      	ldr	r0, [pc, #64]	; (8006410 <vTaskStartScheduler+0x1e4>)
 80063d0:	f7fe fd94 	bl	8004efc <vListInitialise>
 80063d4:	4a0f      	ldr	r2, [pc, #60]	; (8006414 <vTaskStartScheduler+0x1e8>)
 80063d6:	4b10      	ldr	r3, [pc, #64]	; (8006418 <vTaskStartScheduler+0x1ec>)
 80063d8:	f8c2 a000 	str.w	sl, [r2]
 80063dc:	6ae0      	ldr	r0, [r4, #44]	; 0x2c
 80063de:	f8c3 9000 	str.w	r9, [r3]
 80063e2:	e773      	b.n	80062cc <vTaskStartScheduler+0xa0>
 80063e4:	0800c048 	.word	0x0800c048
 80063e8:	08005e65 	.word	0x08005e65
 80063ec:	20000680 	.word	0x20000680
 80063f0:	20000640 	.word	0x20000640
 80063f4:	200005a8 	.word	0x200005a8
 80063f8:	200006a0 	.word	0x200006a0
 80063fc:	20000654 	.word	0x20000654
 8006400:	20000684 	.word	0x20000684
 8006404:	200006cc 	.word	0x200006cc
 8006408:	2000068c 	.word	0x2000068c
 800640c:	200006b8 	.word	0x200006b8
 8006410:	200006a4 	.word	0x200006a4
 8006414:	200005ac 	.word	0x200005ac
 8006418:	200005b0 	.word	0x200005b0
 800641c:	200005b4 	.word	0x200005b4
 8006420:	20000650 	.word	0x20000650
 8006424:	20000658 	.word	0x20000658
 8006428:	2000066c 	.word	0x2000066c

0800642c <vTaskSuspendAll>:
 800642c:	4a02      	ldr	r2, [pc, #8]	; (8006438 <vTaskSuspendAll+0xc>)
 800642e:	6813      	ldr	r3, [r2, #0]
 8006430:	3301      	adds	r3, #1
 8006432:	6013      	str	r3, [r2, #0]
 8006434:	4770      	bx	lr
 8006436:	bf00      	nop
 8006438:	2000064c 	.word	0x2000064c

0800643c <xTaskGetTickCount>:
 800643c:	4b01      	ldr	r3, [pc, #4]	; (8006444 <xTaskGetTickCount+0x8>)
 800643e:	6818      	ldr	r0, [r3, #0]
 8006440:	4770      	bx	lr
 8006442:	bf00      	nop
 8006444:	200006cc 	.word	0x200006cc

08006448 <xTaskGetTickCountFromISR>:
 8006448:	b508      	push	{r3, lr}
 800644a:	f001 f8f3 	bl	8007634 <vPortValidateInterruptPriority>
 800644e:	4b01      	ldr	r3, [pc, #4]	; (8006454 <xTaskGetTickCountFromISR+0xc>)
 8006450:	6818      	ldr	r0, [r3, #0]
 8006452:	bd08      	pop	{r3, pc}
 8006454:	200006cc 	.word	0x200006cc

08006458 <xTaskIncrementTick>:
 8006458:	4b53      	ldr	r3, [pc, #332]	; (80065a8 <xTaskIncrementTick+0x150>)
 800645a:	e92d 4ff0 	stmdb	sp!, {r4, r5, r6, r7, r8, r9, sl, fp, lr}
 800645e:	681b      	ldr	r3, [r3, #0]
 8006460:	b083      	sub	sp, #12
 8006462:	2b00      	cmp	r3, #0
 8006464:	d14b      	bne.n	80064fe <xTaskIncrementTick+0xa6>
 8006466:	4b51      	ldr	r3, [pc, #324]	; (80065ac <xTaskIncrementTick+0x154>)
 8006468:	681d      	ldr	r5, [r3, #0]
 800646a:	3501      	adds	r5, #1
 800646c:	601d      	str	r5, [r3, #0]
 800646e:	2d00      	cmp	r5, #0
 8006470:	d053      	beq.n	800651a <xTaskIncrementTick+0xc2>
 8006472:	4b4f      	ldr	r3, [pc, #316]	; (80065b0 <xTaskIncrementTick+0x158>)
 8006474:	9301      	str	r3, [sp, #4]
 8006476:	681b      	ldr	r3, [r3, #0]
 8006478:	42ab      	cmp	r3, r5
 800647a:	d866      	bhi.n	800654a <xTaskIncrementTick+0xf2>
 800647c:	4e4d      	ldr	r6, [pc, #308]	; (80065b4 <xTaskIncrementTick+0x15c>)
 800647e:	6833      	ldr	r3, [r6, #0]
 8006480:	681c      	ldr	r4, [r3, #0]
 8006482:	2c00      	cmp	r4, #0
 8006484:	d07d      	beq.n	8006582 <xTaskIncrementTick+0x12a>
 8006486:	2400      	movs	r4, #0
 8006488:	f8df 8140 	ldr.w	r8, [pc, #320]	; 80065cc <xTaskIncrementTick+0x174>
 800648c:	f8df 9140 	ldr.w	r9, [pc, #320]	; 80065d0 <xTaskIncrementTick+0x178>
 8006490:	f04f 0a01 	mov.w	sl, #1
 8006494:	4f48      	ldr	r7, [pc, #288]	; (80065b8 <xTaskIncrementTick+0x160>)
 8006496:	e024      	b.n	80064e2 <xTaskIncrementTick+0x8a>
 8006498:	9100      	str	r1, [sp, #0]
 800649a:	f7fe fd63 	bl	8004f64 <uxListRemove>
 800649e:	f8db 2028 	ldr.w	r2, [fp, #40]	; 0x28
 80064a2:	f10b 0018 	add.w	r0, fp, #24
 80064a6:	9900      	ldr	r1, [sp, #0]
 80064a8:	b112      	cbz	r2, 80064b0 <xTaskIncrementTick+0x58>
 80064aa:	f7fe fd5b 	bl	8004f64 <uxListRemove>
 80064ae:	9900      	ldr	r1, [sp, #0]
 80064b0:	f8db 002c 	ldr.w	r0, [fp, #44]	; 0x2c
 80064b4:	683b      	ldr	r3, [r7, #0]
 80064b6:	fa0a f200 	lsl.w	r2, sl, r0
 80064ba:	eb00 0080 	add.w	r0, r0, r0, lsl #2
 80064be:	431a      	orrs	r2, r3
 80064c0:	eb08 0080 	add.w	r0, r8, r0, lsl #2
 80064c4:	603a      	str	r2, [r7, #0]
 80064c6:	f7fe fd29 	bl	8004f1c <vListInsertEnd>
 80064ca:	f8d9 3000 	ldr.w	r3, [r9]
 80064ce:	f8db 202c 	ldr.w	r2, [fp, #44]	; 0x2c
 80064d2:	6adb      	ldr	r3, [r3, #44]	; 0x2c
 80064d4:	429a      	cmp	r2, r3
 80064d6:	bf28      	it	cs
 80064d8:	2401      	movcs	r4, #1
 80064da:	6833      	ldr	r3, [r6, #0]
 80064dc:	681b      	ldr	r3, [r3, #0]
 80064de:	2b00      	cmp	r3, #0
 80064e0:	d053      	beq.n	800658a <xTaskIncrementTick+0x132>
 80064e2:	6833      	ldr	r3, [r6, #0]
 80064e4:	68db      	ldr	r3, [r3, #12]
 80064e6:	f8d3 b00c 	ldr.w	fp, [r3, #12]
 80064ea:	f8db 2004 	ldr.w	r2, [fp, #4]
 80064ee:	f10b 0104 	add.w	r1, fp, #4
 80064f2:	4295      	cmp	r5, r2
 80064f4:	4608      	mov	r0, r1
 80064f6:	d2cf      	bcs.n	8006498 <xTaskIncrementTick+0x40>
 80064f8:	9b01      	ldr	r3, [sp, #4]
 80064fa:	601a      	str	r2, [r3, #0]
 80064fc:	e02a      	b.n	8006554 <xTaskIncrementTick+0xfc>
 80064fe:	4a2f      	ldr	r2, [pc, #188]	; (80065bc <xTaskIncrementTick+0x164>)
 8006500:	2400      	movs	r4, #0
 8006502:	6813      	ldr	r3, [r2, #0]
 8006504:	3301      	adds	r3, #1
 8006506:	6013      	str	r3, [r2, #0]
 8006508:	4b2d      	ldr	r3, [pc, #180]	; (80065c0 <xTaskIncrementTick+0x168>)
 800650a:	681b      	ldr	r3, [r3, #0]
 800650c:	2b00      	cmp	r3, #0
 800650e:	bf0c      	ite	eq
 8006510:	4620      	moveq	r0, r4
 8006512:	2001      	movne	r0, #1
 8006514:	b003      	add	sp, #12
 8006516:	e8bd 8ff0 	ldmia.w	sp!, {r4, r5, r6, r7, r8, r9, sl, fp, pc}
 800651a:	4b26      	ldr	r3, [pc, #152]	; (80065b4 <xTaskIncrementTick+0x15c>)
 800651c:	681a      	ldr	r2, [r3, #0]
 800651e:	6812      	ldr	r2, [r2, #0]
 8006520:	bb22      	cbnz	r2, 800656c <xTaskIncrementTick+0x114>
 8006522:	4a28      	ldr	r2, [pc, #160]	; (80065c4 <xTaskIncrementTick+0x16c>)
 8006524:	6818      	ldr	r0, [r3, #0]
 8006526:	6811      	ldr	r1, [r2, #0]
 8006528:	6019      	str	r1, [r3, #0]
 800652a:	4927      	ldr	r1, [pc, #156]	; (80065c8 <xTaskIncrementTick+0x170>)
 800652c:	6010      	str	r0, [r2, #0]
 800652e:	680a      	ldr	r2, [r1, #0]
 8006530:	3201      	adds	r2, #1
 8006532:	600a      	str	r2, [r1, #0]
 8006534:	681a      	ldr	r2, [r3, #0]
 8006536:	6812      	ldr	r2, [r2, #0]
 8006538:	bb62      	cbnz	r2, 8006594 <xTaskIncrementTick+0x13c>
 800653a:	4b1d      	ldr	r3, [pc, #116]	; (80065b0 <xTaskIncrementTick+0x158>)
 800653c:	461a      	mov	r2, r3
 800653e:	9301      	str	r3, [sp, #4]
 8006540:	f04f 33ff 	mov.w	r3, #4294967295
 8006544:	6013      	str	r3, [r2, #0]
 8006546:	4613      	mov	r3, r2
 8006548:	e795      	b.n	8006476 <xTaskIncrementTick+0x1e>
 800654a:	2400      	movs	r4, #0
 800654c:	f8df 807c 	ldr.w	r8, [pc, #124]	; 80065cc <xTaskIncrementTick+0x174>
 8006550:	f8df 907c 	ldr.w	r9, [pc, #124]	; 80065d0 <xTaskIncrementTick+0x178>
 8006554:	f8d9 3000 	ldr.w	r3, [r9]
 8006558:	6adb      	ldr	r3, [r3, #44]	; 0x2c
 800655a:	eb03 0383 	add.w	r3, r3, r3, lsl #2
 800655e:	009b      	lsls	r3, r3, #2
 8006560:	f858 3003 	ldr.w	r3, [r8, r3]
 8006564:	2b02      	cmp	r3, #2
 8006566:	bf28      	it	cs
 8006568:	2401      	movcs	r4, #1
 800656a:	e7cd      	b.n	8006508 <xTaskIncrementTick+0xb0>
 800656c:	f04f 0350 	mov.w	r3, #80	; 0x50
 8006570:	b672      	cpsid	i
 8006572:	f383 8811 	msr	BASEPRI, r3
 8006576:	f3bf 8f6f 	isb	sy
 800657a:	f3bf 8f4f 	dsb	sy
 800657e:	b662      	cpsie	i
 8006580:	e7fe      	b.n	8006580 <xTaskIncrementTick+0x128>
 8006582:	f8df 8048 	ldr.w	r8, [pc, #72]	; 80065cc <xTaskIncrementTick+0x174>
 8006586:	f8df 9048 	ldr.w	r9, [pc, #72]	; 80065d0 <xTaskIncrementTick+0x178>
 800658a:	f04f 33ff 	mov.w	r3, #4294967295
 800658e:	9a01      	ldr	r2, [sp, #4]
 8006590:	6013      	str	r3, [r2, #0]
 8006592:	e7df      	b.n	8006554 <xTaskIncrementTick+0xfc>
 8006594:	681b      	ldr	r3, [r3, #0]
 8006596:	4a06      	ldr	r2, [pc, #24]	; (80065b0 <xTaskIncrementTick+0x158>)
 8006598:	68db      	ldr	r3, [r3, #12]
 800659a:	9201      	str	r2, [sp, #4]
 800659c:	68db      	ldr	r3, [r3, #12]
 800659e:	685b      	ldr	r3, [r3, #4]
 80065a0:	6013      	str	r3, [r2, #0]
 80065a2:	4613      	mov	r3, r2
 80065a4:	e767      	b.n	8006476 <xTaskIncrementTick+0x1e>
 80065a6:	bf00      	nop
 80065a8:	2000064c 	.word	0x2000064c
 80065ac:	200006cc 	.word	0x200006cc
 80065b0:	20000684 	.word	0x20000684
 80065b4:	200005ac 	.word	0x200005ac
 80065b8:	20000654 	.word	0x20000654
 80065bc:	20000648 	.word	0x20000648
 80065c0:	200006d0 	.word	0x200006d0
 80065c4:	200005b0 	.word	0x200005b0
 80065c8:	20000688 	.word	0x20000688
 80065cc:	200005b4 	.word	0x200005b4
 80065d0:	200005a8 	.word	0x200005a8

080065d4 <xTaskResumeAll.part.0>:
 80065d4:	e92d 4ff0 	stmdb	sp!, {r4, r5, r6, r7, r8, r9, sl, fp, lr}
 80065d8:	b083      	sub	sp, #12
 80065da:	f000 ff0b 	bl	80073f4 <vPortEnterCritical>
 80065de:	4b3d      	ldr	r3, [pc, #244]	; (80066d4 <xTaskResumeAll.part.0+0x100>)
 80065e0:	681a      	ldr	r2, [r3, #0]
 80065e2:	3a01      	subs	r2, #1
 80065e4:	601a      	str	r2, [r3, #0]
 80065e6:	681b      	ldr	r3, [r3, #0]
 80065e8:	2b00      	cmp	r3, #0
 80065ea:	d15a      	bne.n	80066a2 <xTaskResumeAll.part.0+0xce>
 80065ec:	4b3a      	ldr	r3, [pc, #232]	; (80066d8 <xTaskResumeAll.part.0+0x104>)
 80065ee:	681b      	ldr	r3, [r3, #0]
 80065f0:	2b00      	cmp	r3, #0
 80065f2:	d056      	beq.n	80066a2 <xTaskResumeAll.part.0+0xce>
 80065f4:	f8df a0f8 	ldr.w	sl, [pc, #248]	; 80066f0 <xTaskResumeAll.part.0+0x11c>
 80065f8:	f8da 3000 	ldr.w	r3, [sl]
 80065fc:	2b00      	cmp	r3, #0
 80065fe:	d066      	beq.n	80066ce <xTaskResumeAll.part.0+0xfa>
 8006600:	4d36      	ldr	r5, [pc, #216]	; (80066dc <xTaskResumeAll.part.0+0x108>)
 8006602:	2601      	movs	r6, #1
 8006604:	f8df 80ec 	ldr.w	r8, [pc, #236]	; 80066f4 <xTaskResumeAll.part.0+0x120>
 8006608:	4f35      	ldr	r7, [pc, #212]	; (80066e0 <xTaskResumeAll.part.0+0x10c>)
 800660a:	f8df 90ec 	ldr.w	r9, [pc, #236]	; 80066f8 <xTaskResumeAll.part.0+0x124>
 800660e:	f8da 300c 	ldr.w	r3, [sl, #12]
 8006612:	68dc      	ldr	r4, [r3, #12]
 8006614:	f104 0b04 	add.w	fp, r4, #4
 8006618:	f104 0018 	add.w	r0, r4, #24
 800661c:	f7fe fca2 	bl	8004f64 <uxListRemove>
 8006620:	4658      	mov	r0, fp
 8006622:	f7fe fc9f 	bl	8004f64 <uxListRemove>
 8006626:	6ae0      	ldr	r0, [r4, #44]	; 0x2c
 8006628:	682a      	ldr	r2, [r5, #0]
 800662a:	4659      	mov	r1, fp
 800662c:	fa06 f300 	lsl.w	r3, r6, r0
 8006630:	eb00 0080 	add.w	r0, r0, r0, lsl #2
 8006634:	4313      	orrs	r3, r2
 8006636:	eb08 0080 	add.w	r0, r8, r0, lsl #2
 800663a:	602b      	str	r3, [r5, #0]
 800663c:	f7fe fc6e 	bl	8004f1c <vListInsertEnd>
 8006640:	683b      	ldr	r3, [r7, #0]
 8006642:	6ae2      	ldr	r2, [r4, #44]	; 0x2c
 8006644:	6adb      	ldr	r3, [r3, #44]	; 0x2c
 8006646:	429a      	cmp	r2, r3
 8006648:	d333      	bcc.n	80066b2 <xTaskResumeAll.part.0+0xde>
 800664a:	f8c9 6000 	str.w	r6, [r9]
 800664e:	f8da 3000 	ldr.w	r3, [sl]
 8006652:	2b00      	cmp	r3, #0
 8006654:	d1db      	bne.n	800660e <xTaskResumeAll.part.0+0x3a>
 8006656:	4b23      	ldr	r3, [pc, #140]	; (80066e4 <xTaskResumeAll.part.0+0x110>)
 8006658:	681a      	ldr	r2, [r3, #0]
 800665a:	6812      	ldr	r2, [r2, #0]
 800665c:	2a00      	cmp	r2, #0
 800665e:	d031      	beq.n	80066c4 <xTaskResumeAll.part.0+0xf0>
 8006660:	681a      	ldr	r2, [r3, #0]
 8006662:	4b21      	ldr	r3, [pc, #132]	; (80066e8 <xTaskResumeAll.part.0+0x114>)
 8006664:	68d2      	ldr	r2, [r2, #12]
 8006666:	68d2      	ldr	r2, [r2, #12]
 8006668:	6852      	ldr	r2, [r2, #4]
 800666a:	601a      	str	r2, [r3, #0]
 800666c:	4e1f      	ldr	r6, [pc, #124]	; (80066ec <xTaskResumeAll.part.0+0x118>)
 800666e:	6834      	ldr	r4, [r6, #0]
 8006670:	b144      	cbz	r4, 8006684 <xTaskResumeAll.part.0+0xb0>
 8006672:	2501      	movs	r5, #1
 8006674:	f7ff fef0 	bl	8006458 <xTaskIncrementTick>
 8006678:	b108      	cbz	r0, 800667e <xTaskResumeAll.part.0+0xaa>
 800667a:	f8c9 5000 	str.w	r5, [r9]
 800667e:	3c01      	subs	r4, #1
 8006680:	d1f8      	bne.n	8006674 <xTaskResumeAll.part.0+0xa0>
 8006682:	6034      	str	r4, [r6, #0]
 8006684:	f8d9 3000 	ldr.w	r3, [r9]
 8006688:	b15b      	cbz	r3, 80066a2 <xTaskResumeAll.part.0+0xce>
 800668a:	f04f 23e0 	mov.w	r3, #3758153728	; 0xe000e000
 800668e:	f04f 5280 	mov.w	r2, #268435456	; 0x10000000
 8006692:	f8c3 2d04 	str.w	r2, [r3, #3332]	; 0xd04
 8006696:	f3bf 8f4f 	dsb	sy
 800669a:	f3bf 8f6f 	isb	sy
 800669e:	2001      	movs	r0, #1
 80066a0:	e000      	b.n	80066a4 <xTaskResumeAll.part.0+0xd0>
 80066a2:	2000      	movs	r0, #0
 80066a4:	9001      	str	r0, [sp, #4]
 80066a6:	f000 fecb 	bl	8007440 <vPortExitCritical>
 80066aa:	9801      	ldr	r0, [sp, #4]
 80066ac:	b003      	add	sp, #12
 80066ae:	e8bd 8ff0 	ldmia.w	sp!, {r4, r5, r6, r7, r8, r9, sl, fp, pc}
 80066b2:	f8da 3000 	ldr.w	r3, [sl]
 80066b6:	2b00      	cmp	r3, #0
 80066b8:	d1a9      	bne.n	800660e <xTaskResumeAll.part.0+0x3a>
 80066ba:	4b0a      	ldr	r3, [pc, #40]	; (80066e4 <xTaskResumeAll.part.0+0x110>)
 80066bc:	681a      	ldr	r2, [r3, #0]
 80066be:	6812      	ldr	r2, [r2, #0]
 80066c0:	2a00      	cmp	r2, #0
 80066c2:	d1cd      	bne.n	8006660 <xTaskResumeAll.part.0+0x8c>
 80066c4:	4b08      	ldr	r3, [pc, #32]	; (80066e8 <xTaskResumeAll.part.0+0x114>)
 80066c6:	f04f 32ff 	mov.w	r2, #4294967295
 80066ca:	601a      	str	r2, [r3, #0]
 80066cc:	e7ce      	b.n	800666c <xTaskResumeAll.part.0+0x98>
 80066ce:	f8df 9028 	ldr.w	r9, [pc, #40]	; 80066f8 <xTaskResumeAll.part.0+0x124>
 80066d2:	e7cb      	b.n	800666c <xTaskResumeAll.part.0+0x98>
 80066d4:	2000064c 	.word	0x2000064c
 80066d8:	20000640 	.word	0x20000640
 80066dc:	20000654 	.word	0x20000654
 80066e0:	200005a8 	.word	0x200005a8
 80066e4:	200005ac 	.word	0x200005ac
 80066e8:	20000684 	.word	0x20000684
 80066ec:	20000648 	.word	0x20000648
 80066f0:	2000068c 	.word	0x2000068c
 80066f4:	200005b4 	.word	0x200005b4
 80066f8:	200006d0 	.word	0x200006d0

080066fc <xTaskResumeAll>:
 80066fc:	4b07      	ldr	r3, [pc, #28]	; (800671c <xTaskResumeAll+0x20>)
 80066fe:	681b      	ldr	r3, [r3, #0]
 8006700:	b953      	cbnz	r3, 8006718 <xTaskResumeAll+0x1c>
 8006702:	f04f 0350 	mov.w	r3, #80	; 0x50
 8006706:	b672      	cpsid	i
 8006708:	f383 8811 	msr	BASEPRI, r3
 800670c:	f3bf 8f6f 	isb	sy
 8006710:	f3bf 8f4f 	dsb	sy
 8006714:	b662      	cpsie	i
 8006716:	e7fe      	b.n	8006716 <xTaskResumeAll+0x1a>
 8006718:	f7ff bf5c 	b.w	80065d4 <xTaskResumeAll.part.0>
 800671c:	2000064c 	.word	0x2000064c

08006720 <vTaskDelay>:
 8006720:	b510      	push	{r4, lr}
 8006722:	b950      	cbnz	r0, 800673a <vTaskDelay+0x1a>
 8006724:	f04f 23e0 	mov.w	r3, #3758153728	; 0xe000e000
 8006728:	f04f 5280 	mov.w	r2, #268435456	; 0x10000000
 800672c:	f8c3 2d04 	str.w	r2, [r3, #3332]	; 0xd04
 8006730:	f3bf 8f4f 	dsb	sy
 8006734:	f3bf 8f6f 	isb	sy
 8006738:	bd10      	pop	{r4, pc}
 800673a:	4c12      	ldr	r4, [pc, #72]	; (8006784 <vTaskDelay+0x64>)
 800673c:	6821      	ldr	r1, [r4, #0]
 800673e:	b151      	cbz	r1, 8006756 <vTaskDelay+0x36>
 8006740:	f04f 0350 	mov.w	r3, #80	; 0x50
 8006744:	b672      	cpsid	i
 8006746:	f383 8811 	msr	BASEPRI, r3
 800674a:	f3bf 8f6f 	isb	sy
 800674e:	f3bf 8f4f 	dsb	sy
 8006752:	b662      	cpsie	i
 8006754:	e7fe      	b.n	8006754 <vTaskDelay+0x34>
 8006756:	6823      	ldr	r3, [r4, #0]
 8006758:	3301      	adds	r3, #1
 800675a:	6023      	str	r3, [r4, #0]
 800675c:	f7ff fbb8 	bl	8005ed0 <prvAddCurrentTaskToDelayedList>
 8006760:	6823      	ldr	r3, [r4, #0]
 8006762:	b953      	cbnz	r3, 800677a <vTaskDelay+0x5a>
 8006764:	f04f 0350 	mov.w	r3, #80	; 0x50
 8006768:	b672      	cpsid	i
 800676a:	f383 8811 	msr	BASEPRI, r3
 800676e:	f3bf 8f6f 	isb	sy
 8006772:	f3bf 8f4f 	dsb	sy
 8006776:	b662      	cpsie	i
 8006778:	e7fe      	b.n	8006778 <vTaskDelay+0x58>
 800677a:	f7ff ff2b 	bl	80065d4 <xTaskResumeAll.part.0>
 800677e:	2800      	cmp	r0, #0
 8006780:	d0d0      	beq.n	8006724 <vTaskDelay+0x4>
 8006782:	bd10      	pop	{r4, pc}
 8006784:	2000064c 	.word	0x2000064c

08006788 <vTaskDelayUntil>:
 8006788:	b538      	push	{r3, r4, r5, lr}
 800678a:	2800      	cmp	r0, #0
 800678c:	d02f      	beq.n	80067ee <vTaskDelayUntil+0x66>
 800678e:	b951      	cbnz	r1, 80067a6 <vTaskDelayUntil+0x1e>
 8006790:	f04f 0350 	mov.w	r3, #80	; 0x50
 8006794:	b672      	cpsid	i
 8006796:	f383 8811 	msr	BASEPRI, r3
 800679a:	f3bf 8f6f 	isb	sy
 800679e:	f3bf 8f4f 	dsb	sy
 80067a2:	b662      	cpsie	i
 80067a4:	e7fe      	b.n	80067a4 <vTaskDelayUntil+0x1c>
 80067a6:	4c25      	ldr	r4, [pc, #148]	; (800683c <vTaskDelayUntil+0xb4>)
 80067a8:	6823      	ldr	r3, [r4, #0]
 80067aa:	bb5b      	cbnz	r3, 8006804 <vTaskDelayUntil+0x7c>
 80067ac:	6823      	ldr	r3, [r4, #0]
 80067ae:	3301      	adds	r3, #1
 80067b0:	6023      	str	r3, [r4, #0]
 80067b2:	4b23      	ldr	r3, [pc, #140]	; (8006840 <vTaskDelayUntil+0xb8>)
 80067b4:	6802      	ldr	r2, [r0, #0]
 80067b6:	681d      	ldr	r5, [r3, #0]
 80067b8:	1853      	adds	r3, r2, r1
 80067ba:	bf2c      	ite	cs
 80067bc:	2101      	movcs	r1, #1
 80067be:	2100      	movcc	r1, #0
 80067c0:	42aa      	cmp	r2, r5
 80067c2:	6003      	str	r3, [r0, #0]
 80067c4:	d929      	bls.n	800681a <vTaskDelayUntil+0x92>
 80067c6:	b129      	cbz	r1, 80067d4 <vTaskDelayUntil+0x4c>
 80067c8:	429d      	cmp	r5, r3
 80067ca:	d203      	bcs.n	80067d4 <vTaskDelayUntil+0x4c>
 80067cc:	2100      	movs	r1, #0
 80067ce:	1b58      	subs	r0, r3, r5
 80067d0:	f7ff fb7e 	bl	8005ed0 <prvAddCurrentTaskToDelayedList>
 80067d4:	6823      	ldr	r3, [r4, #0]
 80067d6:	bb1b      	cbnz	r3, 8006820 <vTaskDelayUntil+0x98>
 80067d8:	f04f 0350 	mov.w	r3, #80	; 0x50
 80067dc:	b672      	cpsid	i
 80067de:	f383 8811 	msr	BASEPRI, r3
 80067e2:	f3bf 8f6f 	isb	sy
 80067e6:	f3bf 8f4f 	dsb	sy
 80067ea:	b662      	cpsie	i
 80067ec:	e7fe      	b.n	80067ec <vTaskDelayUntil+0x64>
 80067ee:	f04f 0350 	mov.w	r3, #80	; 0x50
 80067f2:	b672      	cpsid	i
 80067f4:	f383 8811 	msr	BASEPRI, r3
 80067f8:	f3bf 8f6f 	isb	sy
 80067fc:	f3bf 8f4f 	dsb	sy
 8006800:	b662      	cpsie	i
 8006802:	e7fe      	b.n	8006802 <vTaskDelayUntil+0x7a>
 8006804:	f04f 0350 	mov.w	r3, #80	; 0x50
 8006808:	b672      	cpsid	i
 800680a:	f383 8811 	msr	BASEPRI, r3
 800680e:	f3bf 8f6f 	isb	sy
 8006812:	f3bf 8f4f 	dsb	sy
 8006816:	b662      	cpsie	i
 8006818:	e7fe      	b.n	8006818 <vTaskDelayUntil+0x90>
 800681a:	2900      	cmp	r1, #0
 800681c:	d0d4      	beq.n	80067c8 <vTaskDelayUntil+0x40>
 800681e:	e7d5      	b.n	80067cc <vTaskDelayUntil+0x44>
 8006820:	f7ff fed8 	bl	80065d4 <xTaskResumeAll.part.0>
 8006824:	b948      	cbnz	r0, 800683a <vTaskDelayUntil+0xb2>
 8006826:	f04f 23e0 	mov.w	r3, #3758153728	; 0xe000e000
 800682a:	f04f 5280 	mov.w	r2, #268435456	; 0x10000000
 800682e:	f8c3 2d04 	str.w	r2, [r3, #3332]	; 0xd04
 8006832:	f3bf 8f4f 	dsb	sy
 8006836:	f3bf 8f6f 	isb	sy
 800683a:	bd38      	pop	{r3, r4, r5, pc}
 800683c:	2000064c 	.word	0x2000064c
 8006840:	200006cc 	.word	0x200006cc

08006844 <vTaskSwitchContext>:
 8006844:	4b18      	ldr	r3, [pc, #96]	; (80068a8 <vTaskSwitchContext+0x64>)
 8006846:	681b      	ldr	r3, [r3, #0]
 8006848:	b11b      	cbz	r3, 8006852 <vTaskSwitchContext+0xe>
 800684a:	4b18      	ldr	r3, [pc, #96]	; (80068ac <vTaskSwitchContext+0x68>)
 800684c:	2201      	movs	r2, #1
 800684e:	601a      	str	r2, [r3, #0]
 8006850:	4770      	bx	lr
 8006852:	4916      	ldr	r1, [pc, #88]	; (80068ac <vTaskSwitchContext+0x68>)
 8006854:	4a16      	ldr	r2, [pc, #88]	; (80068b0 <vTaskSwitchContext+0x6c>)
 8006856:	600b      	str	r3, [r1, #0]
 8006858:	6813      	ldr	r3, [r2, #0]
 800685a:	fab3 f383 	clz	r3, r3
 800685e:	b2db      	uxtb	r3, r3
 8006860:	4a14      	ldr	r2, [pc, #80]	; (80068b4 <vTaskSwitchContext+0x70>)
 8006862:	f1c3 031f 	rsb	r3, r3, #31
 8006866:	eb03 0383 	add.w	r3, r3, r3, lsl #2
 800686a:	0099      	lsls	r1, r3, #2
 800686c:	eb02 0383 	add.w	r3, r2, r3, lsl #2
 8006870:	5850      	ldr	r0, [r2, r1]
 8006872:	b950      	cbnz	r0, 800688a <vTaskSwitchContext+0x46>
 8006874:	f04f 0350 	mov.w	r3, #80	; 0x50
 8006878:	b672      	cpsid	i
 800687a:	f383 8811 	msr	BASEPRI, r3
 800687e:	f3bf 8f6f 	isb	sy
 8006882:	f3bf 8f4f 	dsb	sy
 8006886:	b662      	cpsie	i
 8006888:	e7fe      	b.n	8006888 <vTaskSwitchContext+0x44>
 800688a:	6858      	ldr	r0, [r3, #4]
 800688c:	3108      	adds	r1, #8
 800688e:	6840      	ldr	r0, [r0, #4]
 8006890:	440a      	add	r2, r1
 8006892:	4290      	cmp	r0, r2
 8006894:	6058      	str	r0, [r3, #4]
 8006896:	d003      	beq.n	80068a0 <vTaskSwitchContext+0x5c>
 8006898:	68c2      	ldr	r2, [r0, #12]
 800689a:	4b07      	ldr	r3, [pc, #28]	; (80068b8 <vTaskSwitchContext+0x74>)
 800689c:	601a      	str	r2, [r3, #0]
 800689e:	4770      	bx	lr
 80068a0:	6840      	ldr	r0, [r0, #4]
 80068a2:	6058      	str	r0, [r3, #4]
 80068a4:	e7f8      	b.n	8006898 <vTaskSwitchContext+0x54>
 80068a6:	bf00      	nop
 80068a8:	2000064c 	.word	0x2000064c
 80068ac:	200006d0 	.word	0x200006d0
 80068b0:	20000654 	.word	0x20000654
 80068b4:	200005b4 	.word	0x200005b4
 80068b8:	200005a8 	.word	0x200005a8

080068bc <vTaskPlaceOnEventList>:
 80068bc:	b348      	cbz	r0, 8006912 <vTaskPlaceOnEventList+0x56>
 80068be:	b570      	push	{r4, r5, r6, lr}
 80068c0:	4d21      	ldr	r5, [pc, #132]	; (8006948 <vTaskPlaceOnEventList+0x8c>)
 80068c2:	460c      	mov	r4, r1
 80068c4:	6829      	ldr	r1, [r5, #0]
 80068c6:	3118      	adds	r1, #24
 80068c8:	f7fe fb34 	bl	8004f34 <vListInsert>
 80068cc:	4b1f      	ldr	r3, [pc, #124]	; (800694c <vTaskPlaceOnEventList+0x90>)
 80068ce:	681e      	ldr	r6, [r3, #0]
 80068d0:	6828      	ldr	r0, [r5, #0]
 80068d2:	3004      	adds	r0, #4
 80068d4:	f7fe fb46 	bl	8004f64 <uxListRemove>
 80068d8:	b948      	cbnz	r0, 80068ee <vTaskPlaceOnEventList+0x32>
 80068da:	682b      	ldr	r3, [r5, #0]
 80068dc:	491c      	ldr	r1, [pc, #112]	; (8006950 <vTaskPlaceOnEventList+0x94>)
 80068de:	6ada      	ldr	r2, [r3, #44]	; 0x2c
 80068e0:	2301      	movs	r3, #1
 80068e2:	fa03 f202 	lsl.w	r2, r3, r2
 80068e6:	680b      	ldr	r3, [r1, #0]
 80068e8:	ea23 0302 	bic.w	r3, r3, r2
 80068ec:	600b      	str	r3, [r1, #0]
 80068ee:	1c63      	adds	r3, r4, #1
 80068f0:	d022      	beq.n	8006938 <vTaskPlaceOnEventList+0x7c>
 80068f2:	19a4      	adds	r4, r4, r6
 80068f4:	682b      	ldr	r3, [r5, #0]
 80068f6:	605c      	str	r4, [r3, #4]
 80068f8:	d216      	bcs.n	8006928 <vTaskPlaceOnEventList+0x6c>
 80068fa:	4b16      	ldr	r3, [pc, #88]	; (8006954 <vTaskPlaceOnEventList+0x98>)
 80068fc:	6818      	ldr	r0, [r3, #0]
 80068fe:	6829      	ldr	r1, [r5, #0]
 8006900:	3104      	adds	r1, #4
 8006902:	f7fe fb17 	bl	8004f34 <vListInsert>
 8006906:	4b14      	ldr	r3, [pc, #80]	; (8006958 <vTaskPlaceOnEventList+0x9c>)
 8006908:	681a      	ldr	r2, [r3, #0]
 800690a:	4294      	cmp	r4, r2
 800690c:	d200      	bcs.n	8006910 <vTaskPlaceOnEventList+0x54>
 800690e:	601c      	str	r4, [r3, #0]
 8006910:	bd70      	pop	{r4, r5, r6, pc}
 8006912:	f04f 0350 	mov.w	r3, #80	; 0x50
 8006916:	b672      	cpsid	i
 8006918:	f383 8811 	msr	BASEPRI, r3
 800691c:	f3bf 8f6f 	isb	sy
 8006920:	f3bf 8f4f 	dsb	sy
 8006924:	b662      	cpsie	i
 8006926:	e7fe      	b.n	8006926 <vTaskPlaceOnEventList+0x6a>
 8006928:	4b0c      	ldr	r3, [pc, #48]	; (800695c <vTaskPlaceOnEventList+0xa0>)
 800692a:	6818      	ldr	r0, [r3, #0]
 800692c:	6829      	ldr	r1, [r5, #0]
 800692e:	e8bd 4070 	ldmia.w	sp!, {r4, r5, r6, lr}
 8006932:	3104      	adds	r1, #4
 8006934:	f7fe bafe 	b.w	8004f34 <vListInsert>
 8006938:	6829      	ldr	r1, [r5, #0]
 800693a:	4809      	ldr	r0, [pc, #36]	; (8006960 <vTaskPlaceOnEventList+0xa4>)
 800693c:	3104      	adds	r1, #4
 800693e:	e8bd 4070 	ldmia.w	sp!, {r4, r5, r6, lr}
 8006942:	f7fe baeb 	b.w	8004f1c <vListInsertEnd>
 8006946:	bf00      	nop
 8006948:	200005a8 	.word	0x200005a8
 800694c:	200006cc 	.word	0x200006cc
 8006950:	20000654 	.word	0x20000654
 8006954:	200005ac 	.word	0x200005ac
 8006958:	20000684 	.word	0x20000684
 800695c:	200005b0 	.word	0x200005b0
 8006960:	200006a4 	.word	0x200006a4

08006964 <vTaskPlaceOnEventListRestricted>:
 8006964:	2800      	cmp	r0, #0
 8006966:	d036      	beq.n	80069d6 <vTaskPlaceOnEventListRestricted+0x72>
 8006968:	b570      	push	{r4, r5, r6, lr}
 800696a:	4e2c      	ldr	r6, [pc, #176]	; (8006a1c <vTaskPlaceOnEventListRestricted+0xb8>)
 800696c:	460c      	mov	r4, r1
 800696e:	4615      	mov	r5, r2
 8006970:	6831      	ldr	r1, [r6, #0]
 8006972:	3118      	adds	r1, #24
 8006974:	f7fe fad2 	bl	8004f1c <vListInsertEnd>
 8006978:	b1b5      	cbz	r5, 80069a8 <vTaskPlaceOnEventListRestricted+0x44>
 800697a:	4b29      	ldr	r3, [pc, #164]	; (8006a20 <vTaskPlaceOnEventListRestricted+0xbc>)
 800697c:	681b      	ldr	r3, [r3, #0]
 800697e:	6830      	ldr	r0, [r6, #0]
 8006980:	3004      	adds	r0, #4
 8006982:	f7fe faef 	bl	8004f64 <uxListRemove>
 8006986:	b940      	cbnz	r0, 800699a <vTaskPlaceOnEventListRestricted+0x36>
 8006988:	6833      	ldr	r3, [r6, #0]
 800698a:	2201      	movs	r2, #1
 800698c:	4925      	ldr	r1, [pc, #148]	; (8006a24 <vTaskPlaceOnEventListRestricted+0xc0>)
 800698e:	6ad8      	ldr	r0, [r3, #44]	; 0x2c
 8006990:	680b      	ldr	r3, [r1, #0]
 8006992:	4082      	lsls	r2, r0
 8006994:	ea23 0302 	bic.w	r3, r3, r2
 8006998:	600b      	str	r3, [r1, #0]
 800699a:	6831      	ldr	r1, [r6, #0]
 800699c:	4822      	ldr	r0, [pc, #136]	; (8006a28 <vTaskPlaceOnEventListRestricted+0xc4>)
 800699e:	3104      	adds	r1, #4
 80069a0:	e8bd 4070 	ldmia.w	sp!, {r4, r5, r6, lr}
 80069a4:	f7fe baba 	b.w	8004f1c <vListInsertEnd>
 80069a8:	4b1d      	ldr	r3, [pc, #116]	; (8006a20 <vTaskPlaceOnEventListRestricted+0xbc>)
 80069aa:	681d      	ldr	r5, [r3, #0]
 80069ac:	6830      	ldr	r0, [r6, #0]
 80069ae:	3004      	adds	r0, #4
 80069b0:	f7fe fad8 	bl	8004f64 <uxListRemove>
 80069b4:	b310      	cbz	r0, 80069fc <vTaskPlaceOnEventListRestricted+0x98>
 80069b6:	1964      	adds	r4, r4, r5
 80069b8:	6833      	ldr	r3, [r6, #0]
 80069ba:	605c      	str	r4, [r3, #4]
 80069bc:	d216      	bcs.n	80069ec <vTaskPlaceOnEventListRestricted+0x88>
 80069be:	4b1b      	ldr	r3, [pc, #108]	; (8006a2c <vTaskPlaceOnEventListRestricted+0xc8>)
 80069c0:	6818      	ldr	r0, [r3, #0]
 80069c2:	6831      	ldr	r1, [r6, #0]
 80069c4:	3104      	adds	r1, #4
 80069c6:	f7fe fab5 	bl	8004f34 <vListInsert>
 80069ca:	4b19      	ldr	r3, [pc, #100]	; (8006a30 <vTaskPlaceOnEventListRestricted+0xcc>)
 80069cc:	681a      	ldr	r2, [r3, #0]
 80069ce:	4294      	cmp	r4, r2
 80069d0:	d200      	bcs.n	80069d4 <vTaskPlaceOnEventListRestricted+0x70>
 80069d2:	601c      	str	r4, [r3, #0]
 80069d4:	bd70      	pop	{r4, r5, r6, pc}
 80069d6:	f04f 0350 	mov.w	r3, #80	; 0x50
 80069da:	b672      	cpsid	i
 80069dc:	f383 8811 	msr	BASEPRI, r3
 80069e0:	f3bf 8f6f 	isb	sy
 80069e4:	f3bf 8f4f 	dsb	sy
 80069e8:	b662      	cpsie	i
 80069ea:	e7fe      	b.n	80069ea <vTaskPlaceOnEventListRestricted+0x86>
 80069ec:	4b11      	ldr	r3, [pc, #68]	; (8006a34 <vTaskPlaceOnEventListRestricted+0xd0>)
 80069ee:	6818      	ldr	r0, [r3, #0]
 80069f0:	6831      	ldr	r1, [r6, #0]
 80069f2:	e8bd 4070 	ldmia.w	sp!, {r4, r5, r6, lr}
 80069f6:	3104      	adds	r1, #4
 80069f8:	f7fe ba9c 	b.w	8004f34 <vListInsert>
 80069fc:	6833      	ldr	r3, [r6, #0]
 80069fe:	1964      	adds	r4, r4, r5
 8006a00:	4908      	ldr	r1, [pc, #32]	; (8006a24 <vTaskPlaceOnEventListRestricted+0xc0>)
 8006a02:	6ada      	ldr	r2, [r3, #44]	; 0x2c
 8006a04:	f04f 0301 	mov.w	r3, #1
 8006a08:	fa03 f202 	lsl.w	r2, r3, r2
 8006a0c:	680b      	ldr	r3, [r1, #0]
 8006a0e:	ea23 0302 	bic.w	r3, r3, r2
 8006a12:	600b      	str	r3, [r1, #0]
 8006a14:	6833      	ldr	r3, [r6, #0]
 8006a16:	605c      	str	r4, [r3, #4]
 8006a18:	d3d1      	bcc.n	80069be <vTaskPlaceOnEventListRestricted+0x5a>
 8006a1a:	e7e7      	b.n	80069ec <vTaskPlaceOnEventListRestricted+0x88>
 8006a1c:	200005a8 	.word	0x200005a8
 8006a20:	200006cc 	.word	0x200006cc
 8006a24:	20000654 	.word	0x20000654
 8006a28:	200006a4 	.word	0x200006a4
 8006a2c:	200005ac 	.word	0x200005ac
 8006a30:	20000684 	.word	0x20000684
 8006a34:	200005b0 	.word	0x200005b0

08006a38 <xTaskRemoveFromEventList>:
 8006a38:	b530      	push	{r4, r5, lr}
 8006a3a:	68c3      	ldr	r3, [r0, #12]
 8006a3c:	b083      	sub	sp, #12
 8006a3e:	68dc      	ldr	r4, [r3, #12]
 8006a40:	b364      	cbz	r4, 8006a9c <xTaskRemoveFromEventList+0x64>
 8006a42:	f104 0518 	add.w	r5, r4, #24
 8006a46:	4628      	mov	r0, r5
 8006a48:	f7fe fa8c 	bl	8004f64 <uxListRemove>
 8006a4c:	4b1a      	ldr	r3, [pc, #104]	; (8006ab8 <xTaskRemoveFromEventList+0x80>)
 8006a4e:	681b      	ldr	r3, [r3, #0]
 8006a50:	b17b      	cbz	r3, 8006a72 <xTaskRemoveFromEventList+0x3a>
 8006a52:	4629      	mov	r1, r5
 8006a54:	4819      	ldr	r0, [pc, #100]	; (8006abc <xTaskRemoveFromEventList+0x84>)
 8006a56:	f7fe fa61 	bl	8004f1c <vListInsertEnd>
 8006a5a:	4b19      	ldr	r3, [pc, #100]	; (8006ac0 <xTaskRemoveFromEventList+0x88>)
 8006a5c:	6ae2      	ldr	r2, [r4, #44]	; 0x2c
 8006a5e:	681b      	ldr	r3, [r3, #0]
 8006a60:	6adb      	ldr	r3, [r3, #44]	; 0x2c
 8006a62:	429a      	cmp	r2, r3
 8006a64:	d925      	bls.n	8006ab2 <xTaskRemoveFromEventList+0x7a>
 8006a66:	2301      	movs	r3, #1
 8006a68:	4a16      	ldr	r2, [pc, #88]	; (8006ac4 <xTaskRemoveFromEventList+0x8c>)
 8006a6a:	4618      	mov	r0, r3
 8006a6c:	6013      	str	r3, [r2, #0]
 8006a6e:	b003      	add	sp, #12
 8006a70:	bd30      	pop	{r4, r5, pc}
 8006a72:	1d21      	adds	r1, r4, #4
 8006a74:	4608      	mov	r0, r1
 8006a76:	9101      	str	r1, [sp, #4]
 8006a78:	f7fe fa74 	bl	8004f64 <uxListRemove>
 8006a7c:	6ae0      	ldr	r0, [r4, #44]	; 0x2c
 8006a7e:	4a12      	ldr	r2, [pc, #72]	; (8006ac8 <xTaskRemoveFromEventList+0x90>)
 8006a80:	2301      	movs	r3, #1
 8006a82:	9901      	ldr	r1, [sp, #4]
 8006a84:	6815      	ldr	r5, [r2, #0]
 8006a86:	4083      	lsls	r3, r0
 8006a88:	eb00 0080 	add.w	r0, r0, r0, lsl #2
 8006a8c:	432b      	orrs	r3, r5
 8006a8e:	6013      	str	r3, [r2, #0]
 8006a90:	4b0e      	ldr	r3, [pc, #56]	; (8006acc <xTaskRemoveFromEventList+0x94>)
 8006a92:	eb03 0080 	add.w	r0, r3, r0, lsl #2
 8006a96:	f7fe fa41 	bl	8004f1c <vListInsertEnd>
 8006a9a:	e7de      	b.n	8006a5a <xTaskRemoveFromEventList+0x22>
 8006a9c:	f04f 0350 	mov.w	r3, #80	; 0x50
 8006aa0:	b672      	cpsid	i
 8006aa2:	f383 8811 	msr	BASEPRI, r3
 8006aa6:	f3bf 8f6f 	isb	sy
 8006aaa:	f3bf 8f4f 	dsb	sy
 8006aae:	b662      	cpsie	i
 8006ab0:	e7fe      	b.n	8006ab0 <xTaskRemoveFromEventList+0x78>
 8006ab2:	2000      	movs	r0, #0
 8006ab4:	b003      	add	sp, #12
 8006ab6:	bd30      	pop	{r4, r5, pc}
 8006ab8:	2000064c 	.word	0x2000064c
 8006abc:	2000068c 	.word	0x2000068c
 8006ac0:	200005a8 	.word	0x200005a8
 8006ac4:	200006d0 	.word	0x200006d0
 8006ac8:	20000654 	.word	0x20000654
 8006acc:	200005b4 	.word	0x200005b4

08006ad0 <vTaskInternalSetTimeOutState>:
 8006ad0:	4a03      	ldr	r2, [pc, #12]	; (8006ae0 <vTaskInternalSetTimeOutState+0x10>)
 8006ad2:	4b04      	ldr	r3, [pc, #16]	; (8006ae4 <vTaskInternalSetTimeOutState+0x14>)
 8006ad4:	6812      	ldr	r2, [r2, #0]
 8006ad6:	681b      	ldr	r3, [r3, #0]
 8006ad8:	e9c0 2300 	strd	r2, r3, [r0]
 8006adc:	4770      	bx	lr
 8006ade:	bf00      	nop
 8006ae0:	20000688 	.word	0x20000688
 8006ae4:	200006cc 	.word	0x200006cc

08006ae8 <xTaskCheckForTimeOut>:
 8006ae8:	b338      	cbz	r0, 8006b3a <xTaskCheckForTimeOut+0x52>
 8006aea:	b5f0      	push	{r4, r5, r6, r7, lr}
 8006aec:	460d      	mov	r5, r1
 8006aee:	b083      	sub	sp, #12
 8006af0:	b1c1      	cbz	r1, 8006b24 <xTaskCheckForTimeOut+0x3c>
 8006af2:	4604      	mov	r4, r0
 8006af4:	f000 fc7e 	bl	80073f4 <vPortEnterCritical>
 8006af8:	682b      	ldr	r3, [r5, #0]
 8006afa:	4a1f      	ldr	r2, [pc, #124]	; (8006b78 <xTaskCheckForTimeOut+0x90>)
 8006afc:	1c58      	adds	r0, r3, #1
 8006afe:	6811      	ldr	r1, [r2, #0]
 8006b00:	d034      	beq.n	8006b6c <xTaskCheckForTimeOut+0x84>
 8006b02:	f8df c078 	ldr.w	ip, [pc, #120]	; 8006b7c <xTaskCheckForTimeOut+0x94>
 8006b06:	6826      	ldr	r6, [r4, #0]
 8006b08:	f8dc 7000 	ldr.w	r7, [ip]
 8006b0c:	6860      	ldr	r0, [r4, #4]
 8006b0e:	42be      	cmp	r6, r7
 8006b10:	d01e      	beq.n	8006b50 <xTaskCheckForTimeOut+0x68>
 8006b12:	4288      	cmp	r0, r1
 8006b14:	d81c      	bhi.n	8006b50 <xTaskCheckForTimeOut+0x68>
 8006b16:	2001      	movs	r0, #1
 8006b18:	9001      	str	r0, [sp, #4]
 8006b1a:	f000 fc91 	bl	8007440 <vPortExitCritical>
 8006b1e:	9801      	ldr	r0, [sp, #4]
 8006b20:	b003      	add	sp, #12
 8006b22:	bdf0      	pop	{r4, r5, r6, r7, pc}
 8006b24:	f04f 0350 	mov.w	r3, #80	; 0x50
 8006b28:	b672      	cpsid	i
 8006b2a:	f383 8811 	msr	BASEPRI, r3
 8006b2e:	f3bf 8f6f 	isb	sy
 8006b32:	f3bf 8f4f 	dsb	sy
 8006b36:	b662      	cpsie	i
 8006b38:	e7fe      	b.n	8006b38 <xTaskCheckForTimeOut+0x50>
 8006b3a:	f04f 0350 	mov.w	r3, #80	; 0x50
 8006b3e:	b672      	cpsid	i
 8006b40:	f383 8811 	msr	BASEPRI, r3
 8006b44:	f3bf 8f6f 	isb	sy
 8006b48:	f3bf 8f4f 	dsb	sy
 8006b4c:	b662      	cpsie	i
 8006b4e:	e7fe      	b.n	8006b4e <xTaskCheckForTimeOut+0x66>
 8006b50:	eba1 0e00 	sub.w	lr, r1, r0
 8006b54:	4573      	cmp	r3, lr
 8006b56:	d90b      	bls.n	8006b70 <xTaskCheckForTimeOut+0x88>
 8006b58:	1a5b      	subs	r3, r3, r1
 8006b5a:	f8dc 1000 	ldr.w	r1, [ip]
 8006b5e:	6812      	ldr	r2, [r2, #0]
 8006b60:	4403      	add	r3, r0
 8006b62:	2000      	movs	r0, #0
 8006b64:	602b      	str	r3, [r5, #0]
 8006b66:	e9c4 1200 	strd	r1, r2, [r4]
 8006b6a:	e7d5      	b.n	8006b18 <xTaskCheckForTimeOut+0x30>
 8006b6c:	2000      	movs	r0, #0
 8006b6e:	e7d3      	b.n	8006b18 <xTaskCheckForTimeOut+0x30>
 8006b70:	2300      	movs	r3, #0
 8006b72:	2001      	movs	r0, #1
 8006b74:	602b      	str	r3, [r5, #0]
 8006b76:	e7cf      	b.n	8006b18 <xTaskCheckForTimeOut+0x30>
 8006b78:	200006cc 	.word	0x200006cc
 8006b7c:	20000688 	.word	0x20000688

08006b80 <vTaskMissedYield>:
 8006b80:	4b01      	ldr	r3, [pc, #4]	; (8006b88 <vTaskMissedYield+0x8>)
 8006b82:	2201      	movs	r2, #1
 8006b84:	601a      	str	r2, [r3, #0]
 8006b86:	4770      	bx	lr
 8006b88:	200006d0 	.word	0x200006d0

08006b8c <xTaskGetCurrentTaskHandle>:
 8006b8c:	4b01      	ldr	r3, [pc, #4]	; (8006b94 <xTaskGetCurrentTaskHandle+0x8>)
 8006b8e:	6818      	ldr	r0, [r3, #0]
 8006b90:	4770      	bx	lr
 8006b92:	bf00      	nop
 8006b94:	200005a8 	.word	0x200005a8

08006b98 <xTaskGetSchedulerState>:
 8006b98:	4b05      	ldr	r3, [pc, #20]	; (8006bb0 <xTaskGetSchedulerState+0x18>)
 8006b9a:	681b      	ldr	r3, [r3, #0]
 8006b9c:	b133      	cbz	r3, 8006bac <xTaskGetSchedulerState+0x14>
 8006b9e:	4b05      	ldr	r3, [pc, #20]	; (8006bb4 <xTaskGetSchedulerState+0x1c>)
 8006ba0:	681b      	ldr	r3, [r3, #0]
 8006ba2:	2b00      	cmp	r3, #0
 8006ba4:	bf0c      	ite	eq
 8006ba6:	2002      	moveq	r0, #2
 8006ba8:	2000      	movne	r0, #0
 8006baa:	4770      	bx	lr
 8006bac:	2001      	movs	r0, #1
 8006bae:	4770      	bx	lr
 8006bb0:	200006a0 	.word	0x200006a0
 8006bb4:	2000064c 	.word	0x2000064c

08006bb8 <xTaskPriorityInherit>:
 8006bb8:	b570      	push	{r4, r5, r6, lr}
 8006bba:	4604      	mov	r4, r0
 8006bbc:	b082      	sub	sp, #8
 8006bbe:	b1c8      	cbz	r0, 8006bf4 <xTaskPriorityInherit+0x3c>
 8006bc0:	4d26      	ldr	r5, [pc, #152]	; (8006c5c <xTaskPriorityInherit+0xa4>)
 8006bc2:	6ac3      	ldr	r3, [r0, #44]	; 0x2c
 8006bc4:	682a      	ldr	r2, [r5, #0]
 8006bc6:	6ad2      	ldr	r2, [r2, #44]	; 0x2c
 8006bc8:	4293      	cmp	r3, r2
 8006bca:	d215      	bcs.n	8006bf8 <xTaskPriorityInherit+0x40>
 8006bcc:	6982      	ldr	r2, [r0, #24]
 8006bce:	2a00      	cmp	r2, #0
 8006bd0:	db04      	blt.n	8006bdc <xTaskPriorityInherit+0x24>
 8006bd2:	682a      	ldr	r2, [r5, #0]
 8006bd4:	6ad2      	ldr	r2, [r2, #44]	; 0x2c
 8006bd6:	f1c2 0207 	rsb	r2, r2, #7
 8006bda:	6182      	str	r2, [r0, #24]
 8006bdc:	4e20      	ldr	r6, [pc, #128]	; (8006c60 <xTaskPriorityInherit+0xa8>)
 8006bde:	eb03 0383 	add.w	r3, r3, r3, lsl #2
 8006be2:	6962      	ldr	r2, [r4, #20]
 8006be4:	eb06 0383 	add.w	r3, r6, r3, lsl #2
 8006be8:	429a      	cmp	r2, r3
 8006bea:	d00e      	beq.n	8006c0a <xTaskPriorityInherit+0x52>
 8006bec:	682b      	ldr	r3, [r5, #0]
 8006bee:	2001      	movs	r0, #1
 8006bf0:	6adb      	ldr	r3, [r3, #44]	; 0x2c
 8006bf2:	62e3      	str	r3, [r4, #44]	; 0x2c
 8006bf4:	b002      	add	sp, #8
 8006bf6:	bd70      	pop	{r4, r5, r6, pc}
 8006bf8:	682b      	ldr	r3, [r5, #0]
 8006bfa:	6f40      	ldr	r0, [r0, #116]	; 0x74
 8006bfc:	6adb      	ldr	r3, [r3, #44]	; 0x2c
 8006bfe:	4298      	cmp	r0, r3
 8006c00:	bf2c      	ite	cs
 8006c02:	2000      	movcs	r0, #0
 8006c04:	2001      	movcc	r0, #1
 8006c06:	b002      	add	sp, #8
 8006c08:	bd70      	pop	{r4, r5, r6, pc}
 8006c0a:	1d21      	adds	r1, r4, #4
 8006c0c:	4608      	mov	r0, r1
 8006c0e:	9101      	str	r1, [sp, #4]
 8006c10:	f7fe f9a8 	bl	8004f64 <uxListRemove>
 8006c14:	9901      	ldr	r1, [sp, #4]
 8006c16:	b970      	cbnz	r0, 8006c36 <xTaskPriorityInherit+0x7e>
 8006c18:	6ae0      	ldr	r0, [r4, #44]	; 0x2c
 8006c1a:	4a12      	ldr	r2, [pc, #72]	; (8006c64 <xTaskPriorityInherit+0xac>)
 8006c1c:	eb00 0380 	add.w	r3, r0, r0, lsl #2
 8006c20:	009b      	lsls	r3, r3, #2
 8006c22:	58f3      	ldr	r3, [r6, r3]
 8006c24:	b943      	cbnz	r3, 8006c38 <xTaskPriorityInherit+0x80>
 8006c26:	2301      	movs	r3, #1
 8006c28:	fa03 f000 	lsl.w	r0, r3, r0
 8006c2c:	6813      	ldr	r3, [r2, #0]
 8006c2e:	ea23 0300 	bic.w	r3, r3, r0
 8006c32:	6013      	str	r3, [r2, #0]
 8006c34:	e000      	b.n	8006c38 <xTaskPriorityInherit+0x80>
 8006c36:	4a0b      	ldr	r2, [pc, #44]	; (8006c64 <xTaskPriorityInherit+0xac>)
 8006c38:	682b      	ldr	r3, [r5, #0]
 8006c3a:	6815      	ldr	r5, [r2, #0]
 8006c3c:	6adb      	ldr	r3, [r3, #44]	; 0x2c
 8006c3e:	62e3      	str	r3, [r4, #44]	; 0x2c
 8006c40:	2401      	movs	r4, #1
 8006c42:	eb03 0083 	add.w	r0, r3, r3, lsl #2
 8006c46:	fa04 f303 	lsl.w	r3, r4, r3
 8006c4a:	eb06 0080 	add.w	r0, r6, r0, lsl #2
 8006c4e:	432b      	orrs	r3, r5
 8006c50:	6013      	str	r3, [r2, #0]
 8006c52:	f7fe f963 	bl	8004f1c <vListInsertEnd>
 8006c56:	4620      	mov	r0, r4
 8006c58:	e7cc      	b.n	8006bf4 <xTaskPriorityInherit+0x3c>
 8006c5a:	bf00      	nop
 8006c5c:	200005a8 	.word	0x200005a8
 8006c60:	200005b4 	.word	0x200005b4
 8006c64:	20000654 	.word	0x20000654

08006c68 <xTaskPriorityDisinherit>:
 8006c68:	b340      	cbz	r0, 8006cbc <xTaskPriorityDisinherit+0x54>
 8006c6a:	4b2c      	ldr	r3, [pc, #176]	; (8006d1c <xTaskPriorityDisinherit+0xb4>)
 8006c6c:	b5f0      	push	{r4, r5, r6, r7, lr}
 8006c6e:	681b      	ldr	r3, [r3, #0]
 8006c70:	b083      	sub	sp, #12
 8006c72:	4604      	mov	r4, r0
 8006c74:	4283      	cmp	r3, r0
 8006c76:	d00a      	beq.n	8006c8e <xTaskPriorityDisinherit+0x26>
 8006c78:	f04f 0350 	mov.w	r3, #80	; 0x50
 8006c7c:	b672      	cpsid	i
 8006c7e:	f383 8811 	msr	BASEPRI, r3
 8006c82:	f3bf 8f6f 	isb	sy
 8006c86:	f3bf 8f4f 	dsb	sy
 8006c8a:	b662      	cpsie	i
 8006c8c:	e7fe      	b.n	8006c8c <xTaskPriorityDisinherit+0x24>
 8006c8e:	6f9b      	ldr	r3, [r3, #120]	; 0x78
 8006c90:	b14b      	cbz	r3, 8006ca6 <xTaskPriorityDisinherit+0x3e>
 8006c92:	6ac1      	ldr	r1, [r0, #44]	; 0x2c
 8006c94:	3b01      	subs	r3, #1
 8006c96:	6f42      	ldr	r2, [r0, #116]	; 0x74
 8006c98:	6783      	str	r3, [r0, #120]	; 0x78
 8006c9a:	4291      	cmp	r1, r2
 8006c9c:	d000      	beq.n	8006ca0 <xTaskPriorityDisinherit+0x38>
 8006c9e:	b17b      	cbz	r3, 8006cc0 <xTaskPriorityDisinherit+0x58>
 8006ca0:	2000      	movs	r0, #0
 8006ca2:	b003      	add	sp, #12
 8006ca4:	bdf0      	pop	{r4, r5, r6, r7, pc}
 8006ca6:	f04f 0350 	mov.w	r3, #80	; 0x50
 8006caa:	b672      	cpsid	i
 8006cac:	f383 8811 	msr	BASEPRI, r3
 8006cb0:	f3bf 8f6f 	isb	sy
 8006cb4:	f3bf 8f4f 	dsb	sy
 8006cb8:	b662      	cpsie	i
 8006cba:	e7fe      	b.n	8006cba <xTaskPriorityDisinherit+0x52>
 8006cbc:	2000      	movs	r0, #0
 8006cbe:	4770      	bx	lr
 8006cc0:	1d01      	adds	r1, r0, #4
 8006cc2:	4608      	mov	r0, r1
 8006cc4:	9101      	str	r1, [sp, #4]
 8006cc6:	f7fe f94d 	bl	8004f64 <uxListRemove>
 8006cca:	9901      	ldr	r1, [sp, #4]
 8006ccc:	b1a0      	cbz	r0, 8006cf8 <xTaskPriorityDisinherit+0x90>
 8006cce:	4814      	ldr	r0, [pc, #80]	; (8006d20 <xTaskPriorityDisinherit+0xb8>)
 8006cd0:	4a14      	ldr	r2, [pc, #80]	; (8006d24 <xTaskPriorityDisinherit+0xbc>)
 8006cd2:	6f63      	ldr	r3, [r4, #116]	; 0x74
 8006cd4:	2501      	movs	r5, #1
 8006cd6:	6816      	ldr	r6, [r2, #0]
 8006cd8:	f1c3 0707 	rsb	r7, r3, #7
 8006cdc:	62e3      	str	r3, [r4, #44]	; 0x2c
 8006cde:	61a7      	str	r7, [r4, #24]
 8006ce0:	fa05 f403 	lsl.w	r4, r5, r3
 8006ce4:	eb03 0383 	add.w	r3, r3, r3, lsl #2
 8006ce8:	4334      	orrs	r4, r6
 8006cea:	eb00 0083 	add.w	r0, r0, r3, lsl #2
 8006cee:	6014      	str	r4, [r2, #0]
 8006cf0:	f7fe f914 	bl	8004f1c <vListInsertEnd>
 8006cf4:	4628      	mov	r0, r5
 8006cf6:	e7d4      	b.n	8006ca2 <xTaskPriorityDisinherit+0x3a>
 8006cf8:	6ae5      	ldr	r5, [r4, #44]	; 0x2c
 8006cfa:	4809      	ldr	r0, [pc, #36]	; (8006d20 <xTaskPriorityDisinherit+0xb8>)
 8006cfc:	eb05 0385 	add.w	r3, r5, r5, lsl #2
 8006d00:	4a08      	ldr	r2, [pc, #32]	; (8006d24 <xTaskPriorityDisinherit+0xbc>)
 8006d02:	009b      	lsls	r3, r3, #2
 8006d04:	58c3      	ldr	r3, [r0, r3]
 8006d06:	2b00      	cmp	r3, #0
 8006d08:	d1e3      	bne.n	8006cd2 <xTaskPriorityDisinherit+0x6a>
 8006d0a:	2301      	movs	r3, #1
 8006d0c:	fa03 f505 	lsl.w	r5, r3, r5
 8006d10:	6813      	ldr	r3, [r2, #0]
 8006d12:	ea23 0305 	bic.w	r3, r3, r5
 8006d16:	6013      	str	r3, [r2, #0]
 8006d18:	e7db      	b.n	8006cd2 <xTaskPriorityDisinherit+0x6a>
 8006d1a:	bf00      	nop
 8006d1c:	200005a8 	.word	0x200005a8
 8006d20:	200005b4 	.word	0x200005b4
 8006d24:	20000654 	.word	0x20000654

08006d28 <vTaskPriorityDisinheritAfterTimeout>:
 8006d28:	2800      	cmp	r0, #0
 8006d2a:	d044      	beq.n	8006db6 <vTaskPriorityDisinheritAfterTimeout+0x8e>
 8006d2c:	b530      	push	{r4, r5, lr}
 8006d2e:	6f83      	ldr	r3, [r0, #120]	; 0x78
 8006d30:	b083      	sub	sp, #12
 8006d32:	4604      	mov	r4, r0
 8006d34:	b153      	cbz	r3, 8006d4c <vTaskPriorityDisinheritAfterTimeout+0x24>
 8006d36:	6f40      	ldr	r0, [r0, #116]	; 0x74
 8006d38:	6ae2      	ldr	r2, [r4, #44]	; 0x2c
 8006d3a:	4281      	cmp	r1, r0
 8006d3c:	bf38      	it	cc
 8006d3e:	4601      	movcc	r1, r0
 8006d40:	428a      	cmp	r2, r1
 8006d42:	d001      	beq.n	8006d48 <vTaskPriorityDisinheritAfterTimeout+0x20>
 8006d44:	2b01      	cmp	r3, #1
 8006d46:	d00c      	beq.n	8006d62 <vTaskPriorityDisinheritAfterTimeout+0x3a>
 8006d48:	b003      	add	sp, #12
 8006d4a:	bd30      	pop	{r4, r5, pc}
 8006d4c:	f04f 0350 	mov.w	r3, #80	; 0x50
 8006d50:	b672      	cpsid	i
 8006d52:	f383 8811 	msr	BASEPRI, r3
 8006d56:	f3bf 8f6f 	isb	sy
 8006d5a:	f3bf 8f4f 	dsb	sy
 8006d5e:	b662      	cpsie	i
 8006d60:	e7fe      	b.n	8006d60 <vTaskPriorityDisinheritAfterTimeout+0x38>
 8006d62:	4b25      	ldr	r3, [pc, #148]	; (8006df8 <vTaskPriorityDisinheritAfterTimeout+0xd0>)
 8006d64:	681b      	ldr	r3, [r3, #0]
 8006d66:	42a3      	cmp	r3, r4
 8006d68:	d026      	beq.n	8006db8 <vTaskPriorityDisinheritAfterTimeout+0x90>
 8006d6a:	69a3      	ldr	r3, [r4, #24]
 8006d6c:	62e1      	str	r1, [r4, #44]	; 0x2c
 8006d6e:	2b00      	cmp	r3, #0
 8006d70:	db02      	blt.n	8006d78 <vTaskPriorityDisinheritAfterTimeout+0x50>
 8006d72:	f1c1 0107 	rsb	r1, r1, #7
 8006d76:	61a1      	str	r1, [r4, #24]
 8006d78:	4d20      	ldr	r5, [pc, #128]	; (8006dfc <vTaskPriorityDisinheritAfterTimeout+0xd4>)
 8006d7a:	eb02 0282 	add.w	r2, r2, r2, lsl #2
 8006d7e:	6961      	ldr	r1, [r4, #20]
 8006d80:	eb05 0382 	add.w	r3, r5, r2, lsl #2
 8006d84:	4299      	cmp	r1, r3
 8006d86:	d1df      	bne.n	8006d48 <vTaskPriorityDisinheritAfterTimeout+0x20>
 8006d88:	1d21      	adds	r1, r4, #4
 8006d8a:	4608      	mov	r0, r1
 8006d8c:	9101      	str	r1, [sp, #4]
 8006d8e:	f7fe f8e9 	bl	8004f64 <uxListRemove>
 8006d92:	9901      	ldr	r1, [sp, #4]
 8006d94:	6ae2      	ldr	r2, [r4, #44]	; 0x2c
 8006d96:	b1d0      	cbz	r0, 8006dce <vTaskPriorityDisinheritAfterTimeout+0xa6>
 8006d98:	2301      	movs	r3, #1
 8006d9a:	0090      	lsls	r0, r2, #2
 8006d9c:	4c18      	ldr	r4, [pc, #96]	; (8006e00 <vTaskPriorityDisinheritAfterTimeout+0xd8>)
 8006d9e:	4093      	lsls	r3, r2
 8006da0:	4410      	add	r0, r2
 8006da2:	6822      	ldr	r2, [r4, #0]
 8006da4:	eb05 0080 	add.w	r0, r5, r0, lsl #2
 8006da8:	4313      	orrs	r3, r2
 8006daa:	6023      	str	r3, [r4, #0]
 8006dac:	b003      	add	sp, #12
 8006dae:	e8bd 4030 	ldmia.w	sp!, {r4, r5, lr}
 8006db2:	f7fe b8b3 	b.w	8004f1c <vListInsertEnd>
 8006db6:	4770      	bx	lr
 8006db8:	f04f 0350 	mov.w	r3, #80	; 0x50
 8006dbc:	b672      	cpsid	i
 8006dbe:	f383 8811 	msr	BASEPRI, r3
 8006dc2:	f3bf 8f6f 	isb	sy
 8006dc6:	f3bf 8f4f 	dsb	sy
 8006dca:	b662      	cpsie	i
 8006dcc:	e7fe      	b.n	8006dcc <vTaskPriorityDisinheritAfterTimeout+0xa4>
 8006dce:	eb02 0382 	add.w	r3, r2, r2, lsl #2
 8006dd2:	0090      	lsls	r0, r2, #2
 8006dd4:	009b      	lsls	r3, r3, #2
 8006dd6:	58eb      	ldr	r3, [r5, r3]
 8006dd8:	b11b      	cbz	r3, 8006de2 <vTaskPriorityDisinheritAfterTimeout+0xba>
 8006dda:	2301      	movs	r3, #1
 8006ddc:	4c08      	ldr	r4, [pc, #32]	; (8006e00 <vTaskPriorityDisinheritAfterTimeout+0xd8>)
 8006dde:	4093      	lsls	r3, r2
 8006de0:	e7de      	b.n	8006da0 <vTaskPriorityDisinheritAfterTimeout+0x78>
 8006de2:	4c07      	ldr	r4, [pc, #28]	; (8006e00 <vTaskPriorityDisinheritAfterTimeout+0xd8>)
 8006de4:	2301      	movs	r3, #1
 8006de6:	f8d4 c000 	ldr.w	ip, [r4]
 8006dea:	4093      	lsls	r3, r2
 8006dec:	ea2c 0c03 	bic.w	ip, ip, r3
 8006df0:	f8c4 c000 	str.w	ip, [r4]
 8006df4:	e7d4      	b.n	8006da0 <vTaskPriorityDisinheritAfterTimeout+0x78>
 8006df6:	bf00      	nop
 8006df8:	200005a8 	.word	0x200005a8
 8006dfc:	200005b4 	.word	0x200005b4
 8006e00:	20000654 	.word	0x20000654

08006e04 <pvTaskIncrementMutexHeldCount>:
 8006e04:	4b04      	ldr	r3, [pc, #16]	; (8006e18 <pvTaskIncrementMutexHeldCount+0x14>)
 8006e06:	681a      	ldr	r2, [r3, #0]
 8006e08:	b11a      	cbz	r2, 8006e12 <pvTaskIncrementMutexHeldCount+0xe>
 8006e0a:	6819      	ldr	r1, [r3, #0]
 8006e0c:	6f8a      	ldr	r2, [r1, #120]	; 0x78
 8006e0e:	3201      	adds	r2, #1
 8006e10:	678a      	str	r2, [r1, #120]	; 0x78
 8006e12:	6818      	ldr	r0, [r3, #0]
 8006e14:	4770      	bx	lr
 8006e16:	bf00      	nop
 8006e18:	200005a8 	.word	0x200005a8

08006e1c <prvSwitchTimerLists>:
 8006e1c:	e92d 43f0 	stmdb	sp!, {r4, r5, r6, r7, r8, r9, lr}
 8006e20:	4e23      	ldr	r6, [pc, #140]	; (8006eb0 <prvSwitchTimerLists+0x94>)
 8006e22:	b085      	sub	sp, #20
 8006e24:	f8df 9090 	ldr.w	r9, [pc, #144]	; 8006eb8 <prvSwitchTimerLists+0x9c>
 8006e28:	f04f 0800 	mov.w	r8, #0
 8006e2c:	e00d      	b.n	8006e4a <prvSwitchTimerLists+0x2e>
 8006e2e:	68db      	ldr	r3, [r3, #12]
 8006e30:	68dc      	ldr	r4, [r3, #12]
 8006e32:	681f      	ldr	r7, [r3, #0]
 8006e34:	1d25      	adds	r5, r4, #4
 8006e36:	4628      	mov	r0, r5
 8006e38:	f7fe f894 	bl	8004f64 <uxListRemove>
 8006e3c:	6a23      	ldr	r3, [r4, #32]
 8006e3e:	4620      	mov	r0, r4
 8006e40:	4798      	blx	r3
 8006e42:	f894 3024 	ldrb.w	r3, [r4, #36]	; 0x24
 8006e46:	075b      	lsls	r3, r3, #29
 8006e48:	d40a      	bmi.n	8006e60 <prvSwitchTimerLists+0x44>
 8006e4a:	6833      	ldr	r3, [r6, #0]
 8006e4c:	681a      	ldr	r2, [r3, #0]
 8006e4e:	2a00      	cmp	r2, #0
 8006e50:	d1ed      	bne.n	8006e2e <prvSwitchTimerLists+0x12>
 8006e52:	4a18      	ldr	r2, [pc, #96]	; (8006eb4 <prvSwitchTimerLists+0x98>)
 8006e54:	6811      	ldr	r1, [r2, #0]
 8006e56:	6013      	str	r3, [r2, #0]
 8006e58:	6031      	str	r1, [r6, #0]
 8006e5a:	b005      	add	sp, #20
 8006e5c:	e8bd 83f0 	ldmia.w	sp!, {r4, r5, r6, r7, r8, r9, pc}
 8006e60:	69a3      	ldr	r3, [r4, #24]
 8006e62:	4629      	mov	r1, r5
 8006e64:	443b      	add	r3, r7
 8006e66:	429f      	cmp	r7, r3
 8006e68:	d205      	bcs.n	8006e76 <prvSwitchTimerLists+0x5a>
 8006e6a:	6830      	ldr	r0, [r6, #0]
 8006e6c:	6063      	str	r3, [r4, #4]
 8006e6e:	6124      	str	r4, [r4, #16]
 8006e70:	f7fe f860 	bl	8004f34 <vListInsert>
 8006e74:	e7e9      	b.n	8006e4a <prvSwitchTimerLists+0x2e>
 8006e76:	f8d9 3000 	ldr.w	r3, [r9]
 8006e7a:	b16b      	cbz	r3, 8006e98 <prvSwitchTimerLists+0x7c>
 8006e7c:	9403      	str	r4, [sp, #12]
 8006e7e:	e9cd 8701 	strd	r8, r7, [sp, #4]
 8006e82:	f7ff fe89 	bl	8006b98 <xTaskGetSchedulerState>
 8006e86:	2300      	movs	r3, #0
 8006e88:	a901      	add	r1, sp, #4
 8006e8a:	f8d9 0000 	ldr.w	r0, [r9]
 8006e8e:	461a      	mov	r2, r3
 8006e90:	f7fe f904 	bl	800509c <xQueueGenericSend>
 8006e94:	2800      	cmp	r0, #0
 8006e96:	d1d8      	bne.n	8006e4a <prvSwitchTimerLists+0x2e>
 8006e98:	f04f 0350 	mov.w	r3, #80	; 0x50
 8006e9c:	b672      	cpsid	i
 8006e9e:	f383 8811 	msr	BASEPRI, r3
 8006ea2:	f3bf 8f6f 	isb	sy
 8006ea6:	f3bf 8f4f 	dsb	sy
 8006eaa:	b662      	cpsie	i
 8006eac:	e7fe      	b.n	8006eac <prvSwitchTimerLists+0x90>
 8006eae:	bf00      	nop
 8006eb0:	200006d4 	.word	0x200006d4
 8006eb4:	200006d8 	.word	0x200006d8
 8006eb8:	20000708 	.word	0x20000708

08006ebc <prvTimerTask>:
 8006ebc:	e92d 4ff0 	stmdb	sp!, {r4, r5, r6, r7, r8, r9, sl, fp, lr}
 8006ec0:	4e9c      	ldr	r6, [pc, #624]	; (8007134 <prvTimerTask+0x278>)
 8006ec2:	b087      	sub	sp, #28
 8006ec4:	4d9c      	ldr	r5, [pc, #624]	; (8007138 <prvTimerTask+0x27c>)
 8006ec6:	f04f 29e0 	mov.w	r9, #3758153728	; 0xe000e000
 8006eca:	4c9c      	ldr	r4, [pc, #624]	; (800713c <prvTimerTask+0x280>)
 8006ecc:	6833      	ldr	r3, [r6, #0]
 8006ece:	681f      	ldr	r7, [r3, #0]
 8006ed0:	2f00      	cmp	r7, #0
 8006ed2:	f000 80a9 	beq.w	8007028 <prvTimerTask+0x16c>
 8006ed6:	68db      	ldr	r3, [r3, #12]
 8006ed8:	681f      	ldr	r7, [r3, #0]
 8006eda:	f7ff faa7 	bl	800642c <vTaskSuspendAll>
 8006ede:	f7ff faad 	bl	800643c <xTaskGetTickCount>
 8006ee2:	682a      	ldr	r2, [r5, #0]
 8006ee4:	4682      	mov	sl, r0
 8006ee6:	4290      	cmp	r0, r2
 8006ee8:	f0c0 80a6 	bcc.w	8007038 <prvTimerTask+0x17c>
 8006eec:	4287      	cmp	r7, r0
 8006eee:	6028      	str	r0, [r5, #0]
 8006ef0:	f200 80c7 	bhi.w	8007082 <prvTimerTask+0x1c6>
 8006ef4:	f7ff fc02 	bl	80066fc <xTaskResumeAll>
 8006ef8:	6832      	ldr	r2, [r6, #0]
 8006efa:	68d2      	ldr	r2, [r2, #12]
 8006efc:	f8d2 b00c 	ldr.w	fp, [r2, #12]
 8006f00:	f10b 0804 	add.w	r8, fp, #4
 8006f04:	4640      	mov	r0, r8
 8006f06:	f7fe f82d 	bl	8004f64 <uxListRemove>
 8006f0a:	f89b 0024 	ldrb.w	r0, [fp, #36]	; 0x24
 8006f0e:	0741      	lsls	r1, r0, #29
 8006f10:	f100 80c6 	bmi.w	80070a0 <prvTimerTask+0x1e4>
 8006f14:	f020 0001 	bic.w	r0, r0, #1
 8006f18:	f88b 0024 	strb.w	r0, [fp, #36]	; 0x24
 8006f1c:	f8db 3020 	ldr.w	r3, [fp, #32]
 8006f20:	4658      	mov	r0, fp
 8006f22:	4798      	blx	r3
 8006f24:	2200      	movs	r2, #0
 8006f26:	4669      	mov	r1, sp
 8006f28:	6820      	ldr	r0, [r4, #0]
 8006f2a:	f7fe fb47 	bl	80055bc <xQueueReceive>
 8006f2e:	2800      	cmp	r0, #0
 8006f30:	d0cc      	beq.n	8006ecc <prvTimerTask+0x10>
 8006f32:	9b00      	ldr	r3, [sp, #0]
 8006f34:	2b00      	cmp	r3, #0
 8006f36:	dbf5      	blt.n	8006f24 <prvTimerTask+0x68>
 8006f38:	9f02      	ldr	r7, [sp, #8]
 8006f3a:	697b      	ldr	r3, [r7, #20]
 8006f3c:	b113      	cbz	r3, 8006f44 <prvTimerTask+0x88>
 8006f3e:	1d38      	adds	r0, r7, #4
 8006f40:	f7fe f810 	bl	8004f64 <uxListRemove>
 8006f44:	f7ff fa7a 	bl	800643c <xTaskGetTickCount>
 8006f48:	682b      	ldr	r3, [r5, #0]
 8006f4a:	4680      	mov	r8, r0
 8006f4c:	4298      	cmp	r0, r3
 8006f4e:	d37a      	bcc.n	8007046 <prvTimerTask+0x18a>
 8006f50:	9b00      	ldr	r3, [sp, #0]
 8006f52:	f8c5 8000 	str.w	r8, [r5]
 8006f56:	2b09      	cmp	r3, #9
 8006f58:	d8e4      	bhi.n	8006f24 <prvTimerTask+0x68>
 8006f5a:	e8df f003 	tbb	[pc, r3]
 8006f5e:	0505      	.short	0x0505
 8006f60:	5c3f5505 	.word	0x5c3f5505
 8006f64:	3f550505 	.word	0x3f550505
 8006f68:	f897 3024 	ldrb.w	r3, [r7, #36]	; 0x24
 8006f6c:	69ba      	ldr	r2, [r7, #24]
 8006f6e:	f043 0301 	orr.w	r3, r3, #1
 8006f72:	613f      	str	r7, [r7, #16]
 8006f74:	f887 3024 	strb.w	r3, [r7, #36]	; 0x24
 8006f78:	9b01      	ldr	r3, [sp, #4]
 8006f7a:	1899      	adds	r1, r3, r2
 8006f7c:	bf2c      	ite	cs
 8006f7e:	2001      	movcs	r0, #1
 8006f80:	2000      	movcc	r0, #0
 8006f82:	4541      	cmp	r1, r8
 8006f84:	6079      	str	r1, [r7, #4]
 8006f86:	d87e      	bhi.n	8007086 <prvTimerTask+0x1ca>
 8006f88:	eba8 0303 	sub.w	r3, r8, r3
 8006f8c:	429a      	cmp	r2, r3
 8006f8e:	f200 80ba 	bhi.w	8007106 <prvTimerTask+0x24a>
 8006f92:	6a3b      	ldr	r3, [r7, #32]
 8006f94:	4638      	mov	r0, r7
 8006f96:	4798      	blx	r3
 8006f98:	f897 3024 	ldrb.w	r3, [r7, #36]	; 0x24
 8006f9c:	075b      	lsls	r3, r3, #29
 8006f9e:	d5c1      	bpl.n	8006f24 <prvTimerTask+0x68>
 8006fa0:	6823      	ldr	r3, [r4, #0]
 8006fa2:	b183      	cbz	r3, 8006fc6 <prvTimerTask+0x10a>
 8006fa4:	2200      	movs	r2, #0
 8006fa6:	69bb      	ldr	r3, [r7, #24]
 8006fa8:	9705      	str	r7, [sp, #20]
 8006faa:	9203      	str	r2, [sp, #12]
 8006fac:	9a01      	ldr	r2, [sp, #4]
 8006fae:	4413      	add	r3, r2
 8006fb0:	9304      	str	r3, [sp, #16]
 8006fb2:	f7ff fdf1 	bl	8006b98 <xTaskGetSchedulerState>
 8006fb6:	2300      	movs	r3, #0
 8006fb8:	a903      	add	r1, sp, #12
 8006fba:	6820      	ldr	r0, [r4, #0]
 8006fbc:	461a      	mov	r2, r3
 8006fbe:	f7fe f86d 	bl	800509c <xQueueGenericSend>
 8006fc2:	2800      	cmp	r0, #0
 8006fc4:	d1ae      	bne.n	8006f24 <prvTimerTask+0x68>
 8006fc6:	f04f 0350 	mov.w	r3, #80	; 0x50
 8006fca:	b672      	cpsid	i
 8006fcc:	f383 8811 	msr	BASEPRI, r3
 8006fd0:	f3bf 8f6f 	isb	sy
 8006fd4:	f3bf 8f4f 	dsb	sy
 8006fd8:	b662      	cpsie	i
 8006fda:	e7fe      	b.n	8006fda <prvTimerTask+0x11e>
 8006fdc:	f897 3024 	ldrb.w	r3, [r7, #36]	; 0x24
 8006fe0:	f043 0301 	orr.w	r3, r3, #1
 8006fe4:	f887 3024 	strb.w	r3, [r7, #36]	; 0x24
 8006fe8:	9b01      	ldr	r3, [sp, #4]
 8006fea:	61bb      	str	r3, [r7, #24]
 8006fec:	2b00      	cmp	r3, #0
 8006fee:	f000 8096 	beq.w	800711e <prvTimerTask+0x262>
 8006ff2:	4443      	add	r3, r8
 8006ff4:	1d39      	adds	r1, r7, #4
 8006ff6:	613f      	str	r7, [r7, #16]
 8006ff8:	4543      	cmp	r3, r8
 8006ffa:	607b      	str	r3, [r7, #4]
 8006ffc:	d84c      	bhi.n	8007098 <prvTimerTask+0x1dc>
 8006ffe:	4b50      	ldr	r3, [pc, #320]	; (8007140 <prvTimerTask+0x284>)
 8007000:	6818      	ldr	r0, [r3, #0]
 8007002:	f7fd ff97 	bl	8004f34 <vListInsert>
 8007006:	e78d      	b.n	8006f24 <prvTimerTask+0x68>
 8007008:	f897 3024 	ldrb.w	r3, [r7, #36]	; 0x24
 800700c:	f023 0301 	bic.w	r3, r3, #1
 8007010:	f887 3024 	strb.w	r3, [r7, #36]	; 0x24
 8007014:	e786      	b.n	8006f24 <prvTimerTask+0x68>
 8007016:	f897 3024 	ldrb.w	r3, [r7, #36]	; 0x24
 800701a:	079a      	lsls	r2, r3, #30
 800701c:	d56a      	bpl.n	80070f4 <prvTimerTask+0x238>
 800701e:	f023 0301 	bic.w	r3, r3, #1
 8007022:	f887 3024 	strb.w	r3, [r7, #36]	; 0x24
 8007026:	e77d      	b.n	8006f24 <prvTimerTask+0x68>
 8007028:	f7ff fa00 	bl	800642c <vTaskSuspendAll>
 800702c:	f7ff fa06 	bl	800643c <xTaskGetTickCount>
 8007030:	682a      	ldr	r2, [r5, #0]
 8007032:	4682      	mov	sl, r0
 8007034:	4290      	cmp	r0, r2
 8007036:	d209      	bcs.n	800704c <prvTimerTask+0x190>
 8007038:	f7ff fef0 	bl	8006e1c <prvSwitchTimerLists>
 800703c:	f8c5 a000 	str.w	sl, [r5]
 8007040:	f7ff fb5c 	bl	80066fc <xTaskResumeAll>
 8007044:	e76e      	b.n	8006f24 <prvTimerTask+0x68>
 8007046:	f7ff fee9 	bl	8006e1c <prvSwitchTimerLists>
 800704a:	e781      	b.n	8006f50 <prvTimerTask+0x94>
 800704c:	4b3c      	ldr	r3, [pc, #240]	; (8007140 <prvTimerTask+0x284>)
 800704e:	f8c5 a000 	str.w	sl, [r5]
 8007052:	681a      	ldr	r2, [r3, #0]
 8007054:	6812      	ldr	r2, [r2, #0]
 8007056:	fab2 f282 	clz	r2, r2
 800705a:	0952      	lsrs	r2, r2, #5
 800705c:	eba7 010a 	sub.w	r1, r7, sl
 8007060:	6820      	ldr	r0, [r4, #0]
 8007062:	f7fe fe9b 	bl	8005d9c <vQueueWaitForMessageRestricted>
 8007066:	f7ff fb49 	bl	80066fc <xTaskResumeAll>
 800706a:	2800      	cmp	r0, #0
 800706c:	f47f af5a 	bne.w	8006f24 <prvTimerTask+0x68>
 8007070:	f04f 5380 	mov.w	r3, #268435456	; 0x10000000
 8007074:	f8c9 3d04 	str.w	r3, [r9, #3332]	; 0xd04
 8007078:	f3bf 8f4f 	dsb	sy
 800707c:	f3bf 8f6f 	isb	sy
 8007080:	e750      	b.n	8006f24 <prvTimerTask+0x68>
 8007082:	2200      	movs	r2, #0
 8007084:	e7ea      	b.n	800705c <prvTimerTask+0x1a0>
 8007086:	4543      	cmp	r3, r8
 8007088:	d901      	bls.n	800708e <prvTimerTask+0x1d2>
 800708a:	2800      	cmp	r0, #0
 800708c:	d081      	beq.n	8006f92 <prvTimerTask+0xd6>
 800708e:	1d39      	adds	r1, r7, #4
 8007090:	6830      	ldr	r0, [r6, #0]
 8007092:	f7fd ff4f 	bl	8004f34 <vListInsert>
 8007096:	e745      	b.n	8006f24 <prvTimerTask+0x68>
 8007098:	6830      	ldr	r0, [r6, #0]
 800709a:	f7fd ff4b 	bl	8004f34 <vListInsert>
 800709e:	e741      	b.n	8006f24 <prvTimerTask+0x68>
 80070a0:	f8db 2018 	ldr.w	r2, [fp, #24]
 80070a4:	f8cb b010 	str.w	fp, [fp, #16]
 80070a8:	18b8      	adds	r0, r7, r2
 80070aa:	4582      	cmp	sl, r0
 80070ac:	f8cb 0004 	str.w	r0, [fp, #4]
 80070b0:	d324      	bcc.n	80070fc <prvTimerTask+0x240>
 80070b2:	ebaa 0307 	sub.w	r3, sl, r7
 80070b6:	429a      	cmp	r2, r3
 80070b8:	d82b      	bhi.n	8007112 <prvTimerTask+0x256>
 80070ba:	6823      	ldr	r3, [r4, #0]
 80070bc:	b17b      	cbz	r3, 80070de <prvTimerTask+0x222>
 80070be:	2300      	movs	r3, #0
 80070c0:	9704      	str	r7, [sp, #16]
 80070c2:	f8cd b014 	str.w	fp, [sp, #20]
 80070c6:	9303      	str	r3, [sp, #12]
 80070c8:	f7ff fd66 	bl	8006b98 <xTaskGetSchedulerState>
 80070cc:	2300      	movs	r3, #0
 80070ce:	a903      	add	r1, sp, #12
 80070d0:	6820      	ldr	r0, [r4, #0]
 80070d2:	461a      	mov	r2, r3
 80070d4:	f7fd ffe2 	bl	800509c <xQueueGenericSend>
 80070d8:	2800      	cmp	r0, #0
 80070da:	f47f af1f 	bne.w	8006f1c <prvTimerTask+0x60>
 80070de:	f04f 0350 	mov.w	r3, #80	; 0x50
 80070e2:	b672      	cpsid	i
 80070e4:	f383 8811 	msr	BASEPRI, r3
 80070e8:	f3bf 8f6f 	isb	sy
 80070ec:	f3bf 8f4f 	dsb	sy
 80070f0:	b662      	cpsie	i
 80070f2:	e7fe      	b.n	80070f2 <prvTimerTask+0x236>
 80070f4:	4638      	mov	r0, r7
 80070f6:	f000 fb89 	bl	800780c <vPortFree>
 80070fa:	e713      	b.n	8006f24 <prvTimerTask+0x68>
 80070fc:	4641      	mov	r1, r8
 80070fe:	6830      	ldr	r0, [r6, #0]
 8007100:	f7fd ff18 	bl	8004f34 <vListInsert>
 8007104:	e70a      	b.n	8006f1c <prvTimerTask+0x60>
 8007106:	4b0e      	ldr	r3, [pc, #56]	; (8007140 <prvTimerTask+0x284>)
 8007108:	1d39      	adds	r1, r7, #4
 800710a:	6818      	ldr	r0, [r3, #0]
 800710c:	f7fd ff12 	bl	8004f34 <vListInsert>
 8007110:	e708      	b.n	8006f24 <prvTimerTask+0x68>
 8007112:	4b0b      	ldr	r3, [pc, #44]	; (8007140 <prvTimerTask+0x284>)
 8007114:	4641      	mov	r1, r8
 8007116:	6818      	ldr	r0, [r3, #0]
 8007118:	f7fd ff0c 	bl	8004f34 <vListInsert>
 800711c:	e6fe      	b.n	8006f1c <prvTimerTask+0x60>
 800711e:	f04f 0350 	mov.w	r3, #80	; 0x50
 8007122:	b672      	cpsid	i
 8007124:	f383 8811 	msr	BASEPRI, r3
 8007128:	f3bf 8f6f 	isb	sy
 800712c:	f3bf 8f4f 	dsb	sy
 8007130:	b662      	cpsie	i
 8007132:	e7fe      	b.n	8007132 <prvTimerTask+0x276>
 8007134:	200006d4 	.word	0x200006d4
 8007138:	20000704 	.word	0x20000704
 800713c:	20000708 	.word	0x20000708
 8007140:	200006d8 	.word	0x200006d8

08007144 <xTimerCreateTimerTask>:
 8007144:	b5f0      	push	{r4, r5, r6, r7, lr}
 8007146:	4c1d      	ldr	r4, [pc, #116]	; (80071bc <xTimerCreateTimerTask+0x78>)
 8007148:	b083      	sub	sp, #12
 800714a:	f000 f953 	bl	80073f4 <vPortEnterCritical>
 800714e:	6825      	ldr	r5, [r4, #0]
 8007150:	b1e5      	cbz	r5, 800718c <xTimerCreateTimerTask+0x48>
 8007152:	f000 f975 	bl	8007440 <vPortExitCritical>
 8007156:	6823      	ldr	r3, [r4, #0]
 8007158:	b15b      	cbz	r3, 8007172 <xTimerCreateTimerTask+0x2e>
 800715a:	2002      	movs	r0, #2
 800715c:	4c18      	ldr	r4, [pc, #96]	; (80071c0 <xTimerCreateTimerTask+0x7c>)
 800715e:	2300      	movs	r3, #0
 8007160:	f44f 7200 	mov.w	r2, #512	; 0x200
 8007164:	4917      	ldr	r1, [pc, #92]	; (80071c4 <xTimerCreateTimerTask+0x80>)
 8007166:	e9cd 0400 	strd	r0, r4, [sp]
 800716a:	4817      	ldr	r0, [pc, #92]	; (80071c8 <xTimerCreateTimerTask+0x84>)
 800716c:	f7fe fef6 	bl	8005f5c <xTaskCreate>
 8007170:	b950      	cbnz	r0, 8007188 <xTimerCreateTimerTask+0x44>
 8007172:	f04f 0350 	mov.w	r3, #80	; 0x50
 8007176:	b672      	cpsid	i
 8007178:	f383 8811 	msr	BASEPRI, r3
 800717c:	f3bf 8f6f 	isb	sy
 8007180:	f3bf 8f4f 	dsb	sy
 8007184:	b662      	cpsie	i
 8007186:	e7fe      	b.n	8007186 <xTimerCreateTimerTask+0x42>
 8007188:	b003      	add	sp, #12
 800718a:	bdf0      	pop	{r4, r5, r6, r7, pc}
 800718c:	4f0f      	ldr	r7, [pc, #60]	; (80071cc <xTimerCreateTimerTask+0x88>)
 800718e:	4e10      	ldr	r6, [pc, #64]	; (80071d0 <xTimerCreateTimerTask+0x8c>)
 8007190:	4638      	mov	r0, r7
 8007192:	f7fd feb3 	bl	8004efc <vListInitialise>
 8007196:	4630      	mov	r0, r6
 8007198:	f7fd feb0 	bl	8004efc <vListInitialise>
 800719c:	4b0d      	ldr	r3, [pc, #52]	; (80071d4 <xTimerCreateTimerTask+0x90>)
 800719e:	462a      	mov	r2, r5
 80071a0:	210c      	movs	r1, #12
 80071a2:	601f      	str	r7, [r3, #0]
 80071a4:	200a      	movs	r0, #10
 80071a6:	4b0c      	ldr	r3, [pc, #48]	; (80071d8 <xTimerCreateTimerTask+0x94>)
 80071a8:	601e      	str	r6, [r3, #0]
 80071aa:	f7fd ff31 	bl	8005010 <xQueueGenericCreate>
 80071ae:	6020      	str	r0, [r4, #0]
 80071b0:	2800      	cmp	r0, #0
 80071b2:	d0ce      	beq.n	8007152 <xTimerCreateTimerTask+0xe>
 80071b4:	4909      	ldr	r1, [pc, #36]	; (80071dc <xTimerCreateTimerTask+0x98>)
 80071b6:	f7fe fdc9 	bl	8005d4c <vQueueAddToRegistry>
 80071ba:	e7ca      	b.n	8007152 <xTimerCreateTimerTask+0xe>
 80071bc:	20000708 	.word	0x20000708
 80071c0:	2000070c 	.word	0x2000070c
 80071c4:	0800c058 	.word	0x0800c058
 80071c8:	08006ebd 	.word	0x08006ebd
 80071cc:	200006dc 	.word	0x200006dc
 80071d0:	200006f0 	.word	0x200006f0
 80071d4:	200006d4 	.word	0x200006d4
 80071d8:	200006d8 	.word	0x200006d8
 80071dc:	0800c050 	.word	0x0800c050

080071e0 <xTimerCreate>:
 80071e0:	e92d 4ff0 	stmdb	sp!, {r4, r5, r6, r7, r8, r9, sl, fp, lr}
 80071e4:	4607      	mov	r7, r0
 80071e6:	b083      	sub	sp, #12
 80071e8:	2028      	movs	r0, #40	; 0x28
 80071ea:	4688      	mov	r8, r1
 80071ec:	4616      	mov	r6, r2
 80071ee:	461d      	mov	r5, r3
 80071f0:	f000 fa52 	bl	8007698 <pvPortMalloc>
 80071f4:	4604      	mov	r4, r0
 80071f6:	b1e8      	cbz	r0, 8007234 <xTimerCreate+0x54>
 80071f8:	2300      	movs	r3, #0
 80071fa:	f880 3024 	strb.w	r3, [r0, #36]	; 0x24
 80071fe:	f1b8 0f00 	cmp.w	r8, #0
 8007202:	d01b      	beq.n	800723c <xTimerCreate+0x5c>
 8007204:	f8df a094 	ldr.w	sl, [pc, #148]	; 800729c <xTimerCreate+0xbc>
 8007208:	f000 f8f4 	bl	80073f4 <vPortEnterCritical>
 800720c:	f8da 2000 	ldr.w	r2, [sl]
 8007210:	b1fa      	cbz	r2, 8007252 <xTimerCreate+0x72>
 8007212:	f000 f915 	bl	8007440 <vPortExitCritical>
 8007216:	9b0c      	ldr	r3, [sp, #48]	; 0x30
 8007218:	1d20      	adds	r0, r4, #4
 800721a:	6027      	str	r7, [r4, #0]
 800721c:	6223      	str	r3, [r4, #32]
 800721e:	e9c4 8506 	strd	r8, r5, [r4, #24]
 8007222:	f7fd fe77 	bl	8004f14 <vListInitialiseItem>
 8007226:	b12e      	cbz	r6, 8007234 <xTimerCreate+0x54>
 8007228:	f894 3024 	ldrb.w	r3, [r4, #36]	; 0x24
 800722c:	f043 0304 	orr.w	r3, r3, #4
 8007230:	f884 3024 	strb.w	r3, [r4, #36]	; 0x24
 8007234:	4620      	mov	r0, r4
 8007236:	b003      	add	sp, #12
 8007238:	e8bd 8ff0 	ldmia.w	sp!, {r4, r5, r6, r7, r8, r9, sl, fp, pc}
 800723c:	f04f 0350 	mov.w	r3, #80	; 0x50
 8007240:	b672      	cpsid	i
 8007242:	f383 8811 	msr	BASEPRI, r3
 8007246:	f3bf 8f6f 	isb	sy
 800724a:	f3bf 8f4f 	dsb	sy
 800724e:	b662      	cpsie	i
 8007250:	e7fe      	b.n	8007250 <xTimerCreate+0x70>
 8007252:	f8df b04c 	ldr.w	fp, [pc, #76]	; 80072a0 <xTimerCreate+0xc0>
 8007256:	f8df 904c 	ldr.w	r9, [pc, #76]	; 80072a4 <xTimerCreate+0xc4>
 800725a:	4658      	mov	r0, fp
 800725c:	9201      	str	r2, [sp, #4]
 800725e:	f7fd fe4d 	bl	8004efc <vListInitialise>
 8007262:	4648      	mov	r0, r9
 8007264:	f7fd fe4a 	bl	8004efc <vListInitialise>
 8007268:	4809      	ldr	r0, [pc, #36]	; (8007290 <xTimerCreate+0xb0>)
 800726a:	490a      	ldr	r1, [pc, #40]	; (8007294 <xTimerCreate+0xb4>)
 800726c:	f8c0 b000 	str.w	fp, [r0]
 8007270:	200a      	movs	r0, #10
 8007272:	f8c1 9000 	str.w	r9, [r1]
 8007276:	210c      	movs	r1, #12
 8007278:	9a01      	ldr	r2, [sp, #4]
 800727a:	f7fd fec9 	bl	8005010 <xQueueGenericCreate>
 800727e:	f8ca 0000 	str.w	r0, [sl]
 8007282:	2800      	cmp	r0, #0
 8007284:	d0c5      	beq.n	8007212 <xTimerCreate+0x32>
 8007286:	4904      	ldr	r1, [pc, #16]	; (8007298 <xTimerCreate+0xb8>)
 8007288:	f7fe fd60 	bl	8005d4c <vQueueAddToRegistry>
 800728c:	e7c1      	b.n	8007212 <xTimerCreate+0x32>
 800728e:	bf00      	nop
 8007290:	200006d4 	.word	0x200006d4
 8007294:	200006d8 	.word	0x200006d8
 8007298:	0800c050 	.word	0x0800c050
 800729c:	20000708 	.word	0x20000708
 80072a0:	200006dc 	.word	0x200006dc
 80072a4:	200006f0 	.word	0x200006f0

080072a8 <xTimerGenericCommand>:
 80072a8:	b1c8      	cbz	r0, 80072de <xTimerGenericCommand+0x36>
 80072aa:	b530      	push	{r4, r5, lr}
 80072ac:	4d19      	ldr	r5, [pc, #100]	; (8007314 <xTimerGenericCommand+0x6c>)
 80072ae:	b085      	sub	sp, #20
 80072b0:	682c      	ldr	r4, [r5, #0]
 80072b2:	b18c      	cbz	r4, 80072d8 <xTimerGenericCommand+0x30>
 80072b4:	2905      	cmp	r1, #5
 80072b6:	9003      	str	r0, [sp, #12]
 80072b8:	e9cd 1201 	strd	r1, r2, [sp, #4]
 80072bc:	dc1a      	bgt.n	80072f4 <xTimerGenericCommand+0x4c>
 80072be:	f7ff fc6b 	bl	8006b98 <xTaskGetSchedulerState>
 80072c2:	2802      	cmp	r0, #2
 80072c4:	f04f 0300 	mov.w	r3, #0
 80072c8:	d01d      	beq.n	8007306 <xTimerGenericCommand+0x5e>
 80072ca:	a901      	add	r1, sp, #4
 80072cc:	461a      	mov	r2, r3
 80072ce:	6828      	ldr	r0, [r5, #0]
 80072d0:	f7fd fee4 	bl	800509c <xQueueGenericSend>
 80072d4:	b005      	add	sp, #20
 80072d6:	bd30      	pop	{r4, r5, pc}
 80072d8:	4620      	mov	r0, r4
 80072da:	b005      	add	sp, #20
 80072dc:	bd30      	pop	{r4, r5, pc}
 80072de:	f04f 0350 	mov.w	r3, #80	; 0x50
 80072e2:	b672      	cpsid	i
 80072e4:	f383 8811 	msr	BASEPRI, r3
 80072e8:	f3bf 8f6f 	isb	sy
 80072ec:	f3bf 8f4f 	dsb	sy
 80072f0:	b662      	cpsie	i
 80072f2:	e7fe      	b.n	80072f2 <xTimerGenericCommand+0x4a>
 80072f4:	469c      	mov	ip, r3
 80072f6:	a901      	add	r1, sp, #4
 80072f8:	2300      	movs	r3, #0
 80072fa:	4620      	mov	r0, r4
 80072fc:	4662      	mov	r2, ip
 80072fe:	f7fe f88b 	bl	8005418 <xQueueGenericSendFromISR>
 8007302:	b005      	add	sp, #20
 8007304:	bd30      	pop	{r4, r5, pc}
 8007306:	9a08      	ldr	r2, [sp, #32]
 8007308:	a901      	add	r1, sp, #4
 800730a:	6828      	ldr	r0, [r5, #0]
 800730c:	f7fd fec6 	bl	800509c <xQueueGenericSend>
 8007310:	e7e3      	b.n	80072da <xTimerGenericCommand+0x32>
 8007312:	bf00      	nop
 8007314:	20000708 	.word	0x20000708

08007318 <prvPortStartFirstTask>:
 8007318:	4808      	ldr	r0, [pc, #32]	; (800733c <prvPortStartFirstTask+0x24>)
 800731a:	6800      	ldr	r0, [r0, #0]
 800731c:	6800      	ldr	r0, [r0, #0]
 800731e:	f380 8808 	msr	MSP, r0
 8007322:	f04f 0000 	mov.w	r0, #0
 8007326:	f380 8814 	msr	CONTROL, r0
 800732a:	b662      	cpsie	i
 800732c:	b661      	cpsie	f
 800732e:	f3bf 8f4f 	dsb	sy
 8007332:	f3bf 8f6f 	isb	sy
 8007336:	df00      	svc	0
 8007338:	bf00      	nop
 800733a:	0000      	.short	0x0000
 800733c:	e000ed08 	.word	0xe000ed08

08007340 <vPortEnableVFP>:
 8007340:	f8df 000c 	ldr.w	r0, [pc, #12]	; 8007350 <vPortEnableVFP+0x10>
 8007344:	6801      	ldr	r1, [r0, #0]
 8007346:	f441 0170 	orr.w	r1, r1, #15728640	; 0xf00000
 800734a:	6001      	str	r1, [r0, #0]
 800734c:	4770      	bx	lr
 800734e:	0000      	.short	0x0000
 8007350:	e000ed88 	.word	0xe000ed88

08007354 <prvTaskExitError>:
 8007354:	4b10      	ldr	r3, [pc, #64]	; (8007398 <prvTaskExitError+0x44>)
 8007356:	b082      	sub	sp, #8
 8007358:	2200      	movs	r2, #0
 800735a:	681b      	ldr	r3, [r3, #0]
 800735c:	9201      	str	r2, [sp, #4]
 800735e:	3301      	adds	r3, #1
 8007360:	d00a      	beq.n	8007378 <prvTaskExitError+0x24>
 8007362:	f04f 0350 	mov.w	r3, #80	; 0x50
 8007366:	b672      	cpsid	i
 8007368:	f383 8811 	msr	BASEPRI, r3
 800736c:	f3bf 8f6f 	isb	sy
 8007370:	f3bf 8f4f 	dsb	sy
 8007374:	b662      	cpsie	i
 8007376:	e7fe      	b.n	8007376 <prvTaskExitError+0x22>
 8007378:	f04f 0350 	mov.w	r3, #80	; 0x50
 800737c:	b672      	cpsid	i
 800737e:	f383 8811 	msr	BASEPRI, r3
 8007382:	f3bf 8f6f 	isb	sy
 8007386:	f3bf 8f4f 	dsb	sy
 800738a:	b662      	cpsie	i
 800738c:	9b01      	ldr	r3, [sp, #4]
 800738e:	2b00      	cmp	r3, #0
 8007390:	d0fc      	beq.n	800738c <prvTaskExitError+0x38>
 8007392:	b002      	add	sp, #8
 8007394:	4770      	bx	lr
 8007396:	bf00      	nop
 8007398:	2000000c 	.word	0x2000000c

0800739c <pxPortInitialiseStack>:
 800739c:	4603      	mov	r3, r0
 800739e:	f021 0101 	bic.w	r1, r1, #1
 80073a2:	4809      	ldr	r0, [pc, #36]	; (80073c8 <pxPortInitialiseStack+0x2c>)
 80073a4:	b410      	push	{r4}
 80073a6:	f04f 7480 	mov.w	r4, #16777216	; 0x1000000
 80073aa:	f843 0c0c 	str.w	r0, [r3, #-12]
 80073ae:	f843 2c20 	str.w	r2, [r3, #-32]
 80073b2:	f1a3 0044 	sub.w	r0, r3, #68	; 0x44
 80073b6:	e943 1402 	strd	r1, r4, [r3, #-8]
 80073ba:	f06f 0102 	mvn.w	r1, #2
 80073be:	f843 1c24 	str.w	r1, [r3, #-36]
 80073c2:	f85d 4b04 	ldr.w	r4, [sp], #4
 80073c6:	4770      	bx	lr
 80073c8:	08007355 	.word	0x08007355
 80073cc:	00000000 	.word	0x00000000

080073d0 <SVC_Handler>:
 80073d0:	4b07      	ldr	r3, [pc, #28]	; (80073f0 <pxCurrentTCBConst2>)
 80073d2:	6819      	ldr	r1, [r3, #0]
 80073d4:	6808      	ldr	r0, [r1, #0]
 80073d6:	e8b0 4ff0 	ldmia.w	r0!, {r4, r5, r6, r7, r8, r9, sl, fp, lr}
 80073da:	f380 8809 	msr	PSP, r0
 80073de:	f3bf 8f6f 	isb	sy
 80073e2:	f04f 0000 	mov.w	r0, #0
 80073e6:	f380 8811 	msr	BASEPRI, r0
 80073ea:	4770      	bx	lr
 80073ec:	f3af 8000 	nop.w

080073f0 <pxCurrentTCBConst2>:
 80073f0:	200005a8 	.word	0x200005a8

080073f4 <vPortEnterCritical>:
 80073f4:	f04f 0350 	mov.w	r3, #80	; 0x50
 80073f8:	b672      	cpsid	i
 80073fa:	f383 8811 	msr	BASEPRI, r3
 80073fe:	f3bf 8f6f 	isb	sy
 8007402:	f3bf 8f4f 	dsb	sy
 8007406:	b662      	cpsie	i
 8007408:	4a0c      	ldr	r2, [pc, #48]	; (800743c <vPortEnterCritical+0x48>)
 800740a:	6813      	ldr	r3, [r2, #0]
 800740c:	3301      	adds	r3, #1
 800740e:	2b01      	cmp	r3, #1
 8007410:	6013      	str	r3, [r2, #0]
 8007412:	d000      	beq.n	8007416 <vPortEnterCritical+0x22>
 8007414:	4770      	bx	lr
 8007416:	f04f 23e0 	mov.w	r3, #3758153728	; 0xe000e000
 800741a:	f8d3 3d04 	ldr.w	r3, [r3, #3332]	; 0xd04
 800741e:	b2db      	uxtb	r3, r3
 8007420:	2b00      	cmp	r3, #0
 8007422:	d0f7      	beq.n	8007414 <vPortEnterCritical+0x20>
 8007424:	f04f 0350 	mov.w	r3, #80	; 0x50
 8007428:	b672      	cpsid	i
 800742a:	f383 8811 	msr	BASEPRI, r3
 800742e:	f3bf 8f6f 	isb	sy
 8007432:	f3bf 8f4f 	dsb	sy
 8007436:	b662      	cpsie	i
 8007438:	e7fe      	b.n	8007438 <vPortEnterCritical+0x44>
 800743a:	bf00      	nop
 800743c:	2000000c 	.word	0x2000000c

08007440 <vPortExitCritical>:
 8007440:	4a09      	ldr	r2, [pc, #36]	; (8007468 <vPortExitCritical+0x28>)
 8007442:	6813      	ldr	r3, [r2, #0]
 8007444:	b953      	cbnz	r3, 800745c <vPortExitCritical+0x1c>
 8007446:	f04f 0350 	mov.w	r3, #80	; 0x50
 800744a:	b672      	cpsid	i
 800744c:	f383 8811 	msr	BASEPRI, r3
 8007450:	f3bf 8f6f 	isb	sy
 8007454:	f3bf 8f4f 	dsb	sy
 8007458:	b662      	cpsie	i
 800745a:	e7fe      	b.n	800745a <vPortExitCritical+0x1a>
 800745c:	3b01      	subs	r3, #1
 800745e:	6013      	str	r3, [r2, #0]
 8007460:	b90b      	cbnz	r3, 8007466 <vPortExitCritical+0x26>
 8007462:	f383 8811 	msr	BASEPRI, r3
 8007466:	4770      	bx	lr
 8007468:	2000000c 	.word	0x2000000c
 800746c:	00000000 	.word	0x00000000

08007470 <PendSV_Handler>:
 8007470:	f3ef 8009 	mrs	r0, PSP
 8007474:	f3bf 8f6f 	isb	sy
 8007478:	4b15      	ldr	r3, [pc, #84]	; (80074d0 <pxCurrentTCBConst>)
 800747a:	681a      	ldr	r2, [r3, #0]
 800747c:	f01e 0f10 	tst.w	lr, #16
 8007480:	bf08      	it	eq
 8007482:	ed20 8a10 	vstmdbeq	r0!, {s16-s31}
 8007486:	e920 4ff0 	stmdb	r0!, {r4, r5, r6, r7, r8, r9, sl, fp, lr}
 800748a:	6010      	str	r0, [r2, #0]
 800748c:	e92d 0009 	stmdb	sp!, {r0, r3}
 8007490:	f04f 0050 	mov.w	r0, #80	; 0x50
 8007494:	b672      	cpsid	i
 8007496:	f380 8811 	msr	BASEPRI, r0
 800749a:	f3bf 8f4f 	dsb	sy
 800749e:	f3bf 8f6f 	isb	sy
 80074a2:	b662      	cpsie	i
 80074a4:	f7ff f9ce 	bl	8006844 <vTaskSwitchContext>
 80074a8:	f04f 0000 	mov.w	r0, #0
 80074ac:	f380 8811 	msr	BASEPRI, r0
 80074b0:	bc09      	pop	{r0, r3}
 80074b2:	6819      	ldr	r1, [r3, #0]
 80074b4:	6808      	ldr	r0, [r1, #0]
 80074b6:	e8b0 4ff0 	ldmia.w	r0!, {r4, r5, r6, r7, r8, r9, sl, fp, lr}
 80074ba:	f01e 0f10 	tst.w	lr, #16
 80074be:	bf08      	it	eq
 80074c0:	ecb0 8a10 	vldmiaeq	r0!, {s16-s31}
 80074c4:	f380 8809 	msr	PSP, r0
 80074c8:	f3bf 8f6f 	isb	sy
 80074cc:	4770      	bx	lr
 80074ce:	bf00      	nop

080074d0 <pxCurrentTCBConst>:
 80074d0:	200005a8 	.word	0x200005a8

080074d4 <SysTick_Handler>:
 80074d4:	b508      	push	{r3, lr}
 80074d6:	f04f 0350 	mov.w	r3, #80	; 0x50
 80074da:	b672      	cpsid	i
 80074dc:	f383 8811 	msr	BASEPRI, r3
 80074e0:	f3bf 8f6f 	isb	sy
 80074e4:	f3bf 8f4f 	dsb	sy
 80074e8:	b662      	cpsie	i
 80074ea:	f7fe ffb5 	bl	8006458 <xTaskIncrementTick>
 80074ee:	b128      	cbz	r0, 80074fc <SysTick_Handler+0x28>
 80074f0:	f04f 23e0 	mov.w	r3, #3758153728	; 0xe000e000
 80074f4:	f04f 5280 	mov.w	r2, #268435456	; 0x10000000
 80074f8:	f8c3 2d04 	str.w	r2, [r3, #3332]	; 0xd04
 80074fc:	2300      	movs	r3, #0
 80074fe:	f383 8811 	msr	BASEPRI, r3
 8007502:	bd08      	pop	{r3, pc}

08007504 <vPortSetupTimerInterrupt>:
 8007504:	f04f 22e0 	mov.w	r2, #3758153728	; 0xe000e000
 8007508:	2100      	movs	r1, #0
 800750a:	4b06      	ldr	r3, [pc, #24]	; (8007524 <vPortSetupTimerInterrupt+0x20>)
 800750c:	6111      	str	r1, [r2, #16]
 800750e:	4806      	ldr	r0, [pc, #24]	; (8007528 <vPortSetupTimerInterrupt+0x24>)
 8007510:	6191      	str	r1, [r2, #24]
 8007512:	2107      	movs	r1, #7
 8007514:	681b      	ldr	r3, [r3, #0]
 8007516:	fba0 0303 	umull	r0, r3, r0, r3
 800751a:	099b      	lsrs	r3, r3, #6
 800751c:	3b01      	subs	r3, #1
 800751e:	6153      	str	r3, [r2, #20]
 8007520:	6111      	str	r1, [r2, #16]
 8007522:	4770      	bx	lr
 8007524:	20000000 	.word	0x20000000
 8007528:	10624dd3 	.word	0x10624dd3

0800752c <xPortStartScheduler>:
 800752c:	4b3d      	ldr	r3, [pc, #244]	; (8007624 <xPortStartScheduler+0xf8>)
 800752e:	f04f 0cff 	mov.w	ip, #255	; 0xff
 8007532:	483d      	ldr	r0, [pc, #244]	; (8007628 <xPortStartScheduler+0xfc>)
 8007534:	493d      	ldr	r1, [pc, #244]	; (800762c <xPortStartScheduler+0x100>)
 8007536:	b570      	push	{r4, r5, r6, lr}
 8007538:	781a      	ldrb	r2, [r3, #0]
 800753a:	b084      	sub	sp, #16
 800753c:	b2d2      	uxtb	r2, r2
 800753e:	9202      	str	r2, [sp, #8]
 8007540:	2207      	movs	r2, #7
 8007542:	f883 c000 	strb.w	ip, [r3]
 8007546:	781b      	ldrb	r3, [r3, #0]
 8007548:	6002      	str	r2, [r0, #0]
 800754a:	b2db      	uxtb	r3, r3
 800754c:	f88d 3007 	strb.w	r3, [sp, #7]
 8007550:	f89d 3007 	ldrb.w	r3, [sp, #7]
 8007554:	f89d 2007 	ldrb.w	r2, [sp, #7]
 8007558:	f003 0350 	and.w	r3, r3, #80	; 0x50
 800755c:	0612      	lsls	r2, r2, #24
 800755e:	700b      	strb	r3, [r1, #0]
 8007560:	d50f      	bpl.n	8007582 <xPortStartScheduler+0x56>
 8007562:	2206      	movs	r2, #6
 8007564:	f89d 3007 	ldrb.w	r3, [sp, #7]
 8007568:	4611      	mov	r1, r2
 800756a:	3a01      	subs	r2, #1
 800756c:	005b      	lsls	r3, r3, #1
 800756e:	b2db      	uxtb	r3, r3
 8007570:	f88d 3007 	strb.w	r3, [sp, #7]
 8007574:	f89d 3007 	ldrb.w	r3, [sp, #7]
 8007578:	061b      	lsls	r3, r3, #24
 800757a:	d4f3      	bmi.n	8007564 <xPortStartScheduler+0x38>
 800757c:	2903      	cmp	r1, #3
 800757e:	d00b      	beq.n	8007598 <xPortStartScheduler+0x6c>
 8007580:	6001      	str	r1, [r0, #0]
 8007582:	f04f 0350 	mov.w	r3, #80	; 0x50
 8007586:	b672      	cpsid	i
 8007588:	f383 8811 	msr	BASEPRI, r3
 800758c:	f3bf 8f6f 	isb	sy
 8007590:	f3bf 8f4f 	dsb	sy
 8007594:	b662      	cpsie	i
 8007596:	e7fe      	b.n	8007596 <xPortStartScheduler+0x6a>
 8007598:	9b02      	ldr	r3, [sp, #8]
 800759a:	f04f 24e0 	mov.w	r4, #3758153728	; 0xe000e000
 800759e:	f44f 7140 	mov.w	r1, #768	; 0x300
 80075a2:	4a20      	ldr	r2, [pc, #128]	; (8007624 <xPortStartScheduler+0xf8>)
 80075a4:	b2db      	uxtb	r3, r3
 80075a6:	4e22      	ldr	r6, [pc, #136]	; (8007630 <xPortStartScheduler+0x104>)
 80075a8:	6001      	str	r1, [r0, #0]
 80075aa:	2500      	movs	r5, #0
 80075ac:	7013      	strb	r3, [r2, #0]
 80075ae:	f8d4 3d20 	ldr.w	r3, [r4, #3360]	; 0xd20
 80075b2:	f443 0370 	orr.w	r3, r3, #15728640	; 0xf00000
 80075b6:	f8c4 3d20 	str.w	r3, [r4, #3360]	; 0xd20
 80075ba:	f8d4 3d20 	ldr.w	r3, [r4, #3360]	; 0xd20
 80075be:	f043 4370 	orr.w	r3, r3, #4026531840	; 0xf0000000
 80075c2:	f8c4 3d20 	str.w	r3, [r4, #3360]	; 0xd20
 80075c6:	f7ff ff9d 	bl	8007504 <vPortSetupTimerInterrupt>
 80075ca:	6035      	str	r5, [r6, #0]
 80075cc:	f7ff feb8 	bl	8007340 <vPortEnableVFP>
 80075d0:	f8d4 3f34 	ldr.w	r3, [r4, #3892]	; 0xf34
 80075d4:	f043 4340 	orr.w	r3, r3, #3221225472	; 0xc0000000
 80075d8:	f8c4 3f34 	str.w	r3, [r4, #3892]	; 0xf34
 80075dc:	f7ff fe9c 	bl	8007318 <prvPortStartFirstTask>
 80075e0:	f7ff f930 	bl	8006844 <vTaskSwitchContext>
 80075e4:	6833      	ldr	r3, [r6, #0]
 80075e6:	9503      	str	r5, [sp, #12]
 80075e8:	3301      	adds	r3, #1
 80075ea:	d00a      	beq.n	8007602 <xPortStartScheduler+0xd6>
 80075ec:	f04f 0350 	mov.w	r3, #80	; 0x50
 80075f0:	b672      	cpsid	i
 80075f2:	f383 8811 	msr	BASEPRI, r3
 80075f6:	f3bf 8f6f 	isb	sy
 80075fa:	f3bf 8f4f 	dsb	sy
 80075fe:	b662      	cpsie	i
 8007600:	e7fe      	b.n	8007600 <xPortStartScheduler+0xd4>
 8007602:	f04f 0350 	mov.w	r3, #80	; 0x50
 8007606:	b672      	cpsid	i
 8007608:	f383 8811 	msr	BASEPRI, r3
 800760c:	f3bf 8f6f 	isb	sy
 8007610:	f3bf 8f4f 	dsb	sy
 8007614:	b662      	cpsie	i
 8007616:	9b03      	ldr	r3, [sp, #12]
 8007618:	2b00      	cmp	r3, #0
 800761a:	d0fc      	beq.n	8007616 <xPortStartScheduler+0xea>
 800761c:	2000      	movs	r0, #0
 800761e:	b004      	add	sp, #16
 8007620:	bd70      	pop	{r4, r5, r6, pc}
 8007622:	bf00      	nop
 8007624:	e000e400 	.word	0xe000e400
 8007628:	20000714 	.word	0x20000714
 800762c:	20000710 	.word	0x20000710
 8007630:	2000000c 	.word	0x2000000c

08007634 <vPortValidateInterruptPriority>:
 8007634:	f3ef 8305 	mrs	r3, IPSR
 8007638:	2b0f      	cmp	r3, #15
 800763a:	d910      	bls.n	800765e <vPortValidateInterruptPriority+0x2a>
 800763c:	4913      	ldr	r1, [pc, #76]	; (800768c <vPortValidateInterruptPriority+0x58>)
 800763e:	4a14      	ldr	r2, [pc, #80]	; (8007690 <vPortValidateInterruptPriority+0x5c>)
 8007640:	5c5b      	ldrb	r3, [r3, r1]
 8007642:	7812      	ldrb	r2, [r2, #0]
 8007644:	429a      	cmp	r2, r3
 8007646:	d90a      	bls.n	800765e <vPortValidateInterruptPriority+0x2a>
 8007648:	f04f 0350 	mov.w	r3, #80	; 0x50
 800764c:	b672      	cpsid	i
 800764e:	f383 8811 	msr	BASEPRI, r3
 8007652:	f3bf 8f6f 	isb	sy
 8007656:	f3bf 8f4f 	dsb	sy
 800765a:	b662      	cpsie	i
 800765c:	e7fe      	b.n	800765c <vPortValidateInterruptPriority+0x28>
 800765e:	f04f 23e0 	mov.w	r3, #3758153728	; 0xe000e000
 8007662:	4a0c      	ldr	r2, [pc, #48]	; (8007694 <vPortValidateInterruptPriority+0x60>)
 8007664:	f8d3 3d0c 	ldr.w	r3, [r3, #3340]	; 0xd0c
 8007668:	6812      	ldr	r2, [r2, #0]
 800766a:	f403 63e0 	and.w	r3, r3, #1792	; 0x700
 800766e:	4293      	cmp	r3, r2
 8007670:	d90a      	bls.n	8007688 <vPortValidateInterruptPriority+0x54>
 8007672:	f04f 0350 	mov.w	r3, #80	; 0x50
 8007676:	b672      	cpsid	i
 8007678:	f383 8811 	msr	BASEPRI, r3
 800767c:	f3bf 8f6f 	isb	sy
 8007680:	f3bf 8f4f 	dsb	sy
 8007684:	b662      	cpsie	i
 8007686:	e7fe      	b.n	8007686 <vPortValidateInterruptPriority+0x52>
 8007688:	4770      	bx	lr
 800768a:	bf00      	nop
 800768c:	e000e3f0 	.word	0xe000e3f0
 8007690:	20000710 	.word	0x20000710
 8007694:	20000714 	.word	0x20000714

08007698 <pvPortMalloc>:
 8007698:	e92d 41f0 	stmdb	sp!, {r4, r5, r6, r7, r8, lr}
 800769c:	4605      	mov	r5, r0
 800769e:	f7fe fec5 	bl	800642c <vTaskSuspendAll>
 80076a2:	4b54      	ldr	r3, [pc, #336]	; (80077f4 <pvPortMalloc+0x15c>)
 80076a4:	681c      	ldr	r4, [r3, #0]
 80076a6:	2c00      	cmp	r4, #0
 80076a8:	d070      	beq.n	800778c <pvPortMalloc+0xf4>
 80076aa:	4b53      	ldr	r3, [pc, #332]	; (80077f8 <pvPortMalloc+0x160>)
 80076ac:	681e      	ldr	r6, [r3, #0]
 80076ae:	4235      	tst	r5, r6
 80076b0:	d132      	bne.n	8007718 <pvPortMalloc+0x80>
 80076b2:	b38d      	cbz	r5, 8007718 <pvPortMalloc+0x80>
 80076b4:	0768      	lsls	r0, r5, #29
 80076b6:	f105 0108 	add.w	r1, r5, #8
 80076ba:	d002      	beq.n	80076c2 <pvPortMalloc+0x2a>
 80076bc:	f021 0107 	bic.w	r1, r1, #7
 80076c0:	3108      	adds	r1, #8
 80076c2:	b349      	cbz	r1, 8007718 <pvPortMalloc+0x80>
 80076c4:	f8df c140 	ldr.w	ip, [pc, #320]	; 8007808 <pvPortMalloc+0x170>
 80076c8:	f8dc 5000 	ldr.w	r5, [ip]
 80076cc:	428d      	cmp	r5, r1
 80076ce:	d323      	bcc.n	8007718 <pvPortMalloc+0x80>
 80076d0:	484a      	ldr	r0, [pc, #296]	; (80077fc <pvPortMalloc+0x164>)
 80076d2:	6803      	ldr	r3, [r0, #0]
 80076d4:	e003      	b.n	80076de <pvPortMalloc+0x46>
 80076d6:	681a      	ldr	r2, [r3, #0]
 80076d8:	b122      	cbz	r2, 80076e4 <pvPortMalloc+0x4c>
 80076da:	4618      	mov	r0, r3
 80076dc:	4613      	mov	r3, r2
 80076de:	685a      	ldr	r2, [r3, #4]
 80076e0:	428a      	cmp	r2, r1
 80076e2:	d3f8      	bcc.n	80076d6 <pvPortMalloc+0x3e>
 80076e4:	42a3      	cmp	r3, r4
 80076e6:	d017      	beq.n	8007718 <pvPortMalloc+0x80>
 80076e8:	461f      	mov	r7, r3
 80076ea:	f857 2b08 	ldr.w	r2, [r7], #8
 80076ee:	6002      	str	r2, [r0, #0]
 80076f0:	685a      	ldr	r2, [r3, #4]
 80076f2:	eba2 0e01 	sub.w	lr, r2, r1
 80076f6:	f1be 0f10 	cmp.w	lr, #16
 80076fa:	d92c      	bls.n	8007756 <pvPortMalloc+0xbe>
 80076fc:	1858      	adds	r0, r3, r1
 80076fe:	0742      	lsls	r2, r0, #29
 8007700:	d010      	beq.n	8007724 <pvPortMalloc+0x8c>
 8007702:	f04f 0350 	mov.w	r3, #80	; 0x50
 8007706:	b672      	cpsid	i
 8007708:	f383 8811 	msr	BASEPRI, r3
 800770c:	f3bf 8f6f 	isb	sy
 8007710:	f3bf 8f4f 	dsb	sy
 8007714:	b662      	cpsie	i
 8007716:	e7fe      	b.n	8007716 <pvPortMalloc+0x7e>
 8007718:	2700      	movs	r7, #0
 800771a:	f7fe ffef 	bl	80066fc <xTaskResumeAll>
 800771e:	4638      	mov	r0, r7
 8007720:	e8bd 81f0 	ldmia.w	sp!, {r4, r5, r6, r7, r8, pc}
 8007724:	4a35      	ldr	r2, [pc, #212]	; (80077fc <pvPortMalloc+0x164>)
 8007726:	f8c0 e004 	str.w	lr, [r0, #4]
 800772a:	6059      	str	r1, [r3, #4]
 800772c:	4611      	mov	r1, r2
 800772e:	6812      	ldr	r2, [r2, #0]
 8007730:	4290      	cmp	r0, r2
 8007732:	d8fb      	bhi.n	800772c <pvPortMalloc+0x94>
 8007734:	f8d1 e004 	ldr.w	lr, [r1, #4]
 8007738:	eb01 080e 	add.w	r8, r1, lr
 800773c:	4540      	cmp	r0, r8
 800773e:	d04a      	beq.n	80077d6 <pvPortMalloc+0x13e>
 8007740:	f8d0 e004 	ldr.w	lr, [r0, #4]
 8007744:	eb00 080e 	add.w	r8, r0, lr
 8007748:	4542      	cmp	r2, r8
 800774a:	d04a      	beq.n	80077e2 <pvPortMalloc+0x14a>
 800774c:	6002      	str	r2, [r0, #0]
 800774e:	4281      	cmp	r1, r0
 8007750:	bf18      	it	ne
 8007752:	6008      	strne	r0, [r1, #0]
 8007754:	685a      	ldr	r2, [r3, #4]
 8007756:	492a      	ldr	r1, [pc, #168]	; (8007800 <pvPortMalloc+0x168>)
 8007758:	1aad      	subs	r5, r5, r2
 800775a:	4332      	orrs	r2, r6
 800775c:	6808      	ldr	r0, [r1, #0]
 800775e:	f8cc 5000 	str.w	r5, [ip]
 8007762:	4285      	cmp	r5, r0
 8007764:	bf38      	it	cc
 8007766:	600d      	strcc	r5, [r1, #0]
 8007768:	2100      	movs	r1, #0
 800776a:	e9c3 1200 	strd	r1, r2, [r3]
 800776e:	f7fe ffc5 	bl	80066fc <xTaskResumeAll>
 8007772:	077b      	lsls	r3, r7, #29
 8007774:	d0d3      	beq.n	800771e <pvPortMalloc+0x86>
 8007776:	f04f 0350 	mov.w	r3, #80	; 0x50
 800777a:	b672      	cpsid	i
 800777c:	f383 8811 	msr	BASEPRI, r3
 8007780:	f3bf 8f6f 	isb	sy
 8007784:	f3bf 8f4f 	dsb	sy
 8007788:	b662      	cpsie	i
 800778a:	e7fe      	b.n	800778a <pvPortMalloc+0xf2>
 800778c:	491d      	ldr	r1, [pc, #116]	; (8007804 <pvPortMalloc+0x16c>)
 800778e:	074c      	lsls	r4, r1, #29
 8007790:	d11a      	bne.n	80077c8 <pvPortMalloc+0x130>
 8007792:	460a      	mov	r2, r1
 8007794:	f501 3180 	add.w	r1, r1, #65536	; 0x10000
 8007798:	4610      	mov	r0, r2
 800779a:	f1a1 0408 	sub.w	r4, r1, #8
 800779e:	f04f 4600 	mov.w	r6, #2147483648	; 0x80000000
 80077a2:	4915      	ldr	r1, [pc, #84]	; (80077f8 <pvPortMalloc+0x160>)
 80077a4:	f024 0407 	bic.w	r4, r4, #7
 80077a8:	600e      	str	r6, [r1, #0]
 80077aa:	601c      	str	r4, [r3, #0]
 80077ac:	1aa3      	subs	r3, r4, r2
 80077ae:	4a14      	ldr	r2, [pc, #80]	; (8007800 <pvPortMalloc+0x168>)
 80077b0:	4912      	ldr	r1, [pc, #72]	; (80077fc <pvPortMalloc+0x164>)
 80077b2:	6013      	str	r3, [r2, #0]
 80077b4:	4a14      	ldr	r2, [pc, #80]	; (8007808 <pvPortMalloc+0x170>)
 80077b6:	6013      	str	r3, [r2, #0]
 80077b8:	2200      	movs	r2, #0
 80077ba:	e9c1 0200 	strd	r0, r2, [r1]
 80077be:	e9c4 2200 	strd	r2, r2, [r4]
 80077c2:	e9c0 4300 	strd	r4, r3, [r0]
 80077c6:	e772      	b.n	80076ae <pvPortMalloc+0x16>
 80077c8:	1dca      	adds	r2, r1, #7
 80077ca:	f501 3180 	add.w	r1, r1, #65536	; 0x10000
 80077ce:	f022 0207 	bic.w	r2, r2, #7
 80077d2:	4610      	mov	r0, r2
 80077d4:	e7e1      	b.n	800779a <pvPortMalloc+0x102>
 80077d6:	6840      	ldr	r0, [r0, #4]
 80077d8:	4486      	add	lr, r0
 80077da:	4608      	mov	r0, r1
 80077dc:	f8c1 e004 	str.w	lr, [r1, #4]
 80077e0:	e7b0      	b.n	8007744 <pvPortMalloc+0xac>
 80077e2:	42a2      	cmp	r2, r4
 80077e4:	d0b2      	beq.n	800774c <pvPortMalloc+0xb4>
 80077e6:	6852      	ldr	r2, [r2, #4]
 80077e8:	4472      	add	r2, lr
 80077ea:	6042      	str	r2, [r0, #4]
 80077ec:	680a      	ldr	r2, [r1, #0]
 80077ee:	6812      	ldr	r2, [r2, #0]
 80077f0:	6002      	str	r2, [r0, #0]
 80077f2:	e7ac      	b.n	800774e <pvPortMalloc+0xb6>
 80077f4:	20000718 	.word	0x20000718
 80077f8:	2001071c 	.word	0x2001071c
 80077fc:	20010728 	.word	0x20010728
 8007800:	20010724 	.word	0x20010724
 8007804:	2000071c 	.word	0x2000071c
 8007808:	20010720 	.word	0x20010720

0800780c <vPortFree>:
 800780c:	b1f0      	cbz	r0, 800784c <vPortFree+0x40>
 800780e:	4a2b      	ldr	r2, [pc, #172]	; (80078bc <vPortFree+0xb0>)
 8007810:	f850 3c04 	ldr.w	r3, [r0, #-4]
 8007814:	6812      	ldr	r2, [r2, #0]
 8007816:	4213      	tst	r3, r2
 8007818:	d00d      	beq.n	8007836 <vPortFree+0x2a>
 800781a:	f850 1c08 	ldr.w	r1, [r0, #-8]
 800781e:	b1b1      	cbz	r1, 800784e <vPortFree+0x42>
 8007820:	f04f 0350 	mov.w	r3, #80	; 0x50
 8007824:	b672      	cpsid	i
 8007826:	f383 8811 	msr	BASEPRI, r3
 800782a:	f3bf 8f6f 	isb	sy
 800782e:	f3bf 8f4f 	dsb	sy
 8007832:	b662      	cpsie	i
 8007834:	e7fe      	b.n	8007834 <vPortFree+0x28>
 8007836:	f04f 0350 	mov.w	r3, #80	; 0x50
 800783a:	b672      	cpsid	i
 800783c:	f383 8811 	msr	BASEPRI, r3
 8007840:	f3bf 8f6f 	isb	sy
 8007844:	f3bf 8f4f 	dsb	sy
 8007848:	b662      	cpsie	i
 800784a:	e7fe      	b.n	800784a <vPortFree+0x3e>
 800784c:	4770      	bx	lr
 800784e:	ea23 0302 	bic.w	r3, r3, r2
 8007852:	b530      	push	{r4, r5, lr}
 8007854:	b083      	sub	sp, #12
 8007856:	f840 3c04 	str.w	r3, [r0, #-4]
 800785a:	f1a0 0408 	sub.w	r4, r0, #8
 800785e:	4d18      	ldr	r5, [pc, #96]	; (80078c0 <vPortFree+0xb4>)
 8007860:	9001      	str	r0, [sp, #4]
 8007862:	f7fe fde3 	bl	800642c <vTaskSuspendAll>
 8007866:	9801      	ldr	r0, [sp, #4]
 8007868:	682a      	ldr	r2, [r5, #0]
 800786a:	f850 1c04 	ldr.w	r1, [r0, #-4]
 800786e:	4b15      	ldr	r3, [pc, #84]	; (80078c4 <vPortFree+0xb8>)
 8007870:	440a      	add	r2, r1
 8007872:	602a      	str	r2, [r5, #0]
 8007874:	461a      	mov	r2, r3
 8007876:	681b      	ldr	r3, [r3, #0]
 8007878:	429c      	cmp	r4, r3
 800787a:	d8fb      	bhi.n	8007874 <vPortFree+0x68>
 800787c:	6850      	ldr	r0, [r2, #4]
 800787e:	eb02 0c00 	add.w	ip, r2, r0
 8007882:	4564      	cmp	r4, ip
 8007884:	d016      	beq.n	80078b4 <vPortFree+0xa8>
 8007886:	1860      	adds	r0, r4, r1
 8007888:	4283      	cmp	r3, r0
 800788a:	d008      	beq.n	800789e <vPortFree+0x92>
 800788c:	6023      	str	r3, [r4, #0]
 800788e:	42a2      	cmp	r2, r4
 8007890:	bf18      	it	ne
 8007892:	6014      	strne	r4, [r2, #0]
 8007894:	b003      	add	sp, #12
 8007896:	e8bd 4030 	ldmia.w	sp!, {r4, r5, lr}
 800789a:	f7fe bf2f 	b.w	80066fc <xTaskResumeAll>
 800789e:	480a      	ldr	r0, [pc, #40]	; (80078c8 <vPortFree+0xbc>)
 80078a0:	6800      	ldr	r0, [r0, #0]
 80078a2:	4283      	cmp	r3, r0
 80078a4:	d0f2      	beq.n	800788c <vPortFree+0x80>
 80078a6:	685b      	ldr	r3, [r3, #4]
 80078a8:	4419      	add	r1, r3
 80078aa:	6061      	str	r1, [r4, #4]
 80078ac:	6813      	ldr	r3, [r2, #0]
 80078ae:	681b      	ldr	r3, [r3, #0]
 80078b0:	6023      	str	r3, [r4, #0]
 80078b2:	e7ec      	b.n	800788e <vPortFree+0x82>
 80078b4:	4401      	add	r1, r0
 80078b6:	4614      	mov	r4, r2
 80078b8:	6051      	str	r1, [r2, #4]
 80078ba:	e7e4      	b.n	8007886 <vPortFree+0x7a>
 80078bc:	2001071c 	.word	0x2001071c
 80078c0:	20010720 	.word	0x20010720
 80078c4:	20010728 	.word	0x20010728
 80078c8:	20000718 	.word	0x20000718

080078cc <t_bus_send>:
 80078cc:	b5f0      	push	{r4, r5, r6, r7, lr}
 80078ce:	f44f 7099 	mov.w	r0, #306	; 0x132
 80078d2:	b08f      	sub	sp, #60	; 0x3c
 80078d4:	2101      	movs	r1, #1
 80078d6:	2300      	movs	r3, #0
 80078d8:	4c32      	ldr	r4, [pc, #200]	; (80079a4 <t_bus_send+0xd8>)
 80078da:	4f33      	ldr	r7, [pc, #204]	; (80079a8 <t_bus_send+0xdc>)
 80078dc:	9304      	str	r3, [sp, #16]
 80078de:	930a      	str	r3, [sp, #40]	; 0x28
 80078e0:	7023      	strb	r3, [r4, #0]
 80078e2:	70a3      	strb	r3, [r4, #2]
 80078e4:	8163      	strh	r3, [r4, #10]
 80078e6:	f8c4 3006 	str.w	r3, [r4, #6]
 80078ea:	7123      	strb	r3, [r4, #4]
 80078ec:	803b      	strh	r3, [r7, #0]
 80078ee:	4d2f      	ldr	r5, [pc, #188]	; (80079ac <t_bus_send+0xe0>)
 80078f0:	4e2f      	ldr	r6, [pc, #188]	; (80079b0 <t_bus_send+0xe4>)
 80078f2:	e9cd 0102 	strd	r0, r1, [sp, #8]
 80078f6:	2108      	movs	r1, #8
 80078f8:	f240 1031 	movw	r0, #305	; 0x131
 80078fc:	e9cd 3305 	strd	r3, r3, [sp, #20]
 8007900:	e9cd 330b 	strd	r3, r3, [sp, #44]	; 0x2c
 8007904:	e9cd 0108 	strd	r0, r1, [sp, #32]
 8007908:	f7fd f832 	bl	8004970 <osKernelSysTick>
 800790c:	2227      	movs	r2, #39	; 0x27
 800790e:	4601      	mov	r1, r0
 8007910:	4828      	ldr	r0, [pc, #160]	; (80079b4 <t_bus_send+0xe8>)
 8007912:	f002 f8cb 	bl	8009aac <iprintf>
 8007916:	e008      	b.n	800792a <t_bus_send+0x5e>
 8007918:	f7fd f85a 	bl	80049d0 <osDelay>
 800791c:	2002      	movs	r0, #2
 800791e:	f7f9 fc65 	bl	80011ec <opt_get_queue>
 8007922:	2200      	movs	r2, #0
 8007924:	2108      	movs	r1, #8
 8007926:	f7fd f961 	bl	8004bec <osMessagePut>
 800792a:	782b      	ldrb	r3, [r5, #0]
 800792c:	2064      	movs	r0, #100	; 0x64
 800792e:	2b00      	cmp	r3, #0
 8007930:	d0f2      	beq.n	8007918 <t_bus_send+0x4c>
 8007932:	7833      	ldrb	r3, [r6, #0]
 8007934:	2b00      	cmp	r3, #0
 8007936:	d0ef      	beq.n	8007918 <t_bus_send+0x4c>
 8007938:	4e1b      	ldr	r6, [pc, #108]	; (80079a8 <t_bus_send+0xdc>)
 800793a:	2008      	movs	r0, #8
 800793c:	4d19      	ldr	r5, [pc, #100]	; (80079a4 <t_bus_send+0xd8>)
 800793e:	f7fd f847 	bl	80049d0 <osDelay>
 8007942:	2164      	movs	r1, #100	; 0x64
 8007944:	a801      	add	r0, sp, #4
 8007946:	f7fd fac5 	bl	8004ed4 <osDelayUntil>
 800794a:	210a      	movs	r1, #10
 800794c:	4630      	mov	r0, r6
 800794e:	f000 fb59 	bl	8008004 <cam_read>
 8007952:	4603      	mov	r3, r0
 8007954:	210a      	movs	r1, #10
 8007956:	4628      	mov	r0, r5
 8007958:	b913      	cbnz	r3, 8007960 <t_bus_send+0x94>
 800795a:	787b      	ldrb	r3, [r7, #1]
 800795c:	f88d 3010 	strb.w	r3, [sp, #16]
 8007960:	f000 fc32 	bl	80081c8 <lrf_read>
 8007964:	4603      	mov	r3, r0
 8007966:	a802      	add	r0, sp, #8
 8007968:	b97b      	cbnz	r3, 800798a <t_bus_send+0xbe>
 800796a:	f8b4 c006 	ldrh.w	ip, [r4, #6]
 800796e:	8921      	ldrh	r1, [r4, #8]
 8007970:	8962      	ldrh	r2, [r4, #10]
 8007972:	fa9c fc9c 	rev16.w	ip, ip
 8007976:	ba49      	rev16	r1, r1
 8007978:	f88d 3028 	strb.w	r3, [sp, #40]	; 0x28
 800797c:	ba53      	rev16	r3, r2
 800797e:	f8ad c02a 	strh.w	ip, [sp, #42]	; 0x2a
 8007982:	f8ad 102c 	strh.w	r1, [sp, #44]	; 0x2c
 8007986:	f8ad 302e 	strh.w	r3, [sp, #46]	; 0x2e
 800798a:	f001 fb51 	bl	8009030 <hal_bus_send>
 800798e:	a808      	add	r0, sp, #32
 8007990:	f001 fb62 	bl	8009058 <hal_lrf_send>
 8007994:	2002      	movs	r0, #2
 8007996:	f7f9 fc29 	bl	80011ec <opt_get_queue>
 800799a:	2200      	movs	r2, #0
 800799c:	2108      	movs	r1, #8
 800799e:	f7fd f925 	bl	8004bec <osMessagePut>
 80079a2:	e7ce      	b.n	8007942 <t_bus_send+0x76>
 80079a4:	20010748 	.word	0x20010748
 80079a8:	20010734 	.word	0x20010734
 80079ac:	20010778 	.word	0x20010778
 80079b0:	20010779 	.word	0x20010779
 80079b4:	0800c060 	.word	0x0800c060

080079b8 <t_bus_recv>:
 80079b8:	e92d 4ff0 	stmdb	sp!, {r4, r5, r6, r7, r8, r9, sl, fp, lr}
 80079bc:	2300      	movs	r3, #0
 80079be:	4d41      	ldr	r5, [pc, #260]	; (8007ac4 <t_bus_recv+0x10c>)
 80079c0:	4e41      	ldr	r6, [pc, #260]	; (8007ac8 <t_bus_recv+0x110>)
 80079c2:	b087      	sub	sp, #28
 80079c4:	702b      	strb	r3, [r5, #0]
 80079c6:	816b      	strh	r3, [r5, #10]
 80079c8:	8033      	strh	r3, [r6, #0]
 80079ca:	f8c5 3006 	str.w	r3, [r5, #6]
 80079ce:	712b      	strb	r3, [r5, #4]
 80079d0:	f7fc ffce 	bl	8004970 <osKernelSysTick>
 80079d4:	2258      	movs	r2, #88	; 0x58
 80079d6:	4601      	mov	r1, r0
 80079d8:	483c      	ldr	r0, [pc, #240]	; (8007acc <t_bus_recv+0x114>)
 80079da:	f002 f867 	bl	8009aac <iprintf>
 80079de:	f8df 90f8 	ldr.w	r9, [pc, #248]	; 8007ad8 <t_bus_recv+0x120>
 80079e2:	f001 fafd 	bl	8008fe0 <hal_bus_init>
 80079e6:	2001      	movs	r0, #1
 80079e8:	f8df 80f0 	ldr.w	r8, [pc, #240]	; 8007adc <t_bus_recv+0x124>
 80079ec:	f7fc fff0 	bl	80049d0 <osDelay>
 80079f0:	4c37      	ldr	r4, [pc, #220]	; (8007ad0 <t_bus_recv+0x118>)
 80079f2:	f8df a0ec 	ldr.w	sl, [pc, #236]	; 8007ae0 <t_bus_recv+0x128>
 80079f6:	e008      	b.n	8007a0a <t_bus_recv+0x52>
 80079f8:	2b40      	cmp	r3, #64	; 0x40
 80079fa:	d02d      	beq.n	8007a58 <t_bus_recv+0xa0>
 80079fc:	2002      	movs	r0, #2
 80079fe:	f7f9 fbf5 	bl	80011ec <opt_get_queue>
 8007a02:	2200      	movs	r2, #0
 8007a04:	2101      	movs	r1, #1
 8007a06:	f7fd f8f1 	bl	8004bec <osMessagePut>
 8007a0a:	f7f9 fc15 	bl	8001238 <opt_get_bus_mail>
 8007a0e:	f44f 72fa 	mov.w	r2, #500	; 0x1f4
 8007a12:	4601      	mov	r1, r0
 8007a14:	a803      	add	r0, sp, #12
 8007a16:	f7fd fa03 	bl	8004e20 <osMailGet>
 8007a1a:	9b03      	ldr	r3, [sp, #12]
 8007a1c:	2b20      	cmp	r3, #32
 8007a1e:	d1eb      	bne.n	80079f8 <t_bus_recv+0x40>
 8007a20:	9f04      	ldr	r7, [sp, #16]
 8007a22:	7832      	ldrb	r2, [r6, #0]
 8007a24:	7abb      	ldrb	r3, [r7, #10]
 8007a26:	429a      	cmp	r2, r3
 8007a28:	d003      	beq.n	8007a32 <t_bus_recv+0x7a>
 8007a2a:	f000 fae5 	bl	8007ff8 <cam_is_busy>
 8007a2e:	4683      	mov	fp, r0
 8007a30:	b380      	cbz	r0, 8007a94 <t_bus_recv+0xdc>
 8007a32:	782a      	ldrb	r2, [r5, #0]
 8007a34:	7afb      	ldrb	r3, [r7, #11]
 8007a36:	429a      	cmp	r2, r3
 8007a38:	d003      	beq.n	8007a42 <t_bus_recv+0x8a>
 8007a3a:	f000 fbbf 	bl	80081bc <lrf_is_busy>
 8007a3e:	4683      	mov	fp, r0
 8007a40:	b188      	cbz	r0, 8007a66 <t_bus_recv+0xae>
 8007a42:	f7f9 fbf9 	bl	8001238 <opt_get_bus_mail>
 8007a46:	4639      	mov	r1, r7
 8007a48:	f7fd fa2e 	bl	8004ea8 <osMailFree>
 8007a4c:	f44f 7180 	mov.w	r1, #256	; 0x100
 8007a50:	4620      	mov	r0, r4
 8007a52:	f7fb f8e5 	bl	8002c20 <HAL_GPIO_TogglePin>
 8007a56:	e7d1      	b.n	80079fc <t_bus_recv+0x44>
 8007a58:	2201      	movs	r2, #1
 8007a5a:	f44f 7180 	mov.w	r1, #256	; 0x100
 8007a5e:	4620      	mov	r0, r4
 8007a60:	f7fb f8da 	bl	8002c18 <HAL_GPIO_WritePin>
 8007a64:	e7ca      	b.n	80079fc <t_bus_recv+0x44>
 8007a66:	f7fc ff83 	bl	8004970 <osKernelSysTick>
 8007a6a:	782a      	ldrb	r2, [r5, #0]
 8007a6c:	4601      	mov	r1, r0
 8007a6e:	7afb      	ldrb	r3, [r7, #11]
 8007a70:	4650      	mov	r0, sl
 8007a72:	9200      	str	r2, [sp, #0]
 8007a74:	2271      	movs	r2, #113	; 0x71
 8007a76:	f002 f819 	bl	8009aac <iprintf>
 8007a7a:	f898 0000 	ldrb.w	r0, [r8]
 8007a7e:	2801      	cmp	r0, #1
 8007a80:	d1df      	bne.n	8007a42 <t_bus_recv+0x8a>
 8007a82:	f7f9 fbb3 	bl	80011ec <opt_get_queue>
 8007a86:	465a      	mov	r2, fp
 8007a88:	7af9      	ldrb	r1, [r7, #11]
 8007a8a:	f7fd f8af 	bl	8004bec <osMessagePut>
 8007a8e:	7afb      	ldrb	r3, [r7, #11]
 8007a90:	702b      	strb	r3, [r5, #0]
 8007a92:	e7d6      	b.n	8007a42 <t_bus_recv+0x8a>
 8007a94:	f7fc ff6c 	bl	8004970 <osKernelSysTick>
 8007a98:	7832      	ldrb	r2, [r6, #0]
 8007a9a:	7abb      	ldrb	r3, [r7, #10]
 8007a9c:	4601      	mov	r1, r0
 8007a9e:	9200      	str	r2, [sp, #0]
 8007aa0:	2268      	movs	r2, #104	; 0x68
 8007aa2:	480c      	ldr	r0, [pc, #48]	; (8007ad4 <t_bus_recv+0x11c>)
 8007aa4:	f002 f802 	bl	8009aac <iprintf>
 8007aa8:	f899 3000 	ldrb.w	r3, [r9]
 8007aac:	2b01      	cmp	r3, #1
 8007aae:	d1c0      	bne.n	8007a32 <t_bus_recv+0x7a>
 8007ab0:	4658      	mov	r0, fp
 8007ab2:	f7f9 fb9b 	bl	80011ec <opt_get_queue>
 8007ab6:	465a      	mov	r2, fp
 8007ab8:	7ab9      	ldrb	r1, [r7, #10]
 8007aba:	f7fd f897 	bl	8004bec <osMessagePut>
 8007abe:	7abb      	ldrb	r3, [r7, #10]
 8007ac0:	7033      	strb	r3, [r6, #0]
 8007ac2:	e7b6      	b.n	8007a32 <t_bus_recv+0x7a>
 8007ac4:	20010738 	.word	0x20010738
 8007ac8:	20010730 	.word	0x20010730
 8007acc:	0800c07c 	.word	0x0800c07c
 8007ad0:	40020000 	.word	0x40020000
 8007ad4:	0800c098 	.word	0x0800c098
 8007ad8:	20010778 	.word	0x20010778
 8007adc:	20010779 	.word	0x20010779
 8007ae0:	0800c0c4 	.word	0x0800c0c4

08007ae4 <cam_timer_stop>:
 8007ae4:	b508      	push	{r3, lr}
 8007ae6:	2000      	movs	r0, #0
 8007ae8:	f7f9 fb64 	bl	80011b4 <opt_get_timer>
 8007aec:	f7fc ffbc 	bl	8004a68 <osTimerStop>
 8007af0:	2001      	movs	r0, #1
 8007af2:	f7f9 fb5f 	bl	80011b4 <opt_get_timer>
 8007af6:	f7fc ffb7 	bl	8004a68 <osTimerStop>
 8007afa:	f7fc ff39 	bl	8004970 <osKernelSysTick>
 8007afe:	2239      	movs	r2, #57	; 0x39
 8007b00:	4601      	mov	r1, r0
 8007b02:	4802      	ldr	r0, [pc, #8]	; (8007b0c <cam_timer_stop+0x28>)
 8007b04:	e8bd 4008 	ldmia.w	sp!, {r3, lr}
 8007b08:	f001 bfd0 	b.w	8009aac <iprintf>
 8007b0c:	0800c0f0 	.word	0x0800c0f0

08007b10 <cam_timer_start>:
 8007b10:	b508      	push	{r3, lr}
 8007b12:	2000      	movs	r0, #0
 8007b14:	f7f9 fb4e 	bl	80011b4 <opt_get_timer>
 8007b18:	f44f 71fa 	mov.w	r1, #500	; 0x1f4
 8007b1c:	f7fc ff74 	bl	8004a08 <osTimerStart>
 8007b20:	2001      	movs	r0, #1
 8007b22:	f7f9 fb47 	bl	80011b4 <opt_get_timer>
 8007b26:	f242 7110 	movw	r1, #10000	; 0x2710
 8007b2a:	f7fc ff6d 	bl	8004a08 <osTimerStart>
 8007b2e:	f7fc ff1f 	bl	8004970 <osKernelSysTick>
 8007b32:	2232      	movs	r2, #50	; 0x32
 8007b34:	4601      	mov	r1, r0
 8007b36:	4802      	ldr	r0, [pc, #8]	; (8007b40 <cam_timer_start+0x30>)
 8007b38:	e8bd 4008 	ldmia.w	sp!, {r3, lr}
 8007b3c:	f001 bfb6 	b.w	8009aac <iprintf>
 8007b40:	0800c10c 	.word	0x0800c10c

08007b44 <cam_select>:
 8007b44:	b538      	push	{r3, r4, r5, lr}
 8007b46:	4604      	mov	r4, r0
 8007b48:	2200      	movs	r2, #0
 8007b4a:	2140      	movs	r1, #64	; 0x40
 8007b4c:	4830      	ldr	r0, [pc, #192]	; (8007c10 <cam_select+0xcc>)
 8007b4e:	f7fb f863 	bl	8002c18 <HAL_GPIO_WritePin>
 8007b52:	2c00      	cmp	r4, #0
 8007b54:	d031      	beq.n	8007bba <cam_select+0x76>
 8007b56:	4d2f      	ldr	r5, [pc, #188]	; (8007c14 <cam_select+0xd0>)
 8007b58:	2000      	movs	r0, #0
 8007b5a:	4c2f      	ldr	r4, [pc, #188]	; (8007c18 <cam_select+0xd4>)
 8007b5c:	682b      	ldr	r3, [r5, #0]
 8007b5e:	4798      	blx	r3
 8007b60:	482b      	ldr	r0, [pc, #172]	; (8007c10 <cam_select+0xcc>)
 8007b62:	2201      	movs	r2, #1
 8007b64:	2110      	movs	r1, #16
 8007b66:	f7fb f857 	bl	8002c18 <HAL_GPIO_WritePin>
 8007b6a:	4b2c      	ldr	r3, [pc, #176]	; (8007c1c <cam_select+0xd8>)
 8007b6c:	492c      	ldr	r1, [pc, #176]	; (8007c20 <cam_select+0xdc>)
 8007b6e:	4a2d      	ldr	r2, [pc, #180]	; (8007c24 <cam_select+0xe0>)
 8007b70:	6019      	str	r1, [r3, #0]
 8007b72:	492d      	ldr	r1, [pc, #180]	; (8007c28 <cam_select+0xe4>)
 8007b74:	4b2d      	ldr	r3, [pc, #180]	; (8007c2c <cam_select+0xe8>)
 8007b76:	6011      	str	r1, [r2, #0]
 8007b78:	492d      	ldr	r1, [pc, #180]	; (8007c30 <cam_select+0xec>)
 8007b7a:	4a2e      	ldr	r2, [pc, #184]	; (8007c34 <cam_select+0xf0>)
 8007b7c:	6019      	str	r1, [r3, #0]
 8007b7e:	492e      	ldr	r1, [pc, #184]	; (8007c38 <cam_select+0xf4>)
 8007b80:	4b2e      	ldr	r3, [pc, #184]	; (8007c3c <cam_select+0xf8>)
 8007b82:	6011      	str	r1, [r2, #0]
 8007b84:	492e      	ldr	r1, [pc, #184]	; (8007c40 <cam_select+0xfc>)
 8007b86:	4a2f      	ldr	r2, [pc, #188]	; (8007c44 <cam_select+0x100>)
 8007b88:	6019      	str	r1, [r3, #0]
 8007b8a:	4b2f      	ldr	r3, [pc, #188]	; (8007c48 <cam_select+0x104>)
 8007b8c:	602a      	str	r2, [r5, #0]
 8007b8e:	6023      	str	r3, [r4, #0]
 8007b90:	f001 f982 	bl	8008e98 <tbt_init>
 8007b94:	f241 3088 	movw	r0, #5000	; 0x1388
 8007b98:	f7f9 fb54 	bl	8001244 <HAL_Delay>
 8007b9c:	6823      	ldr	r3, [r4, #0]
 8007b9e:	2001      	movs	r0, #1
 8007ba0:	4798      	blx	r3
 8007ba2:	2201      	movs	r2, #1
 8007ba4:	2140      	movs	r1, #64	; 0x40
 8007ba6:	481a      	ldr	r0, [pc, #104]	; (8007c10 <cam_select+0xcc>)
 8007ba8:	f7fb f836 	bl	8002c18 <HAL_GPIO_WritePin>
 8007bac:	2201      	movs	r2, #1
 8007bae:	2120      	movs	r1, #32
 8007bb0:	4817      	ldr	r0, [pc, #92]	; (8007c10 <cam_select+0xcc>)
 8007bb2:	e8bd 4038 	ldmia.w	sp!, {r3, r4, r5, lr}
 8007bb6:	f7fb b82f 	b.w	8002c18 <HAL_GPIO_WritePin>
 8007bba:	4622      	mov	r2, r4
 8007bbc:	2120      	movs	r1, #32
 8007bbe:	4814      	ldr	r0, [pc, #80]	; (8007c10 <cam_select+0xcc>)
 8007bc0:	f7fb f82a 	bl	8002c18 <HAL_GPIO_WritePin>
 8007bc4:	4622      	mov	r2, r4
 8007bc6:	2110      	movs	r1, #16
 8007bc8:	4811      	ldr	r0, [pc, #68]	; (8007c10 <cam_select+0xcc>)
 8007bca:	f7fb f825 	bl	8002c18 <HAL_GPIO_WritePin>
 8007bce:	4b15      	ldr	r3, [pc, #84]	; (8007c24 <cam_select+0xe0>)
 8007bd0:	4a1e      	ldr	r2, [pc, #120]	; (8007c4c <cam_select+0x108>)
 8007bd2:	4912      	ldr	r1, [pc, #72]	; (8007c1c <cam_select+0xd8>)
 8007bd4:	601a      	str	r2, [r3, #0]
 8007bd6:	481e      	ldr	r0, [pc, #120]	; (8007c50 <cam_select+0x10c>)
 8007bd8:	4b16      	ldr	r3, [pc, #88]	; (8007c34 <cam_select+0xf0>)
 8007bda:	4a1e      	ldr	r2, [pc, #120]	; (8007c54 <cam_select+0x110>)
 8007bdc:	6008      	str	r0, [r1, #0]
 8007bde:	601a      	str	r2, [r3, #0]
 8007be0:	4d0c      	ldr	r5, [pc, #48]	; (8007c14 <cam_select+0xd0>)
 8007be2:	4912      	ldr	r1, [pc, #72]	; (8007c2c <cam_select+0xe8>)
 8007be4:	481c      	ldr	r0, [pc, #112]	; (8007c58 <cam_select+0x114>)
 8007be6:	4a1d      	ldr	r2, [pc, #116]	; (8007c5c <cam_select+0x118>)
 8007be8:	6008      	str	r0, [r1, #0]
 8007bea:	4b0b      	ldr	r3, [pc, #44]	; (8007c18 <cam_select+0xd4>)
 8007bec:	4913      	ldr	r1, [pc, #76]	; (8007c3c <cam_select+0xf8>)
 8007bee:	481c      	ldr	r0, [pc, #112]	; (8007c60 <cam_select+0x11c>)
 8007bf0:	602a      	str	r2, [r5, #0]
 8007bf2:	4a1c      	ldr	r2, [pc, #112]	; (8007c64 <cam_select+0x120>)
 8007bf4:	6008      	str	r0, [r1, #0]
 8007bf6:	601a      	str	r2, [r3, #0]
 8007bf8:	f001 f85e 	bl	8008cb8 <sony_init>
 8007bfc:	2001      	movs	r0, #1
 8007bfe:	682b      	ldr	r3, [r5, #0]
 8007c00:	4798      	blx	r3
 8007c02:	2201      	movs	r2, #1
 8007c04:	2140      	movs	r1, #64	; 0x40
 8007c06:	4802      	ldr	r0, [pc, #8]	; (8007c10 <cam_select+0xcc>)
 8007c08:	e8bd 4038 	ldmia.w	sp!, {r3, r4, r5, lr}
 8007c0c:	f7fb b804 	b.w	8002c18 <HAL_GPIO_WritePin>
 8007c10:	40020000 	.word	0x40020000
 8007c14:	2001076c 	.word	0x2001076c
 8007c18:	20010770 	.word	0x20010770
 8007c1c:	20010774 	.word	0x20010774
 8007c20:	08008ea5 	.word	0x08008ea5
 8007c24:	20010758 	.word	0x20010758
 8007c28:	08008edd 	.word	0x08008edd
 8007c2c:	20010764 	.word	0x20010764
 8007c30:	08008f0d 	.word	0x08008f0d
 8007c34:	20010760 	.word	0x20010760
 8007c38:	08008f45 	.word	0x08008f45
 8007c3c:	20010768 	.word	0x20010768
 8007c40:	08008f7d 	.word	0x08008f7d
 8007c44:	08008fad 	.word	0x08008fad
 8007c48:	08008fbd 	.word	0x08008fbd
 8007c4c:	08008d21 	.word	0x08008d21
 8007c50:	08008ce1 	.word	0x08008ce1
 8007c54:	08008d9d 	.word	0x08008d9d
 8007c58:	08008d55 	.word	0x08008d55
 8007c5c:	08008e19 	.word	0x08008e19
 8007c60:	08008de5 	.word	0x08008de5
 8007c64:	08008e8d 	.word	0x08008e8d

08007c68 <osTimerCameraNotifCallback>:
 8007c68:	b508      	push	{r3, lr}
 8007c6a:	2002      	movs	r0, #2
 8007c6c:	f7f9 fabe 	bl	80011ec <opt_get_queue>
 8007c70:	2200      	movs	r2, #0
 8007c72:	2102      	movs	r1, #2
 8007c74:	e8bd 4008 	ldmia.w	sp!, {r3, lr}
 8007c78:	f7fc bfb8 	b.w	8004bec <osMessagePut>

08007c7c <osTimerCameraTimeoutCallback>:
 8007c7c:	b508      	push	{r3, lr}
 8007c7e:	2000      	movs	r0, #0
 8007c80:	f7f9 fa98 	bl	80011b4 <opt_get_timer>
 8007c84:	f7fc fef0 	bl	8004a68 <osTimerStop>
 8007c88:	2001      	movs	r0, #1
 8007c8a:	f7f9 fa93 	bl	80011b4 <opt_get_timer>
 8007c8e:	f7fc feeb 	bl	8004a68 <osTimerStop>
 8007c92:	f7fc fe6d 	bl	8004970 <osKernelSysTick>
 8007c96:	2239      	movs	r2, #57	; 0x39
 8007c98:	4601      	mov	r1, r0
 8007c9a:	4804      	ldr	r0, [pc, #16]	; (8007cac <osTimerCameraTimeoutCallback+0x30>)
 8007c9c:	f001 ff06 	bl	8009aac <iprintf>
 8007ca0:	214d      	movs	r1, #77	; 0x4d
 8007ca2:	4803      	ldr	r0, [pc, #12]	; (8007cb0 <osTimerCameraTimeoutCallback+0x34>)
 8007ca4:	e8bd 4008 	ldmia.w	sp!, {r3, lr}
 8007ca8:	f001 bf00 	b.w	8009aac <iprintf>
 8007cac:	0800c0f0 	.word	0x0800c0f0
 8007cb0:	0800c128 	.word	0x0800c128

08007cb4 <t_camera>:
 8007cb4:	e92d 4ff0 	stmdb	sp!, {r4, r5, r6, r7, r8, r9, sl, fp, lr}
 8007cb8:	4cbc      	ldr	r4, [pc, #752]	; (8007fac <t_camera+0x2f8>)
 8007cba:	b087      	sub	sp, #28
 8007cbc:	f7fc fe58 	bl	8004970 <osKernelSysTick>
 8007cc0:	2256      	movs	r2, #86	; 0x56
 8007cc2:	4601      	mov	r1, r0
 8007cc4:	48ba      	ldr	r0, [pc, #744]	; (8007fb0 <t_camera+0x2fc>)
 8007cc6:	f001 fef1 	bl	8009aac <iprintf>
 8007cca:	4dba      	ldr	r5, [pc, #744]	; (8007fb4 <t_camera+0x300>)
 8007ccc:	f7ff ff20 	bl	8007b10 <cam_timer_start>
 8007cd0:	7860      	ldrb	r0, [r4, #1]
 8007cd2:	2307      	movs	r3, #7
 8007cd4:	f04f 0900 	mov.w	r9, #0
 8007cd8:	f000 0001 	and.w	r0, r0, #1
 8007cdc:	f8df b2fc 	ldr.w	fp, [pc, #764]	; 8007fdc <t_camera+0x328>
 8007ce0:	9301      	str	r3, [sp, #4]
 8007ce2:	f7ff ff2f 	bl	8007b44 <cam_select>
 8007ce6:	f7ff fefd 	bl	8007ae4 <cam_timer_stop>
 8007cea:	f7fc fe41 	bl	8004970 <osKernelSysTick>
 8007cee:	2269      	movs	r2, #105	; 0x69
 8007cf0:	4601      	mov	r1, r0
 8007cf2:	48b1      	ldr	r0, [pc, #708]	; (8007fb8 <t_camera+0x304>)
 8007cf4:	f001 feda 	bl	8009aac <iprintf>
 8007cf8:	2002      	movs	r0, #2
 8007cfa:	f7fc fe69 	bl	80049d0 <osDelay>
 8007cfe:	e015      	b.n	8007d2c <t_camera+0x78>
 8007d00:	782b      	ldrb	r3, [r5, #0]
 8007d02:	b963      	cbnz	r3, 8007d1e <t_camera+0x6a>
 8007d04:	f7fc fe34 	bl	8004970 <osKernelSysTick>
 8007d08:	f641 534b 	movw	r3, #7499	; 0x1d4b
 8007d0c:	4298      	cmp	r0, r3
 8007d0e:	d906      	bls.n	8007d1e <t_camera+0x6a>
 8007d10:	7860      	ldrb	r0, [r4, #1]
 8007d12:	f000 0001 	and.w	r0, r0, #1
 8007d16:	f7ff ff15 	bl	8007b44 <cam_select>
 8007d1a:	2301      	movs	r3, #1
 8007d1c:	702b      	strb	r3, [r5, #0]
 8007d1e:	2002      	movs	r0, #2
 8007d20:	f7f9 fa64 	bl	80011ec <opt_get_queue>
 8007d24:	2200      	movs	r2, #0
 8007d26:	2102      	movs	r1, #2
 8007d28:	f7fc ff60 	bl	8004bec <osMessagePut>
 8007d2c:	2000      	movs	r0, #0
 8007d2e:	f7f9 fa5d 	bl	80011ec <opt_get_queue>
 8007d32:	f44f 727a 	mov.w	r2, #1000	; 0x3e8
 8007d36:	4601      	mov	r1, r0
 8007d38:	a803      	add	r0, sp, #12
 8007d3a:	f7fc ff83 	bl	8004c44 <osMessageGet>
 8007d3e:	9b03      	ldr	r3, [sp, #12]
 8007d40:	2b10      	cmp	r3, #16
 8007d42:	d1dd      	bne.n	8007d00 <t_camera+0x4c>
 8007d44:	f89d 7010 	ldrb.w	r7, [sp, #16]
 8007d48:	7823      	ldrb	r3, [r4, #0]
 8007d4a:	42bb      	cmp	r3, r7
 8007d4c:	d0d8      	beq.n	8007d00 <t_camera+0x4c>
 8007d4e:	2000      	movs	r0, #0
 8007d50:	f7f9 fa62 	bl	8001218 <opt_get_mutex>
 8007d54:	2164      	movs	r1, #100	; 0x64
 8007d56:	f7fc feb7 	bl	8004ac8 <osMutexWait>
 8007d5a:	4680      	mov	r8, r0
 8007d5c:	bb60      	cbnz	r0, 8007db8 <t_camera+0x104>
 8007d5e:	7823      	ldrb	r3, [r4, #0]
 8007d60:	f04f 0a01 	mov.w	sl, #1
 8007d64:	407b      	eors	r3, r7
 8007d66:	f884 a002 	strb.w	sl, [r4, #2]
 8007d6a:	07da      	lsls	r2, r3, #31
 8007d6c:	d429      	bmi.n	8007dc2 <t_camera+0x10e>
 8007d6e:	f013 0f06 	tst.w	r3, #6
 8007d72:	d016      	beq.n	8007da2 <t_camera+0xee>
 8007d74:	f007 0306 	and.w	r3, r7, #6
 8007d78:	2b02      	cmp	r3, #2
 8007d7a:	f000 80b0 	beq.w	8007ede <t_camera+0x22a>
 8007d7e:	2b04      	cmp	r3, #4
 8007d80:	f000 80ce 	beq.w	8007f20 <t_camera+0x26c>
 8007d84:	7822      	ldrb	r2, [r4, #0]
 8007d86:	f3c7 0341 	ubfx	r3, r7, #1, #2
 8007d8a:	f363 0242 	bfi	r2, r3, #1, #2
 8007d8e:	b2d3      	uxtb	r3, r2
 8007d90:	7022      	strb	r2, [r4, #0]
 8007d92:	f012 0206 	ands.w	r2, r2, #6
 8007d96:	ea83 0307 	eor.w	r3, r3, r7
 8007d9a:	f040 8099 	bne.w	8007ed0 <t_camera+0x21c>
 8007d9e:	2204      	movs	r2, #4
 8007da0:	9201      	str	r2, [sp, #4]
 8007da2:	f013 0f18 	tst.w	r3, #24
 8007da6:	d15d      	bne.n	8007e64 <t_camera+0x1b0>
 8007da8:	2000      	movs	r0, #0
 8007daa:	f884 9002 	strb.w	r9, [r4, #2]
 8007dae:	f7f9 fa33 	bl	8001218 <opt_get_mutex>
 8007db2:	f7fc feb5 	bl	8004b20 <osMutexRelease>
 8007db6:	e7a3      	b.n	8007d00 <t_camera+0x4c>
 8007db8:	21e3      	movs	r1, #227	; 0xe3
 8007dba:	4658      	mov	r0, fp
 8007dbc:	f001 fe76 	bl	8009aac <iprintf>
 8007dc0:	e79e      	b.n	8007d00 <t_camera+0x4c>
 8007dc2:	ea07 060a 	and.w	r6, r7, sl
 8007dc6:	f7fc fdd3 	bl	8004970 <osKernelSysTick>
 8007dca:	227a      	movs	r2, #122	; 0x7a
 8007dcc:	4601      	mov	r1, r0
 8007dce:	4633      	mov	r3, r6
 8007dd0:	487a      	ldr	r0, [pc, #488]	; (8007fbc <t_camera+0x308>)
 8007dd2:	f001 fe6b 	bl	8009aac <iprintf>
 8007dd6:	4640      	mov	r0, r8
 8007dd8:	f7f9 f9ec 	bl	80011b4 <opt_get_timer>
 8007ddc:	f44f 71fa 	mov.w	r1, #500	; 0x1f4
 8007de0:	f7fc fe12 	bl	8004a08 <osTimerStart>
 8007de4:	4650      	mov	r0, sl
 8007de6:	f7f9 f9e5 	bl	80011b4 <opt_get_timer>
 8007dea:	f242 7110 	movw	r1, #10000	; 0x2710
 8007dee:	f7fc fe0b 	bl	8004a08 <osTimerStart>
 8007df2:	f7fc fdbd 	bl	8004970 <osKernelSysTick>
 8007df6:	2232      	movs	r2, #50	; 0x32
 8007df8:	4601      	mov	r1, r0
 8007dfa:	4871      	ldr	r0, [pc, #452]	; (8007fc0 <t_camera+0x30c>)
 8007dfc:	f001 fe56 	bl	8009aac <iprintf>
 8007e00:	4630      	mov	r0, r6
 8007e02:	f7ff fe9f 	bl	8007b44 <cam_select>
 8007e06:	7822      	ldrb	r2, [r4, #0]
 8007e08:	f017 0701 	ands.w	r7, r7, #1
 8007e0c:	f366 0200 	bfi	r2, r6, #0, #1
 8007e10:	7022      	strb	r2, [r4, #0]
 8007e12:	d111      	bne.n	8007e38 <t_camera+0x184>
 8007e14:	4b6b      	ldr	r3, [pc, #428]	; (8007fc4 <t_camera+0x310>)
 8007e16:	4556      	cmp	r6, sl
 8007e18:	681a      	ldr	r2, [r3, #0]
 8007e1a:	f04f 0307 	mov.w	r3, #7
 8007e1e:	bf14      	ite	ne
 8007e20:	f44f 5000 	movne.w	r0, #8192	; 0x2000
 8007e24:	4650      	moveq	r0, sl
 8007e26:	9301      	str	r3, [sp, #4]
 8007e28:	4790      	blx	r2
 8007e2a:	4b67      	ldr	r3, [pc, #412]	; (8007fc8 <t_camera+0x314>)
 8007e2c:	681a      	ldr	r2, [r3, #0]
 8007e2e:	4790      	blx	r2
 8007e30:	7862      	ldrb	r2, [r4, #1]
 8007e32:	f367 0242 	bfi	r2, r7, #1, #2
 8007e36:	7062      	strb	r2, [r4, #1]
 8007e38:	7862      	ldrb	r2, [r4, #1]
 8007e3a:	2000      	movs	r0, #0
 8007e3c:	f366 0200 	bfi	r2, r6, #0, #1
 8007e40:	7062      	strb	r2, [r4, #1]
 8007e42:	f7f9 f9b7 	bl	80011b4 <opt_get_timer>
 8007e46:	f7fc fe0f 	bl	8004a68 <osTimerStop>
 8007e4a:	2001      	movs	r0, #1
 8007e4c:	f7f9 f9b2 	bl	80011b4 <opt_get_timer>
 8007e50:	f7fc fe0a 	bl	8004a68 <osTimerStop>
 8007e54:	f7fc fd8c 	bl	8004970 <osKernelSysTick>
 8007e58:	2239      	movs	r2, #57	; 0x39
 8007e5a:	4601      	mov	r1, r0
 8007e5c:	485b      	ldr	r0, [pc, #364]	; (8007fcc <t_camera+0x318>)
 8007e5e:	f001 fe25 	bl	8009aac <iprintf>
 8007e62:	e7a1      	b.n	8007da8 <t_camera+0xf4>
 8007e64:	2000      	movs	r0, #0
 8007e66:	f7f9 f9a5 	bl	80011b4 <opt_get_timer>
 8007e6a:	f44f 71fa 	mov.w	r1, #500	; 0x1f4
 8007e6e:	f7fc fdcb 	bl	8004a08 <osTimerStart>
 8007e72:	2001      	movs	r0, #1
 8007e74:	f7f9 f99e 	bl	80011b4 <opt_get_timer>
 8007e78:	f242 7110 	movw	r1, #10000	; 0x2710
 8007e7c:	f7fc fdc4 	bl	8004a08 <osTimerStart>
 8007e80:	f7fc fd76 	bl	8004970 <osKernelSysTick>
 8007e84:	2232      	movs	r2, #50	; 0x32
 8007e86:	4601      	mov	r1, r0
 8007e88:	484d      	ldr	r0, [pc, #308]	; (8007fc0 <t_camera+0x30c>)
 8007e8a:	f001 fe0f 	bl	8009aac <iprintf>
 8007e8e:	f007 0318 	and.w	r3, r7, #24
 8007e92:	2b08      	cmp	r3, #8
 8007e94:	d03f      	beq.n	8007f16 <t_camera+0x262>
 8007e96:	2b10      	cmp	r3, #16
 8007e98:	d06e      	beq.n	8007f78 <t_camera+0x2c4>
 8007e9a:	4b4d      	ldr	r3, [pc, #308]	; (8007fd0 <t_camera+0x31c>)
 8007e9c:	681b      	ldr	r3, [r3, #0]
 8007e9e:	4798      	blx	r3
 8007ea0:	2000      	movs	r0, #0
 8007ea2:	f3c7 07c1 	ubfx	r7, r7, #3, #2
 8007ea6:	f7f9 f985 	bl	80011b4 <opt_get_timer>
 8007eaa:	f7fc fddd 	bl	8004a68 <osTimerStop>
 8007eae:	2001      	movs	r0, #1
 8007eb0:	f7f9 f980 	bl	80011b4 <opt_get_timer>
 8007eb4:	f7fc fdd8 	bl	8004a68 <osTimerStop>
 8007eb8:	f7fc fd5a 	bl	8004970 <osKernelSysTick>
 8007ebc:	2239      	movs	r2, #57	; 0x39
 8007ebe:	4601      	mov	r1, r0
 8007ec0:	4842      	ldr	r0, [pc, #264]	; (8007fcc <t_camera+0x318>)
 8007ec2:	f001 fdf3 	bl	8009aac <iprintf>
 8007ec6:	7823      	ldrb	r3, [r4, #0]
 8007ec8:	f367 03c4 	bfi	r3, r7, #3, #2
 8007ecc:	7023      	strb	r3, [r4, #0]
 8007ece:	e76b      	b.n	8007da8 <t_camera+0xf4>
 8007ed0:	2a02      	cmp	r2, #2
 8007ed2:	d04e      	beq.n	8007f72 <t_camera+0x2be>
 8007ed4:	2a04      	cmp	r2, #4
 8007ed6:	bf04      	itt	eq
 8007ed8:	2202      	moveq	r2, #2
 8007eda:	9201      	streq	r2, [sp, #4]
 8007edc:	e761      	b.n	8007da2 <t_camera+0xee>
 8007ede:	7863      	ldrb	r3, [r4, #1]
 8007ee0:	f3c3 0241 	ubfx	r2, r3, #1, #2
 8007ee4:	2a01      	cmp	r2, #1
 8007ee6:	f63f af4d 	bhi.w	8007d84 <t_camera+0xd0>
 8007eea:	3201      	adds	r2, #1
 8007eec:	f362 0342 	bfi	r3, r2, #1, #2
 8007ef0:	7063      	strb	r3, [r4, #1]
 8007ef2:	f7ff fe0d 	bl	8007b10 <cam_timer_start>
 8007ef6:	7863      	ldrb	r3, [r4, #1]
 8007ef8:	4a32      	ldr	r2, [pc, #200]	; (8007fc4 <t_camera+0x310>)
 8007efa:	07de      	lsls	r6, r3, #31
 8007efc:	6811      	ldr	r1, [r2, #0]
 8007efe:	f3c3 0241 	ubfx	r2, r3, #1, #2
 8007f02:	d46d      	bmi.n	8007fe0 <t_camera+0x32c>
 8007f04:	2a01      	cmp	r2, #1
 8007f06:	d044      	beq.n	8007f92 <t_camera+0x2de>
 8007f08:	2a02      	cmp	r2, #2
 8007f0a:	bf0c      	ite	eq
 8007f0c:	f44f 40c0 	moveq.w	r0, #24576	; 0x6000
 8007f10:	f44f 5000 	movne.w	r0, #8192	; 0x2000
 8007f14:	e020      	b.n	8007f58 <t_camera+0x2a4>
 8007f16:	4b2f      	ldr	r3, [pc, #188]	; (8007fd4 <t_camera+0x320>)
 8007f18:	9801      	ldr	r0, [sp, #4]
 8007f1a:	681b      	ldr	r3, [r3, #0]
 8007f1c:	4798      	blx	r3
 8007f1e:	e7bf      	b.n	8007ea0 <t_camera+0x1ec>
 8007f20:	7863      	ldrb	r3, [r4, #1]
 8007f22:	f013 0f06 	tst.w	r3, #6
 8007f26:	f43f af2d 	beq.w	8007d84 <t_camera+0xd0>
 8007f2a:	f3c3 0241 	ubfx	r2, r3, #1, #2
 8007f2e:	3203      	adds	r2, #3
 8007f30:	f362 0342 	bfi	r3, r2, #1, #2
 8007f34:	7063      	strb	r3, [r4, #1]
 8007f36:	f7ff fdeb 	bl	8007b10 <cam_timer_start>
 8007f3a:	7862      	ldrb	r2, [r4, #1]
 8007f3c:	4b21      	ldr	r3, [pc, #132]	; (8007fc4 <t_camera+0x310>)
 8007f3e:	6819      	ldr	r1, [r3, #0]
 8007f40:	f3c2 0341 	ubfx	r3, r2, #1, #2
 8007f44:	07d2      	lsls	r2, r2, #31
 8007f46:	d41c      	bmi.n	8007f82 <t_camera+0x2ce>
 8007f48:	2b01      	cmp	r3, #1
 8007f4a:	d022      	beq.n	8007f92 <t_camera+0x2de>
 8007f4c:	2b02      	cmp	r3, #2
 8007f4e:	bf0c      	ite	eq
 8007f50:	f44f 40c0 	moveq.w	r0, #24576	; 0x6000
 8007f54:	f44f 5000 	movne.w	r0, #8192	; 0x2000
 8007f58:	4788      	blx	r1
 8007f5a:	7863      	ldrb	r3, [r4, #1]
 8007f5c:	07d8      	lsls	r0, r3, #31
 8007f5e:	d420      	bmi.n	8007fa2 <t_camera+0x2ee>
 8007f60:	4b19      	ldr	r3, [pc, #100]	; (8007fc8 <t_camera+0x314>)
 8007f62:	681b      	ldr	r3, [r3, #0]
 8007f64:	4798      	blx	r3
 8007f66:	7863      	ldrb	r3, [r4, #1]
 8007f68:	07d9      	lsls	r1, r3, #31
 8007f6a:	d415      	bmi.n	8007f98 <t_camera+0x2e4>
 8007f6c:	f7ff fdba 	bl	8007ae4 <cam_timer_stop>
 8007f70:	e708      	b.n	8007d84 <t_camera+0xd0>
 8007f72:	2203      	movs	r2, #3
 8007f74:	9201      	str	r2, [sp, #4]
 8007f76:	e714      	b.n	8007da2 <t_camera+0xee>
 8007f78:	4b17      	ldr	r3, [pc, #92]	; (8007fd8 <t_camera+0x324>)
 8007f7a:	9801      	ldr	r0, [sp, #4]
 8007f7c:	681b      	ldr	r3, [r3, #0]
 8007f7e:	4798      	blx	r3
 8007f80:	e78e      	b.n	8007ea0 <t_camera+0x1ec>
 8007f82:	2b01      	cmp	r3, #1
 8007f84:	d034      	beq.n	8007ff0 <t_camera+0x33c>
 8007f86:	2b02      	cmp	r3, #2
 8007f88:	f642 60df 	movw	r0, #11999	; 0x2edf
 8007f8c:	bf18      	it	ne
 8007f8e:	2001      	movne	r0, #1
 8007f90:	e7e2      	b.n	8007f58 <t_camera+0x2a4>
 8007f92:	f44f 4080 	mov.w	r0, #16384	; 0x4000
 8007f96:	e7df      	b.n	8007f58 <t_camera+0x2a4>
 8007f98:	f640 30b8 	movw	r0, #3000	; 0xbb8
 8007f9c:	f7fc fd18 	bl	80049d0 <osDelay>
 8007fa0:	e7e4      	b.n	8007f6c <t_camera+0x2b8>
 8007fa2:	f640 30b8 	movw	r0, #3000	; 0xbb8
 8007fa6:	f7fc fd13 	bl	80049d0 <osDelay>
 8007faa:	e7d9      	b.n	8007f60 <t_camera+0x2ac>
 8007fac:	2001075c 	.word	0x2001075c
 8007fb0:	0800c144 	.word	0x0800c144
 8007fb4:	20010778 	.word	0x20010778
 8007fb8:	0800c160 	.word	0x0800c160
 8007fbc:	0800c180 	.word	0x0800c180
 8007fc0:	0800c10c 	.word	0x0800c10c
 8007fc4:	20010774 	.word	0x20010774
 8007fc8:	20010758 	.word	0x20010758
 8007fcc:	0800c0f0 	.word	0x0800c0f0
 8007fd0:	20010768 	.word	0x20010768
 8007fd4:	20010760 	.word	0x20010760
 8007fd8:	20010764 	.word	0x20010764
 8007fdc:	0800c19c 	.word	0x0800c19c
 8007fe0:	2a01      	cmp	r2, #1
 8007fe2:	d005      	beq.n	8007ff0 <t_camera+0x33c>
 8007fe4:	2a02      	cmp	r2, #2
 8007fe6:	f642 60df 	movw	r0, #11999	; 0x2edf
 8007fea:	bf18      	it	ne
 8007fec:	2001      	movne	r0, #1
 8007fee:	e7b3      	b.n	8007f58 <t_camera+0x2a4>
 8007ff0:	f241 6094 	movw	r0, #5780	; 0x1694
 8007ff4:	e7b0      	b.n	8007f58 <t_camera+0x2a4>
 8007ff6:	bf00      	nop

08007ff8 <cam_is_busy>:
 8007ff8:	4b01      	ldr	r3, [pc, #4]	; (8008000 <cam_is_busy+0x8>)
 8007ffa:	7898      	ldrb	r0, [r3, #2]
 8007ffc:	4770      	bx	lr
 8007ffe:	bf00      	nop
 8008000:	2001075c 	.word	0x2001075c

08008004 <cam_read>:
 8008004:	b510      	push	{r4, lr}
 8008006:	b082      	sub	sp, #8
 8008008:	4604      	mov	r4, r0
 800800a:	2000      	movs	r0, #0
 800800c:	9101      	str	r1, [sp, #4]
 800800e:	f7f9 f903 	bl	8001218 <opt_get_mutex>
 8008012:	9901      	ldr	r1, [sp, #4]
 8008014:	f7fc fd58 	bl	8004ac8 <osMutexWait>
 8008018:	b108      	cbz	r0, 800801e <cam_read+0x1a>
 800801a:	b002      	add	sp, #8
 800801c:	bd10      	pop	{r4, pc}
 800801e:	4b06      	ldr	r3, [pc, #24]	; (8008038 <cam_read+0x34>)
 8008020:	881a      	ldrh	r2, [r3, #0]
 8008022:	789b      	ldrb	r3, [r3, #2]
 8008024:	8022      	strh	r2, [r4, #0]
 8008026:	70a3      	strb	r3, [r4, #2]
 8008028:	f7f9 f8f6 	bl	8001218 <opt_get_mutex>
 800802c:	b002      	add	sp, #8
 800802e:	e8bd 4010 	ldmia.w	sp!, {r4, lr}
 8008032:	f7fc bd75 	b.w	8004b20 <osMutexRelease>
 8008036:	bf00      	nop
 8008038:	2001075c 	.word	0x2001075c

0800803c <osTimerLrfNotifCallback>:
 800803c:	b508      	push	{r3, lr}
 800803e:	2002      	movs	r0, #2
 8008040:	f7f9 f8d4 	bl	80011ec <opt_get_queue>
 8008044:	2200      	movs	r2, #0
 8008046:	2104      	movs	r1, #4
 8008048:	e8bd 4008 	ldmia.w	sp!, {r3, lr}
 800804c:	f7fc bdce 	b.w	8004bec <osMessagePut>

08008050 <osTimerLrfTimeoutCallback>:
 8008050:	b508      	push	{r3, lr}
 8008052:	2002      	movs	r0, #2
 8008054:	f7f9 f8ae 	bl	80011b4 <opt_get_timer>
 8008058:	f7fc fd06 	bl	8004a68 <osTimerStop>
 800805c:	2003      	movs	r0, #3
 800805e:	f7f9 f8a9 	bl	80011b4 <opt_get_timer>
 8008062:	e8bd 4008 	ldmia.w	sp!, {r3, lr}
 8008066:	f7fc bcff 	b.w	8004a68 <osTimerStop>
 800806a:	bf00      	nop

0800806c <t_lrf>:
 800806c:	b580      	push	{r7, lr}
 800806e:	b084      	sub	sp, #16
 8008070:	4d50      	ldr	r5, [pc, #320]	; (80081b4 <t_lrf+0x148>)
 8008072:	f001 f841 	bl	80090f8 <lrf_init>
 8008076:	4b50      	ldr	r3, [pc, #320]	; (80081b8 <t_lrf+0x14c>)
 8008078:	2201      	movs	r2, #1
 800807a:	2004      	movs	r0, #4
 800807c:	2600      	movs	r6, #0
 800807e:	1daf      	adds	r7, r5, #6
 8008080:	701a      	strb	r2, [r3, #0]
 8008082:	f7fc fca5 	bl	80049d0 <osDelay>
 8008086:	e01e      	b.n	80080c6 <t_lrf+0x5a>
 8008088:	ea14 0408 	ands.w	r4, r4, r8
 800808c:	d05b      	beq.n	8008146 <t_lrf+0xda>
 800808e:	4640      	mov	r0, r8
 8008090:	f001 f840 	bl	8009114 <lrf_power>
 8008094:	2800      	cmp	r0, #0
 8008096:	d062      	beq.n	800815e <t_lrf+0xf2>
 8008098:	2002      	movs	r0, #2
 800809a:	f7f9 f88b 	bl	80011b4 <opt_get_timer>
 800809e:	f7fc fce3 	bl	8004a68 <osTimerStop>
 80080a2:	2003      	movs	r0, #3
 80080a4:	f7f9 f886 	bl	80011b4 <opt_get_timer>
 80080a8:	f7fc fcde 	bl	8004a68 <osTimerStop>
 80080ac:	2001      	movs	r0, #1
 80080ae:	732e      	strb	r6, [r5, #12]
 80080b0:	f7f9 f8b2 	bl	8001218 <opt_get_mutex>
 80080b4:	f7fc fd34 	bl	8004b20 <osMutexRelease>
 80080b8:	2002      	movs	r0, #2
 80080ba:	f7f9 f897 	bl	80011ec <opt_get_queue>
 80080be:	2200      	movs	r2, #0
 80080c0:	2104      	movs	r1, #4
 80080c2:	f7fc fd93 	bl	8004bec <osMessagePut>
 80080c6:	2001      	movs	r0, #1
 80080c8:	f7f9 f890 	bl	80011ec <opt_get_queue>
 80080cc:	f44f 727a 	mov.w	r2, #1000	; 0x3e8
 80080d0:	4601      	mov	r1, r0
 80080d2:	a801      	add	r0, sp, #4
 80080d4:	f7fc fdb6 	bl	8004c44 <osMessageGet>
 80080d8:	9b01      	ldr	r3, [sp, #4]
 80080da:	2b10      	cmp	r3, #16
 80080dc:	d1ec      	bne.n	80080b8 <t_lrf+0x4c>
 80080de:	f89d 4008 	ldrb.w	r4, [sp, #8]
 80080e2:	782b      	ldrb	r3, [r5, #0]
 80080e4:	42a3      	cmp	r3, r4
 80080e6:	d0e7      	beq.n	80080b8 <t_lrf+0x4c>
 80080e8:	2001      	movs	r0, #1
 80080ea:	f7f9 f895 	bl	8001218 <opt_get_mutex>
 80080ee:	2164      	movs	r1, #100	; 0x64
 80080f0:	f7fc fcea 	bl	8004ac8 <osMutexWait>
 80080f4:	2800      	cmp	r0, #0
 80080f6:	d1df      	bne.n	80080b8 <t_lrf+0x4c>
 80080f8:	f04f 0801 	mov.w	r8, #1
 80080fc:	2002      	movs	r0, #2
 80080fe:	f885 800c 	strb.w	r8, [r5, #12]
 8008102:	f7f9 f857 	bl	80011b4 <opt_get_timer>
 8008106:	f44f 71fa 	mov.w	r1, #500	; 0x1f4
 800810a:	f7fc fc7d 	bl	8004a08 <osTimerStart>
 800810e:	2003      	movs	r0, #3
 8008110:	f7f9 f850 	bl	80011b4 <opt_get_timer>
 8008114:	f242 7110 	movw	r1, #10000	; 0x2710
 8008118:	f7fc fc76 	bl	8004a08 <osTimerStart>
 800811c:	782b      	ldrb	r3, [r5, #0]
 800811e:	4063      	eors	r3, r4
 8008120:	ea13 0208 	ands.w	r2, r3, r8
 8008124:	d1b0      	bne.n	8008088 <t_lrf+0x1c>
 8008126:	78a9      	ldrb	r1, [r5, #2]
 8008128:	2901      	cmp	r1, #1
 800812a:	d1b5      	bne.n	8008098 <t_lrf+0x2c>
 800812c:	0799      	lsls	r1, r3, #30
 800812e:	d430      	bmi.n	8008192 <t_lrf+0x126>
 8008130:	071a      	lsls	r2, r3, #28
 8008132:	d422      	bmi.n	800817a <t_lrf+0x10e>
 8008134:	075b      	lsls	r3, r3, #29
 8008136:	d5af      	bpl.n	8008098 <t_lrf+0x2c>
 8008138:	782b      	ldrb	r3, [r5, #0]
 800813a:	f3c4 0480 	ubfx	r4, r4, #2, #1
 800813e:	f364 0382 	bfi	r3, r4, #2, #1
 8008142:	702b      	strb	r3, [r5, #0]
 8008144:	e7a8      	b.n	8008098 <t_lrf+0x2c>
 8008146:	2064      	movs	r0, #100	; 0x64
 8008148:	f7fc fc42 	bl	80049d0 <osDelay>
 800814c:	4620      	mov	r0, r4
 800814e:	f000 ffe1 	bl	8009114 <lrf_power>
 8008152:	782b      	ldrb	r3, [r5, #0]
 8008154:	70ac      	strb	r4, [r5, #2]
 8008156:	f364 0300 	bfi	r3, r4, #0, #1
 800815a:	702b      	strb	r3, [r5, #0]
 800815c:	e79c      	b.n	8008098 <t_lrf+0x2c>
 800815e:	782b      	ldrb	r3, [r5, #0]
 8008160:	f44f 7096 	mov.w	r0, #300	; 0x12c
 8008164:	f885 8002 	strb.w	r8, [r5, #2]
 8008168:	ea43 0308 	orr.w	r3, r3, r8
 800816c:	702b      	strb	r3, [r5, #0]
 800816e:	f7fc fc2f 	bl	80049d0 <osDelay>
 8008172:	4640      	mov	r0, r8
 8008174:	f000 ffd4 	bl	8009120 <lrf_set_pointer>
 8008178:	e78e      	b.n	8008098 <t_lrf+0x2c>
 800817a:	f3c4 08c0 	ubfx	r8, r4, #3, #1
 800817e:	4640      	mov	r0, r8
 8008180:	f000 ffce 	bl	8009120 <lrf_set_pointer>
 8008184:	782b      	ldrb	r3, [r5, #0]
 8008186:	f368 03c3 	bfi	r3, r8, #3, #1
 800818a:	702b      	strb	r3, [r5, #0]
 800818c:	b2db      	uxtb	r3, r3
 800818e:	4063      	eors	r3, r4
 8008190:	e7d0      	b.n	8008134 <t_lrf+0xc8>
 8008192:	f10d 0003 	add.w	r0, sp, #3
 8008196:	f88d 2003 	strb.w	r2, [sp, #3]
 800819a:	f000 ffc7 	bl	800912c <lrf_measure_start_with_status>
 800819e:	b110      	cbz	r0, 80081a6 <t_lrf+0x13a>
 80081a0:	782b      	ldrb	r3, [r5, #0]
 80081a2:	4063      	eors	r3, r4
 80081a4:	e7c4      	b.n	8008130 <t_lrf+0xc4>
 80081a6:	f000 ffc7 	bl	8009138 <lrf_get_counter>
 80081aa:	7128      	strb	r0, [r5, #4]
 80081ac:	4638      	mov	r0, r7
 80081ae:	f000 ffc9 	bl	8009144 <lrf_get_value>
 80081b2:	e7f5      	b.n	80081a0 <t_lrf+0x134>
 80081b4:	2001077c 	.word	0x2001077c
 80081b8:	20010779 	.word	0x20010779

080081bc <lrf_is_busy>:
 80081bc:	4b01      	ldr	r3, [pc, #4]	; (80081c4 <lrf_is_busy+0x8>)
 80081be:	7b18      	ldrb	r0, [r3, #12]
 80081c0:	4770      	bx	lr
 80081c2:	bf00      	nop
 80081c4:	2001077c 	.word	0x2001077c

080081c8 <lrf_read>:
 80081c8:	b510      	push	{r4, lr}
 80081ca:	b082      	sub	sp, #8
 80081cc:	4604      	mov	r4, r0
 80081ce:	2001      	movs	r0, #1
 80081d0:	9101      	str	r1, [sp, #4]
 80081d2:	f7f9 f821 	bl	8001218 <opt_get_mutex>
 80081d6:	9901      	ldr	r1, [sp, #4]
 80081d8:	f7fc fc76 	bl	8004ac8 <osMutexWait>
 80081dc:	b108      	cbz	r0, 80081e2 <lrf_read+0x1a>
 80081de:	b002      	add	sp, #8
 80081e0:	bd10      	pop	{r4, pc}
 80081e2:	4b07      	ldr	r3, [pc, #28]	; (8008200 <lrf_read+0x38>)
 80081e4:	cb07      	ldmia	r3!, {r0, r1, r2}
 80081e6:	6020      	str	r0, [r4, #0]
 80081e8:	2001      	movs	r0, #1
 80081ea:	6061      	str	r1, [r4, #4]
 80081ec:	60a2      	str	r2, [r4, #8]
 80081ee:	881b      	ldrh	r3, [r3, #0]
 80081f0:	81a3      	strh	r3, [r4, #12]
 80081f2:	f7f9 f811 	bl	8001218 <opt_get_mutex>
 80081f6:	b002      	add	sp, #8
 80081f8:	e8bd 4010 	ldmia.w	sp!, {r4, lr}
 80081fc:	f7fc bc90 	b.w	8004b20 <osMutexRelease>
 8008200:	2001077c 	.word	0x2001077c

08008204 <t_manager>:
 8008204:	b530      	push	{r4, r5, lr}
 8008206:	b085      	sub	sp, #20
 8008208:	2400      	movs	r4, #0
 800820a:	f7fc fbd5 	bl	80049b8 <osThreadGetId>
 800820e:	f06f 0102 	mvn.w	r1, #2
 8008212:	f7fc fbd3 	bl	80049bc <osThreadSetPriority>
 8008216:	200f      	movs	r0, #15
 8008218:	4d0c      	ldr	r5, [pc, #48]	; (800824c <t_manager+0x48>)
 800821a:	f7fc fbd9 	bl	80049d0 <osDelay>
 800821e:	2002      	movs	r0, #2
 8008220:	f7f8 ffe4 	bl	80011ec <opt_get_queue>
 8008224:	f44f 727a 	mov.w	r2, #1000	; 0x3e8
 8008228:	4601      	mov	r1, r0
 800822a:	a801      	add	r0, sp, #4
 800822c:	f7fc fd0a 	bl	8004c44 <osMessageGet>
 8008230:	9b01      	ldr	r3, [sp, #4]
 8008232:	2b10      	cmp	r3, #16
 8008234:	d1f3      	bne.n	800821e <t_manager+0x1a>
 8008236:	f8bd 3008 	ldrh.w	r3, [sp, #8]
 800823a:	4628      	mov	r0, r5
 800823c:	431c      	orrs	r4, r3
 800823e:	2c0e      	cmp	r4, #14
 8008240:	d9ed      	bls.n	800821e <t_manager+0x1a>
 8008242:	2400      	movs	r4, #0
 8008244:	f7fa fd28 	bl	8002c98 <HAL_IWDG_Refresh>
 8008248:	e7e9      	b.n	800821e <t_manager+0x1a>
 800824a:	bf00      	nop
 800824c:	20000280 	.word	0x20000280

08008250 <CAN_RX_Filter>:
 8008250:	b530      	push	{r4, r5, lr}
 8008252:	f64f 7cf8 	movw	ip, #65528	; 0xfff8
 8008256:	b08b      	sub	sp, #44	; 0x2c
 8008258:	2401      	movs	r4, #1
 800825a:	2500      	movs	r5, #0
 800825c:	9105      	str	r1, [sp, #20]
 800825e:	ea4f 61f2 	mov.w	r1, r2, ror #27
 8008262:	ea0c 2212 	and.w	r2, ip, r2, lsr #8
 8008266:	9506      	str	r5, [sp, #24]
 8008268:	b289      	uxth	r1, r1
 800826a:	9504      	str	r5, [sp, #16]
 800826c:	9201      	str	r2, [sp, #4]
 800826e:	ea4f 62f3 	mov.w	r2, r3, ror #27
 8008272:	ea0c 2313 	and.w	r3, ip, r3, lsr #8
 8008276:	9100      	str	r1, [sp, #0]
 8008278:	b292      	uxth	r2, r2
 800827a:	4669      	mov	r1, sp
 800827c:	e9cd 4407 	strd	r4, r4, [sp, #28]
 8008280:	240e      	movs	r4, #14
 8008282:	e9cd 2302 	strd	r2, r3, [sp, #8]
 8008286:	9409      	str	r4, [sp, #36]	; 0x24
 8008288:	f7f9 fd90 	bl	8001dac <HAL_CAN_ConfigFilter>
 800828c:	4604      	mov	r4, r0
 800828e:	b910      	cbnz	r0, 8008296 <CAN_RX_Filter+0x46>
 8008290:	4620      	mov	r0, r4
 8008292:	b00b      	add	sp, #44	; 0x2c
 8008294:	bd30      	pop	{r4, r5, pc}
 8008296:	f7f9 f9ed 	bl	8001674 <Error_Handler>
 800829a:	4620      	mov	r0, r4
 800829c:	b00b      	add	sp, #44	; 0x2c
 800829e:	bd30      	pop	{r4, r5, pc}

080082a0 <CAN_Config>:
 80082a0:	b510      	push	{r4, lr}
 80082a2:	4604      	mov	r4, r0
 80082a4:	f7f9 fdfe 	bl	8001ea4 <HAL_CAN_Start>
 80082a8:	b928      	cbnz	r0, 80082b6 <CAN_Config+0x16>
 80082aa:	2102      	movs	r1, #2
 80082ac:	4620      	mov	r0, r4
 80082ae:	f7f9 ff3b 	bl	8002128 <HAL_CAN_ActivateNotification>
 80082b2:	b940      	cbnz	r0, 80082c6 <CAN_Config+0x26>
 80082b4:	bd10      	pop	{r4, pc}
 80082b6:	f7f9 f9dd 	bl	8001674 <Error_Handler>
 80082ba:	2102      	movs	r1, #2
 80082bc:	4620      	mov	r0, r4
 80082be:	f7f9 ff33 	bl	8002128 <HAL_CAN_ActivateNotification>
 80082c2:	2800      	cmp	r0, #0
 80082c4:	d0f6      	beq.n	80082b4 <CAN_Config+0x14>
 80082c6:	e8bd 4010 	ldmia.w	sp!, {r4, lr}
 80082ca:	f7f9 b9d3 	b.w	8001674 <Error_Handler>
 80082ce:	bf00      	nop

080082d0 <CAN_Tx_Config>:
 80082d0:	2300      	movs	r3, #0
 80082d2:	2101      	movs	r1, #1
 80082d4:	2208      	movs	r2, #8
 80082d6:	7503      	strb	r3, [r0, #20]
 80082d8:	6102      	str	r2, [r0, #16]
 80082da:	b410      	push	{r4}
 80082dc:	f240 1411 	movw	r4, #273	; 0x111
 80082e0:	e9c0 3302 	strd	r3, r3, [r0, #8]
 80082e4:	e9c0 4100 	strd	r4, r1, [r0]
 80082e8:	f85d 4b04 	ldr.w	r4, [sp], #4
 80082ec:	4770      	bx	lr
 80082ee:	bf00      	nop

080082f0 <_VISCA_send_packet_with_reply>:
 80082f0:	b538      	push	{r3, r4, r5, lr}
 80082f2:	6843      	ldr	r3, [r0, #4]
 80082f4:	2b07      	cmp	r3, #7
 80082f6:	dc33      	bgt.n	8008360 <_VISCA_send_packet_with_reply+0x70>
 80082f8:	4604      	mov	r4, r0
 80082fa:	6808      	ldr	r0, [r1, #0]
 80082fc:	2807      	cmp	r0, #7
 80082fe:	dc2f      	bgt.n	8008360 <_VISCA_send_packet_with_reply+0x70>
 8008300:	68a0      	ldr	r0, [r4, #8]
 8008302:	bb68      	cbnz	r0, 8008360 <_VISCA_send_packet_with_reply+0x70>
 8008304:	011b      	lsls	r3, r3, #4
 8008306:	f063 037f 	orn	r3, r3, #127	; 0x7f
 800830a:	b25b      	sxtb	r3, r3
 800830c:	7013      	strb	r3, [r2, #0]
 800830e:	68a0      	ldr	r0, [r4, #8]
 8008310:	2800      	cmp	r0, #0
 8008312:	dd28      	ble.n	8008366 <_VISCA_send_packet_with_reply+0x76>
 8008314:	ea43 03c0 	orr.w	r3, r3, r0, lsl #3
 8008318:	b2db      	uxtb	r3, r3
 800831a:	6a10      	ldr	r0, [r2, #32]
 800831c:	7013      	strb	r3, [r2, #0]
 800831e:	23ff      	movs	r3, #255	; 0xff
 8008320:	5413      	strb	r3, [r2, r0]
 8008322:	3001      	adds	r0, #1
 8008324:	6210      	str	r0, [r2, #32]
 8008326:	4620      	mov	r0, r4
 8008328:	f000 f8a8 	bl	800847c <_VISCA_write_packet_data>
 800832c:	b9c0      	cbnz	r0, 8008360 <_VISCA_send_packet_with_reply+0x70>
 800832e:	4620      	mov	r0, r4
 8008330:	f000 f8ca 	bl	80084c8 <_VISCA_get_packet>
 8008334:	4605      	mov	r5, r0
 8008336:	b120      	cbz	r0, 8008342 <_VISCA_send_packet_with_reply+0x52>
 8008338:	e012      	b.n	8008360 <_VISCA_send_packet_with_reply+0x70>
 800833a:	4620      	mov	r0, r4
 800833c:	f000 f8c4 	bl	80084c8 <_VISCA_get_packet>
 8008340:	b970      	cbnz	r0, 8008360 <_VISCA_send_packet_with_reply+0x70>
 8008342:	7b63      	ldrb	r3, [r4, #13]
 8008344:	f003 03f0 	and.w	r3, r3, #240	; 0xf0
 8008348:	2b40      	cmp	r3, #64	; 0x40
 800834a:	6323      	str	r3, [r4, #48]	; 0x30
 800834c:	d0f5      	beq.n	800833a <_VISCA_send_packet_with_reply+0x4a>
 800834e:	2b50      	cmp	r3, #80	; 0x50
 8008350:	d007      	beq.n	8008362 <_VISCA_send_packet_with_reply+0x72>
 8008352:	2b60      	cmp	r3, #96	; 0x60
 8008354:	d005      	beq.n	8008362 <_VISCA_send_packet_with_reply+0x72>
 8008356:	2b30      	cmp	r3, #48	; 0x30
 8008358:	bf18      	it	ne
 800835a:	25ff      	movne	r5, #255	; 0xff
 800835c:	4628      	mov	r0, r5
 800835e:	bd38      	pop	{r3, r4, r5, pc}
 8008360:	25ff      	movs	r5, #255	; 0xff
 8008362:	4628      	mov	r0, r5
 8008364:	bd38      	pop	{r3, r4, r5, pc}
 8008366:	6808      	ldr	r0, [r1, #0]
 8008368:	4303      	orrs	r3, r0
 800836a:	b2db      	uxtb	r3, r3
 800836c:	e7d5      	b.n	800831a <_VISCA_send_packet_with_reply+0x2a>
 800836e:	bf00      	nop

08008370 <VISCA_set_power>:
 8008370:	b500      	push	{lr}
 8008372:	f04f 0c04 	mov.w	ip, #4
 8008376:	b08b      	sub	sp, #44	; 0x2c
 8008378:	2301      	movs	r3, #1
 800837a:	f88d 2008 	strb.w	r2, [sp, #8]
 800837e:	eb0d 020c 	add.w	r2, sp, ip
 8008382:	f88d 3005 	strb.w	r3, [sp, #5]
 8008386:	2305      	movs	r3, #5
 8008388:	f8ad c006 	strh.w	ip, [sp, #6]
 800838c:	9309      	str	r3, [sp, #36]	; 0x24
 800838e:	f7ff ffaf 	bl	80082f0 <_VISCA_send_packet_with_reply>
 8008392:	b00b      	add	sp, #44	; 0x2c
 8008394:	f85d fb04 	ldr.w	pc, [sp], #4

08008398 <VISCA_set_zoom_value>:
 8008398:	b500      	push	{lr}
 800839a:	4613      	mov	r3, r2
 800839c:	b08b      	sub	sp, #44	; 0x2c
 800839e:	f244 7c04 	movw	ip, #18180	; 0x4704
 80083a2:	2208      	movs	r2, #8
 80083a4:	f04f 0e01 	mov.w	lr, #1
 80083a8:	f8ad c006 	strh.w	ip, [sp, #6]
 80083ac:	f3c3 3c03 	ubfx	ip, r3, #12, #4
 80083b0:	9209      	str	r2, [sp, #36]	; 0x24
 80083b2:	aa01      	add	r2, sp, #4
 80083b4:	f88d c008 	strb.w	ip, [sp, #8]
 80083b8:	f3c3 2c03 	ubfx	ip, r3, #8, #4
 80083bc:	f88d e005 	strb.w	lr, [sp, #5]
 80083c0:	f88d c009 	strb.w	ip, [sp, #9]
 80083c4:	f3c3 1c03 	ubfx	ip, r3, #4, #4
 80083c8:	f003 030f 	and.w	r3, r3, #15
 80083cc:	f88d c00a 	strb.w	ip, [sp, #10]
 80083d0:	f88d 300b 	strb.w	r3, [sp, #11]
 80083d4:	f7ff ff8c 	bl	80082f0 <_VISCA_send_packet_with_reply>
 80083d8:	b00b      	add	sp, #44	; 0x2c
 80083da:	f85d fb04 	ldr.w	pc, [sp], #4
 80083de:	bf00      	nop

080083e0 <VISCA_set_focus_stop>:
 80083e0:	b510      	push	{r4, lr}
 80083e2:	b08a      	sub	sp, #40	; 0x28
 80083e4:	2305      	movs	r3, #5
 80083e6:	4c04      	ldr	r4, [pc, #16]	; (80083f8 <VISCA_set_focus_stop+0x18>)
 80083e8:	aa01      	add	r2, sp, #4
 80083ea:	9309      	str	r3, [sp, #36]	; 0x24
 80083ec:	f8cd 4005 	str.w	r4, [sp, #5]
 80083f0:	f7ff ff7e 	bl	80082f0 <_VISCA_send_packet_with_reply>
 80083f4:	b00a      	add	sp, #40	; 0x28
 80083f6:	bd10      	pop	{r4, pc}
 80083f8:	00080401 	.word	0x00080401

080083fc <VISCA_set_focus_far_speed>:
 80083fc:	b510      	push	{r4, lr}
 80083fe:	f640 0304 	movw	r3, #2052	; 0x804
 8008402:	b08a      	sub	sp, #40	; 0x28
 8008404:	2401      	movs	r4, #1
 8008406:	f002 0207 	and.w	r2, r2, #7
 800840a:	f8ad 3006 	strh.w	r3, [sp, #6]
 800840e:	f88d 4005 	strb.w	r4, [sp, #5]
 8008412:	f042 0320 	orr.w	r3, r2, #32
 8008416:	2405      	movs	r4, #5
 8008418:	aa01      	add	r2, sp, #4
 800841a:	f88d 3008 	strb.w	r3, [sp, #8]
 800841e:	9409      	str	r4, [sp, #36]	; 0x24
 8008420:	f7ff ff66 	bl	80082f0 <_VISCA_send_packet_with_reply>
 8008424:	b00a      	add	sp, #40	; 0x28
 8008426:	bd10      	pop	{r4, pc}

08008428 <VISCA_set_focus_near_speed>:
 8008428:	b510      	push	{r4, lr}
 800842a:	f640 0304 	movw	r3, #2052	; 0x804
 800842e:	b08a      	sub	sp, #40	; 0x28
 8008430:	2401      	movs	r4, #1
 8008432:	f002 0207 	and.w	r2, r2, #7
 8008436:	f8ad 3006 	strh.w	r3, [sp, #6]
 800843a:	f88d 4005 	strb.w	r4, [sp, #5]
 800843e:	f042 0330 	orr.w	r3, r2, #48	; 0x30
 8008442:	2405      	movs	r4, #5
 8008444:	aa01      	add	r2, sp, #4
 8008446:	f88d 3008 	strb.w	r3, [sp, #8]
 800844a:	9409      	str	r4, [sp, #36]	; 0x24
 800844c:	f7ff ff50 	bl	80082f0 <_VISCA_send_packet_with_reply>
 8008450:	b00a      	add	sp, #40	; 0x28
 8008452:	bd10      	pop	{r4, pc}

08008454 <VISCA_set_focus_auto>:
 8008454:	b500      	push	{lr}
 8008456:	2301      	movs	r3, #1
 8008458:	b08b      	sub	sp, #44	; 0x2c
 800845a:	f643 0c04 	movw	ip, #14340	; 0x3804
 800845e:	f88d 3005 	strb.w	r3, [sp, #5]
 8008462:	2305      	movs	r3, #5
 8008464:	f88d 2008 	strb.w	r2, [sp, #8]
 8008468:	aa01      	add	r2, sp, #4
 800846a:	f8ad c006 	strh.w	ip, [sp, #6]
 800846e:	9309      	str	r3, [sp, #36]	; 0x24
 8008470:	f7ff ff3e 	bl	80082f0 <_VISCA_send_packet_with_reply>
 8008474:	b00b      	add	sp, #44	; 0x2c
 8008476:	f85d fb04 	ldr.w	pc, [sp], #4
 800847a:	bf00      	nop

0800847c <_VISCA_write_packet_data>:
 800847c:	b5f8      	push	{r3, r4, r5, r6, r7, lr}
 800847e:	4616      	mov	r6, r2
 8008480:	2364      	movs	r3, #100	; 0x64
 8008482:	8c12      	ldrh	r2, [r2, #32]
 8008484:	4631      	mov	r1, r6
 8008486:	6800      	ldr	r0, [r0, #0]
 8008488:	f7fc f8e8 	bl	800465c <HAL_UART_Transmit>
 800848c:	480b      	ldr	r0, [pc, #44]	; (80084bc <_VISCA_write_packet_data+0x40>)
 800848e:	f001 fb0d 	bl	8009aac <iprintf>
 8008492:	6a33      	ldr	r3, [r6, #32]
 8008494:	b163      	cbz	r3, 80084b0 <_VISCA_write_packet_data+0x34>
 8008496:	1e75      	subs	r5, r6, #1
 8008498:	4f09      	ldr	r7, [pc, #36]	; (80084c0 <_VISCA_write_packet_data+0x44>)
 800849a:	462c      	mov	r4, r5
 800849c:	4638      	mov	r0, r7
 800849e:	f815 1f01 	ldrb.w	r1, [r5, #1]!
 80084a2:	3402      	adds	r4, #2
 80084a4:	f001 fb02 	bl	8009aac <iprintf>
 80084a8:	6a33      	ldr	r3, [r6, #32]
 80084aa:	1ba4      	subs	r4, r4, r6
 80084ac:	42a3      	cmp	r3, r4
 80084ae:	d8f4      	bhi.n	800849a <_VISCA_write_packet_data+0x1e>
 80084b0:	4804      	ldr	r0, [pc, #16]	; (80084c4 <_VISCA_write_packet_data+0x48>)
 80084b2:	f001 fb81 	bl	8009bb8 <puts>
 80084b6:	2000      	movs	r0, #0
 80084b8:	bdf8      	pop	{r3, r4, r5, r6, r7, pc}
 80084ba:	bf00      	nop
 80084bc:	0800c1bc 	.word	0x0800c1bc
 80084c0:	0800c1c4 	.word	0x0800c1c4
 80084c4:	0800bfa8 	.word	0x0800bfa8

080084c8 <_VISCA_get_packet>:
 80084c8:	e92d 43f0 	stmdb	sp!, {r4, r5, r6, r7, r8, r9, lr}
 80084cc:	b087      	sub	sp, #28
 80084ce:	2220      	movs	r2, #32
 80084d0:	2301      	movs	r3, #1
 80084d2:	4680      	mov	r8, r0
 80084d4:	2100      	movs	r1, #0
 80084d6:	4668      	mov	r0, sp
 80084d8:	4d29      	ldr	r5, [pc, #164]	; (8008580 <_VISCA_get_packet+0xb8>)
 80084da:	f241 3488 	movw	r4, #5000	; 0x1388
 80084de:	2700      	movs	r7, #0
 80084e0:	f8df 90ac 	ldr.w	r9, [pc, #172]	; 8008590 <_VISCA_get_packet+0xc8>
 80084e4:	e9cd 2300 	strd	r2, r3, [sp]
 80084e8:	f7fc fb7a 	bl	8004be0 <osMessageCreate>
 80084ec:	f8d8 3000 	ldr.w	r3, [r8]
 80084f0:	6028      	str	r0, [r5, #0]
 80084f2:	681a      	ldr	r2, [r3, #0]
 80084f4:	6813      	ldr	r3, [r2, #0]
 80084f6:	f043 0320 	orr.w	r3, r3, #32
 80084fa:	6013      	str	r3, [r2, #0]
 80084fc:	f7f9 fbc8 	bl	8001c90 <HAL_GetTick>
 8008500:	4404      	add	r4, r0
 8008502:	4820      	ldr	r0, [pc, #128]	; (8008584 <_VISCA_get_packet+0xbc>)
 8008504:	f001 fad2 	bl	8009aac <iprintf>
 8008508:	f7f9 fbc2 	bl	8001c90 <HAL_GetTick>
 800850c:	4603      	mov	r3, r0
 800850e:	2264      	movs	r2, #100	; 0x64
 8008510:	a803      	add	r0, sp, #12
 8008512:	42a3      	cmp	r3, r4
 8008514:	d215      	bcs.n	8008542 <_VISCA_get_packet+0x7a>
 8008516:	6829      	ldr	r1, [r5, #0]
 8008518:	f7fc fb94 	bl	8004c44 <osMessageGet>
 800851c:	9b03      	ldr	r3, [sp, #12]
 800851e:	2b10      	cmp	r3, #16
 8008520:	d1f2      	bne.n	8008508 <_VISCA_get_packet+0x40>
 8008522:	9b04      	ldr	r3, [sp, #16]
 8008524:	eb08 0607 	add.w	r6, r8, r7
 8008528:	4648      	mov	r0, r9
 800852a:	b2d9      	uxtb	r1, r3
 800852c:	7333      	strb	r3, [r6, #12]
 800852e:	f001 fabd 	bl	8009aac <iprintf>
 8008532:	7b33      	ldrb	r3, [r6, #12]
 8008534:	2bff      	cmp	r3, #255	; 0xff
 8008536:	d004      	beq.n	8008542 <_VISCA_get_packet+0x7a>
 8008538:	3701      	adds	r7, #1
 800853a:	2f1f      	cmp	r7, #31
 800853c:	d9e4      	bls.n	8008508 <_VISCA_get_packet+0x40>
 800853e:	24ff      	movs	r4, #255	; 0xff
 8008540:	e00a      	b.n	8008558 <_VISCA_get_packet+0x90>
 8008542:	3701      	adds	r7, #1
 8008544:	f8c8 702c 	str.w	r7, [r8, #44]	; 0x2c
 8008548:	f7f9 fba2 	bl	8001c90 <HAL_GetTick>
 800854c:	42a0      	cmp	r0, r4
 800854e:	d211      	bcs.n	8008574 <_VISCA_get_packet+0xac>
 8008550:	480d      	ldr	r0, [pc, #52]	; (8008588 <_VISCA_get_packet+0xc0>)
 8008552:	2400      	movs	r4, #0
 8008554:	f001 fb30 	bl	8009bb8 <puts>
 8008558:	f8d8 3000 	ldr.w	r3, [r8]
 800855c:	6828      	ldr	r0, [r5, #0]
 800855e:	681a      	ldr	r2, [r3, #0]
 8008560:	6813      	ldr	r3, [r2, #0]
 8008562:	f023 0320 	bic.w	r3, r3, #32
 8008566:	6013      	str	r3, [r2, #0]
 8008568:	f7fc fcbc 	bl	8004ee4 <osMessageDelete>
 800856c:	4620      	mov	r0, r4
 800856e:	b007      	add	sp, #28
 8008570:	e8bd 83f0 	ldmia.w	sp!, {r4, r5, r6, r7, r8, r9, pc}
 8008574:	4805      	ldr	r0, [pc, #20]	; (800858c <_VISCA_get_packet+0xc4>)
 8008576:	24ff      	movs	r4, #255	; 0xff
 8008578:	f001 fb1e 	bl	8009bb8 <puts>
 800857c:	e7ec      	b.n	8008558 <_VISCA_get_packet+0x90>
 800857e:	bf00      	nop
 8008580:	2001078c 	.word	0x2001078c
 8008584:	0800c1cc 	.word	0x0800c1cc
 8008588:	0800bfa8 	.word	0x0800bfa8
 800858c:	0800c1e0 	.word	0x0800c1e0
 8008590:	0800c1d8 	.word	0x0800c1d8

08008594 <UART4_IRQHandler>:
 8008594:	4b06      	ldr	r3, [pc, #24]	; (80085b0 <UART4_IRQHandler+0x1c>)
 8008596:	681b      	ldr	r3, [r3, #0]
 8008598:	69da      	ldr	r2, [r3, #28]
 800859a:	0692      	lsls	r2, r2, #26
 800859c:	d400      	bmi.n	80085a0 <UART4_IRQHandler+0xc>
 800859e:	4770      	bx	lr
 80085a0:	6a59      	ldr	r1, [r3, #36]	; 0x24
 80085a2:	2200      	movs	r2, #0
 80085a4:	4b03      	ldr	r3, [pc, #12]	; (80085b4 <UART4_IRQHandler+0x20>)
 80085a6:	b2c9      	uxtb	r1, r1
 80085a8:	6818      	ldr	r0, [r3, #0]
 80085aa:	f7fc bb1f 	b.w	8004bec <osMessagePut>
 80085ae:	bf00      	nop
 80085b0:	20000454 	.word	0x20000454
 80085b4:	2001078c 	.word	0x2001078c

080085b8 <noptel_init>:
 80085b8:	b510      	push	{r4, lr}
 80085ba:	e9c0 1200 	strd	r1, r2, [r0]
 80085be:	b102      	cbz	r2, 80085c2 <noptel_init+0xa>
 80085c0:	8103      	strh	r3, [r0, #8]
 80085c2:	2400      	movs	r4, #0
 80085c4:	f880 4034 	strb.w	r4, [r0, #52]	; 0x34
 80085c8:	6384      	str	r4, [r0, #56]	; 0x38
 80085ca:	e9c0 440f 	strd	r4, r4, [r0, #60]	; 0x3c
 80085ce:	f7f9 fb5f 	bl	8001c90 <HAL_GetTick>
 80085d2:	234d      	movs	r3, #77	; 0x4d
 80085d4:	4601      	mov	r1, r0
 80085d6:	4a03      	ldr	r2, [pc, #12]	; (80085e4 <noptel_init+0x2c>)
 80085d8:	4803      	ldr	r0, [pc, #12]	; (80085e8 <noptel_init+0x30>)
 80085da:	f001 fa67 	bl	8009aac <iprintf>
 80085de:	4620      	mov	r0, r4
 80085e0:	bd10      	pop	{r4, pc}
 80085e2:	bf00      	nop
 80085e4:	0800c1ec 	.word	0x0800c1ec
 80085e8:	0800c1f8 	.word	0x0800c1f8

080085ec <noptel_power>:
 80085ec:	b510      	push	{r4, lr}
 80085ee:	6843      	ldr	r3, [r0, #4]
 80085f0:	b082      	sub	sp, #8
 80085f2:	460c      	mov	r4, r1
 80085f4:	b143      	cbz	r3, 8008608 <noptel_power+0x1c>
 80085f6:	f1a1 0201 	sub.w	r2, r1, #1
 80085fa:	8901      	ldrh	r1, [r0, #8]
 80085fc:	4618      	mov	r0, r3
 80085fe:	fab2 f282 	clz	r2, r2
 8008602:	0952      	lsrs	r2, r2, #5
 8008604:	f7fa fb08 	bl	8002c18 <HAL_GPIO_WritePin>
 8008608:	f7f9 fb42 	bl	8001c90 <HAL_GetTick>
 800860c:	235d      	movs	r3, #93	; 0x5d
 800860e:	4601      	mov	r1, r0
 8008610:	4a03      	ldr	r2, [pc, #12]	; (8008620 <noptel_power+0x34>)
 8008612:	9400      	str	r4, [sp, #0]
 8008614:	4803      	ldr	r0, [pc, #12]	; (8008624 <noptel_power+0x38>)
 8008616:	f001 fa49 	bl	8009aac <iprintf>
 800861a:	2000      	movs	r0, #0
 800861c:	b002      	add	sp, #8
 800861e:	bd10      	pop	{r4, pc}
 8008620:	0800c1ec 	.word	0x0800c1ec
 8008624:	0800c210 	.word	0x0800c210

08008628 <noptel_set_pointer>:
 8008628:	e92d 41f0 	stmdb	sp!, {r4, r5, r6, r7, r8, lr}
 800862c:	4688      	mov	r8, r1
 800862e:	4605      	mov	r5, r0
 8008630:	b082      	sub	sp, #8
 8008632:	2220      	movs	r2, #32
 8008634:	2100      	movs	r1, #0
 8008636:	300a      	adds	r0, #10
 8008638:	f000 fdc6 	bl	80091c8 <memset>
 800863c:	f1b8 0f01 	cmp.w	r8, #1
 8008640:	f04f 0103 	mov.w	r1, #3
 8008644:	f44f 4245 	mov.w	r2, #50432	; 0xc500
 8008648:	bf14      	ite	ne
 800864a:	2300      	movne	r3, #0
 800864c:	460b      	moveq	r3, r1
 800864e:	f885 1033 	strb.w	r1, [r5, #51]	; 0x33
 8008652:	856a      	strh	r2, [r5, #42]	; 0x2a
 8008654:	f885 302c 	strb.w	r3, [r5, #44]	; 0x2c
 8008658:	3b3b      	subs	r3, #59	; 0x3b
 800865a:	f083 0350 	eor.w	r3, r3, #80	; 0x50
 800865e:	f885 302d 	strb.w	r3, [r5, #45]	; 0x2d
 8008662:	f7f9 fb15 	bl	8001c90 <HAL_GetTick>
 8008666:	f895 2033 	ldrb.w	r2, [r5, #51]	; 0x33
 800866a:	4601      	mov	r1, r0
 800866c:	236e      	movs	r3, #110	; 0x6e
 800866e:	9200      	str	r2, [sp, #0]
 8008670:	4815      	ldr	r0, [pc, #84]	; (80086c8 <noptel_set_pointer+0xa0>)
 8008672:	4a16      	ldr	r2, [pc, #88]	; (80086cc <noptel_set_pointer+0xa4>)
 8008674:	f001 fa1a 	bl	8009aac <iprintf>
 8008678:	f895 3033 	ldrb.w	r3, [r5, #51]	; 0x33
 800867c:	b17b      	cbz	r3, 800869e <noptel_set_pointer+0x76>
 800867e:	f06f 062a 	mvn.w	r6, #42	; 0x2a
 8008682:	f105 042b 	add.w	r4, r5, #43	; 0x2b
 8008686:	4f12      	ldr	r7, [pc, #72]	; (80086d0 <noptel_set_pointer+0xa8>)
 8008688:	1b76      	subs	r6, r6, r5
 800868a:	f814 1b01 	ldrb.w	r1, [r4], #1
 800868e:	4638      	mov	r0, r7
 8008690:	f001 fa0c 	bl	8009aac <iprintf>
 8008694:	f895 2033 	ldrb.w	r2, [r5, #51]	; 0x33
 8008698:	1933      	adds	r3, r6, r4
 800869a:	429a      	cmp	r2, r3
 800869c:	dcf5      	bgt.n	800868a <noptel_set_pointer+0x62>
 800869e:	480d      	ldr	r0, [pc, #52]	; (80086d4 <noptel_set_pointer+0xac>)
 80086a0:	f001 fa8a 	bl	8009bb8 <puts>
 80086a4:	2101      	movs	r1, #1
 80086a6:	4628      	mov	r0, r5
 80086a8:	f000 f980 	bl	80089ac <_NOPTEL_write_packet_data>
 80086ac:	f7f9 faf0 	bl	8001c90 <HAL_GetTick>
 80086b0:	239c      	movs	r3, #156	; 0x9c
 80086b2:	4601      	mov	r1, r0
 80086b4:	4a05      	ldr	r2, [pc, #20]	; (80086cc <noptel_set_pointer+0xa4>)
 80086b6:	f8cd 8000 	str.w	r8, [sp]
 80086ba:	4807      	ldr	r0, [pc, #28]	; (80086d8 <noptel_set_pointer+0xb0>)
 80086bc:	f001 f9f6 	bl	8009aac <iprintf>
 80086c0:	2000      	movs	r0, #0
 80086c2:	b002      	add	sp, #8
 80086c4:	e8bd 81f0 	ldmia.w	sp!, {r4, r5, r6, r7, r8, pc}
 80086c8:	0800c228 	.word	0x0800c228
 80086cc:	0800c1ec 	.word	0x0800c1ec
 80086d0:	0800c1d8 	.word	0x0800c1d8
 80086d4:	0800bfa8 	.word	0x0800bfa8
 80086d8:	0800c240 	.word	0x0800c240

080086dc <noptel_measure_start_with_status>:
 80086dc:	e92d 4ff0 	stmdb	sp!, {r4, r5, r6, r7, r8, r9, sl, fp, lr}
 80086e0:	2220      	movs	r2, #32
 80086e2:	4605      	mov	r5, r0
 80086e4:	b085      	sub	sp, #20
 80086e6:	4688      	mov	r8, r1
 80086e8:	300a      	adds	r0, #10
 80086ea:	2100      	movs	r1, #0
 80086ec:	f000 fd6c 	bl	80091c8 <memset>
 80086f0:	f44f 5190 	mov.w	r1, #4608	; 0x1200
 80086f4:	2202      	movs	r2, #2
 80086f6:	2342      	movs	r3, #66	; 0x42
 80086f8:	8569      	strh	r1, [r5, #42]	; 0x2a
 80086fa:	f885 2033 	strb.w	r2, [r5, #51]	; 0x33
 80086fe:	f885 302c 	strb.w	r3, [r5, #44]	; 0x2c
 8008702:	f7f9 fac5 	bl	8001c90 <HAL_GetTick>
 8008706:	f895 2033 	ldrb.w	r2, [r5, #51]	; 0x33
 800870a:	4601      	mov	r1, r0
 800870c:	23ef      	movs	r3, #239	; 0xef
 800870e:	9200      	str	r2, [sp, #0]
 8008710:	48a0      	ldr	r0, [pc, #640]	; (8008994 <noptel_measure_start_with_status+0x2b8>)
 8008712:	4aa1      	ldr	r2, [pc, #644]	; (8008998 <noptel_measure_start_with_status+0x2bc>)
 8008714:	f001 f9ca 	bl	8009aac <iprintf>
 8008718:	f895 3033 	ldrb.w	r3, [r5, #51]	; 0x33
 800871c:	b17b      	cbz	r3, 800873e <noptel_measure_start_with_status+0x62>
 800871e:	f06f 062a 	mvn.w	r6, #42	; 0x2a
 8008722:	f105 042b 	add.w	r4, r5, #43	; 0x2b
 8008726:	4f9d      	ldr	r7, [pc, #628]	; (800899c <noptel_measure_start_with_status+0x2c0>)
 8008728:	1b76      	subs	r6, r6, r5
 800872a:	f814 1b01 	ldrb.w	r1, [r4], #1
 800872e:	4638      	mov	r0, r7
 8008730:	f001 f9bc 	bl	8009aac <iprintf>
 8008734:	f895 2033 	ldrb.w	r2, [r5, #51]	; 0x33
 8008738:	1933      	adds	r3, r6, r4
 800873a:	429a      	cmp	r2, r3
 800873c:	dcf5      	bgt.n	800872a <noptel_measure_start_with_status+0x4e>
 800873e:	4898      	ldr	r0, [pc, #608]	; (80089a0 <noptel_measure_start_with_status+0x2c4>)
 8008740:	f001 fa3a 	bl	8009bb8 <puts>
 8008744:	2101      	movs	r1, #1
 8008746:	4628      	mov	r0, r5
 8008748:	f000 f930 	bl	80089ac <_NOPTEL_write_packet_data>
 800874c:	b128      	cbz	r0, 800875a <noptel_measure_start_with_status+0x7e>
 800874e:	f04f 0801 	mov.w	r8, #1
 8008752:	4640      	mov	r0, r8
 8008754:	b005      	add	sp, #20
 8008756:	e8bd 8ff0 	ldmia.w	sp!, {r4, r5, r6, r7, r8, r9, sl, fp, pc}
 800875a:	f895 602a 	ldrb.w	r6, [r5, #42]	; 0x2a
 800875e:	2e02      	cmp	r6, #2
 8008760:	d9f5      	bls.n	800874e <noptel_measure_start_with_status+0x72>
 8008762:	f105 0109 	add.w	r1, r5, #9
 8008766:	4603      	mov	r3, r0
 8008768:	e003      	b.n	8008772 <noptel_measure_start_with_status+0x96>
 800876a:	4296      	cmp	r6, r2
 800876c:	f000 810b 	beq.w	8008986 <noptel_measure_start_with_status+0x2aa>
 8008770:	4613      	mov	r3, r2
 8008772:	f811 4f01 	ldrb.w	r4, [r1, #1]!
 8008776:	1c5a      	adds	r2, r3, #1
 8008778:	2c59      	cmp	r4, #89	; 0x59
 800877a:	d1f6      	bne.n	800876a <noptel_measure_start_with_status+0x8e>
 800877c:	3e01      	subs	r6, #1
 800877e:	4619      	mov	r1, r3
 8008780:	42b3      	cmp	r3, r6
 8008782:	f280 8102 	bge.w	800898a <noptel_measure_start_with_status+0x2ae>
 8008786:	4633      	mov	r3, r6
 8008788:	1e5a      	subs	r2, r3, #1
 800878a:	1a5c      	subs	r4, r3, r1
 800878c:	1a52      	subs	r2, r2, r1
 800878e:	428b      	cmp	r3, r1
 8008790:	bfd8      	it	le
 8008792:	2401      	movle	r4, #1
 8008794:	2a06      	cmp	r2, #6
 8008796:	f240 80fb 	bls.w	8008990 <noptel_measure_start_with_status+0x2b4>
 800879a:	428b      	cmp	r3, r1
 800879c:	f340 80f8 	ble.w	8008990 <noptel_measure_start_with_status+0x2b4>
 80087a0:	08a6      	lsrs	r6, r4, #2
 80087a2:	f101 020a 	add.w	r2, r1, #10
 80087a6:	2e01      	cmp	r6, #1
 80087a8:	eb05 0702 	add.w	r7, r5, r2
 80087ac:	58aa      	ldr	r2, [r5, r2]
 80087ae:	d05d      	beq.n	800886c <noptel_measure_start_with_status+0x190>
 80087b0:	6878      	ldr	r0, [r7, #4]
 80087b2:	f002 3c7f 	and.w	ip, r2, #2139062143	; 0x7f7f7f7f
 80087b6:	2e02      	cmp	r6, #2
 80087b8:	ea82 0200 	eor.w	r2, r2, r0
 80087bc:	f000 307f 	and.w	r0, r0, #2139062143	; 0x7f7f7f7f
 80087c0:	f002 3280 	and.w	r2, r2, #2155905152	; 0x80808080
 80087c4:	4460      	add	r0, ip
 80087c6:	ea82 0200 	eor.w	r2, r2, r0
 80087ca:	d04f      	beq.n	800886c <noptel_measure_start_with_status+0x190>
 80087cc:	68b8      	ldr	r0, [r7, #8]
 80087ce:	f002 3c7f 	and.w	ip, r2, #2139062143	; 0x7f7f7f7f
 80087d2:	2e03      	cmp	r6, #3
 80087d4:	ea82 0200 	eor.w	r2, r2, r0
 80087d8:	f000 307f 	and.w	r0, r0, #2139062143	; 0x7f7f7f7f
 80087dc:	f002 3280 	and.w	r2, r2, #2155905152	; 0x80808080
 80087e0:	4460      	add	r0, ip
 80087e2:	ea82 0200 	eor.w	r2, r2, r0
 80087e6:	d041      	beq.n	800886c <noptel_measure_start_with_status+0x190>
 80087e8:	68f8      	ldr	r0, [r7, #12]
 80087ea:	f002 3c7f 	and.w	ip, r2, #2139062143	; 0x7f7f7f7f
 80087ee:	2e04      	cmp	r6, #4
 80087f0:	ea82 0200 	eor.w	r2, r2, r0
 80087f4:	f000 307f 	and.w	r0, r0, #2139062143	; 0x7f7f7f7f
 80087f8:	f002 3280 	and.w	r2, r2, #2155905152	; 0x80808080
 80087fc:	4460      	add	r0, ip
 80087fe:	ea82 0200 	eor.w	r2, r2, r0
 8008802:	d033      	beq.n	800886c <noptel_measure_start_with_status+0x190>
 8008804:	6938      	ldr	r0, [r7, #16]
 8008806:	f002 3c7f 	and.w	ip, r2, #2139062143	; 0x7f7f7f7f
 800880a:	2e05      	cmp	r6, #5
 800880c:	ea82 0200 	eor.w	r2, r2, r0
 8008810:	f000 307f 	and.w	r0, r0, #2139062143	; 0x7f7f7f7f
 8008814:	f002 3280 	and.w	r2, r2, #2155905152	; 0x80808080
 8008818:	4460      	add	r0, ip
 800881a:	ea82 0200 	eor.w	r2, r2, r0
 800881e:	d025      	beq.n	800886c <noptel_measure_start_with_status+0x190>
 8008820:	6978      	ldr	r0, [r7, #20]
 8008822:	f002 3c7f 	and.w	ip, r2, #2139062143	; 0x7f7f7f7f
 8008826:	2e06      	cmp	r6, #6
 8008828:	ea82 0200 	eor.w	r2, r2, r0
 800882c:	f000 307f 	and.w	r0, r0, #2139062143	; 0x7f7f7f7f
 8008830:	f002 3280 	and.w	r2, r2, #2155905152	; 0x80808080
 8008834:	4460      	add	r0, ip
 8008836:	ea82 0200 	eor.w	r2, r2, r0
 800883a:	d017      	beq.n	800886c <noptel_measure_start_with_status+0x190>
 800883c:	69b8      	ldr	r0, [r7, #24]
 800883e:	f002 3c7f 	and.w	ip, r2, #2139062143	; 0x7f7f7f7f
 8008842:	2e07      	cmp	r6, #7
 8008844:	ea82 0200 	eor.w	r2, r2, r0
 8008848:	f000 307f 	and.w	r0, r0, #2139062143	; 0x7f7f7f7f
 800884c:	f002 3280 	and.w	r2, r2, #2155905152	; 0x80808080
 8008850:	4460      	add	r0, ip
 8008852:	ea82 0200 	eor.w	r2, r2, r0
 8008856:	d009      	beq.n	800886c <noptel_measure_start_with_status+0x190>
 8008858:	69f8      	ldr	r0, [r7, #28]
 800885a:	f002 367f 	and.w	r6, r2, #2139062143	; 0x7f7f7f7f
 800885e:	4042      	eors	r2, r0
 8008860:	f000 307f 	and.w	r0, r0, #2139062143	; 0x7f7f7f7f
 8008864:	f002 3280 	and.w	r2, r2, #2155905152	; 0x80808080
 8008868:	4430      	add	r0, r6
 800886a:	4042      	eors	r2, r0
 800886c:	f3c2 2007 	ubfx	r0, r2, #8, #8
 8008870:	f3c2 4607 	ubfx	r6, r2, #16, #8
 8008874:	4410      	add	r0, r2
 8008876:	4430      	add	r0, r6
 8008878:	f024 0603 	bic.w	r6, r4, #3
 800887c:	eb00 6212 	add.w	r2, r0, r2, lsr #24
 8008880:	42b4      	cmp	r4, r6
 8008882:	b2d0      	uxtb	r0, r2
 8008884:	eb06 0201 	add.w	r2, r6, r1
 8008888:	d02d      	beq.n	80088e6 <noptel_measure_start_with_status+0x20a>
 800888a:	18ac      	adds	r4, r5, r2
 800888c:	7aa4      	ldrb	r4, [r4, #10]
 800888e:	4420      	add	r0, r4
 8008890:	1c54      	adds	r4, r2, #1
 8008892:	42a3      	cmp	r3, r4
 8008894:	b2c0      	uxtb	r0, r0
 8008896:	dd26      	ble.n	80088e6 <noptel_measure_start_with_status+0x20a>
 8008898:	442c      	add	r4, r5
 800889a:	7aa4      	ldrb	r4, [r4, #10]
 800889c:	4420      	add	r0, r4
 800889e:	1c94      	adds	r4, r2, #2
 80088a0:	42a3      	cmp	r3, r4
 80088a2:	b2c0      	uxtb	r0, r0
 80088a4:	dd1f      	ble.n	80088e6 <noptel_measure_start_with_status+0x20a>
 80088a6:	442c      	add	r4, r5
 80088a8:	7aa4      	ldrb	r4, [r4, #10]
 80088aa:	4420      	add	r0, r4
 80088ac:	1cd4      	adds	r4, r2, #3
 80088ae:	42a3      	cmp	r3, r4
 80088b0:	b2c0      	uxtb	r0, r0
 80088b2:	dd18      	ble.n	80088e6 <noptel_measure_start_with_status+0x20a>
 80088b4:	442c      	add	r4, r5
 80088b6:	7aa4      	ldrb	r4, [r4, #10]
 80088b8:	4420      	add	r0, r4
 80088ba:	1d14      	adds	r4, r2, #4
 80088bc:	42a3      	cmp	r3, r4
 80088be:	b2c0      	uxtb	r0, r0
 80088c0:	dd11      	ble.n	80088e6 <noptel_measure_start_with_status+0x20a>
 80088c2:	442c      	add	r4, r5
 80088c4:	7aa4      	ldrb	r4, [r4, #10]
 80088c6:	4420      	add	r0, r4
 80088c8:	1d54      	adds	r4, r2, #5
 80088ca:	42a3      	cmp	r3, r4
 80088cc:	b2c0      	uxtb	r0, r0
 80088ce:	dd0a      	ble.n	80088e6 <noptel_measure_start_with_status+0x20a>
 80088d0:	442c      	add	r4, r5
 80088d2:	3206      	adds	r2, #6
 80088d4:	7aa4      	ldrb	r4, [r4, #10]
 80088d6:	4293      	cmp	r3, r2
 80088d8:	4420      	add	r0, r4
 80088da:	b2c0      	uxtb	r0, r0
 80088dc:	dd03      	ble.n	80088e6 <noptel_measure_start_with_status+0x20a>
 80088de:	442a      	add	r2, r5
 80088e0:	7a92      	ldrb	r2, [r2, #10]
 80088e2:	4410      	add	r0, r2
 80088e4:	b2c0      	uxtb	r0, r0
 80088e6:	f080 0050 	eor.w	r0, r0, #80	; 0x50
 80088ea:	b2c0      	uxtb	r0, r0
 80088ec:	442b      	add	r3, r5
 80088ee:	7a9b      	ldrb	r3, [r3, #10]
 80088f0:	4283      	cmp	r3, r0
 80088f2:	f47f af2c 	bne.w	800874e <noptel_measure_start_with_status+0x72>
 80088f6:	186b      	adds	r3, r5, r1
 80088f8:	7ada      	ldrb	r2, [r3, #11]
 80088fa:	2a12      	cmp	r2, #18
 80088fc:	f47f af27 	bne.w	800874e <noptel_measure_start_with_status+0x72>
 8008900:	7c9a      	ldrb	r2, [r3, #18]
 8008902:	f893 b00d 	ldrb.w	fp, [r3, #13]
 8008906:	7b1f      	ldrb	r7, [r3, #12]
 8008908:	f893 a00f 	ldrb.w	sl, [r3, #15]
 800890c:	7b9e      	ldrb	r6, [r3, #14]
 800890e:	f893 9011 	ldrb.w	r9, [r3, #17]
 8008912:	7c1c      	ldrb	r4, [r3, #16]
 8008914:	f888 2000 	strb.w	r2, [r8]
 8008918:	f7f9 f9ba 	bl	8001c90 <HAL_GetTick>
 800891c:	f898 3000 	ldrb.w	r3, [r8]
 8008920:	4601      	mov	r1, r0
 8008922:	4a1d      	ldr	r2, [pc, #116]	; (8008998 <noptel_measure_start_with_status+0x2bc>)
 8008924:	9300      	str	r3, [sp, #0]
 8008926:	23fc      	movs	r3, #252	; 0xfc
 8008928:	481e      	ldr	r0, [pc, #120]	; (80089a4 <noptel_measure_start_with_status+0x2c8>)
 800892a:	f001 f8bf 	bl	8009aac <iprintf>
 800892e:	f898 3000 	ldrb.w	r3, [r8]
 8008932:	f013 0830 	ands.w	r8, r3, #48	; 0x30
 8008936:	f47f af0a 	bne.w	800874e <noptel_measure_start_with_status+0x72>
 800893a:	065b      	lsls	r3, r3, #25
 800893c:	d502      	bpl.n	8008944 <noptel_measure_start_with_status+0x268>
 800893e:	2301      	movs	r3, #1
 8008940:	f885 3044 	strb.w	r3, [r5, #68]	; 0x44
 8008944:	f895 3034 	ldrb.w	r3, [r5, #52]	; 0x34
 8008948:	ea47 270b 	orr.w	r7, r7, fp, lsl #8
 800894c:	ea46 260a 	orr.w	r6, r6, sl, lsl #8
 8008950:	3301      	adds	r3, #1
 8008952:	ea44 2409 	orr.w	r4, r4, r9, lsl #8
 8008956:	f885 3034 	strb.w	r3, [r5, #52]	; 0x34
 800895a:	642c      	str	r4, [r5, #64]	; 0x40
 800895c:	e9c5 760e 	strd	r7, r6, [r5, #56]	; 0x38
 8008960:	f7f9 f996 	bl	8001c90 <HAL_GetTick>
 8008964:	4601      	mov	r1, r0
 8008966:	e9d5 320f 	ldrd	r3, r2, [r5, #60]	; 0x3c
 800896a:	e9cd 3202 	strd	r3, r2, [sp, #8]
 800896e:	6ba8      	ldr	r0, [r5, #56]	; 0x38
 8008970:	f240 1309 	movw	r3, #265	; 0x109
 8008974:	f895 2034 	ldrb.w	r2, [r5, #52]	; 0x34
 8008978:	e9cd 2000 	strd	r2, r0, [sp]
 800897c:	4a06      	ldr	r2, [pc, #24]	; (8008998 <noptel_measure_start_with_status+0x2bc>)
 800897e:	480a      	ldr	r0, [pc, #40]	; (80089a8 <noptel_measure_start_with_status+0x2cc>)
 8008980:	f001 f894 	bl	8009aac <iprintf>
 8008984:	e6e5      	b.n	8008752 <noptel_measure_start_with_status+0x76>
 8008986:	2100      	movs	r1, #0
 8008988:	e6fe      	b.n	8008788 <noptel_measure_start_with_status+0xac>
 800898a:	2050      	movs	r0, #80	; 0x50
 800898c:	4633      	mov	r3, r6
 800898e:	e7ad      	b.n	80088ec <noptel_measure_start_with_status+0x210>
 8008990:	460a      	mov	r2, r1
 8008992:	e77a      	b.n	800888a <noptel_measure_start_with_status+0x1ae>
 8008994:	0800c228 	.word	0x0800c228
 8008998:	0800c1ec 	.word	0x0800c1ec
 800899c:	0800c1d8 	.word	0x0800c1d8
 80089a0:	0800bfa8 	.word	0x0800bfa8
 80089a4:	0800c280 	.word	0x0800c280
 80089a8:	0800c25c 	.word	0x0800c25c

080089ac <_NOPTEL_write_packet_data>:
 80089ac:	e92d 41f0 	stmdb	sp!, {r4, r5, r6, r7, r8, lr}
 80089b0:	4604      	mov	r4, r0
 80089b2:	b084      	sub	sp, #16
 80089b4:	b961      	cbnz	r1, 80089d0 <_NOPTEL_write_packet_data+0x24>
 80089b6:	f890 2033 	ldrb.w	r2, [r0, #51]	; 0x33
 80089ba:	460d      	mov	r5, r1
 80089bc:	f854 0b2b 	ldr.w	r0, [r4], #43
 80089c0:	2364      	movs	r3, #100	; 0x64
 80089c2:	4621      	mov	r1, r4
 80089c4:	f7fb fe4a 	bl	800465c <HAL_UART_Transmit>
 80089c8:	4628      	mov	r0, r5
 80089ca:	b004      	add	sp, #16
 80089cc:	e8bd 81f0 	ldmia.w	sp!, {r4, r5, r6, r7, r8, pc}
 80089d0:	2301      	movs	r3, #1
 80089d2:	2220      	movs	r2, #32
 80089d4:	2100      	movs	r1, #0
 80089d6:	4668      	mov	r0, sp
 80089d8:	4f28      	ldr	r7, [pc, #160]	; (8008a7c <_NOPTEL_write_packet_data+0xd0>)
 80089da:	e9cd 2300 	strd	r2, r3, [sp]
 80089de:	f7fc f8ff 	bl	8004be0 <osMessageCreate>
 80089e2:	4621      	mov	r1, r4
 80089e4:	2220      	movs	r2, #32
 80089e6:	6038      	str	r0, [r7, #0]
 80089e8:	f851 0b0a 	ldr.w	r0, [r1], #10
 80089ec:	f7fb ff94 	bl	8004918 <HAL_UARTEx_ReceiveToIdle_DMA>
 80089f0:	6823      	ldr	r3, [r4, #0]
 80089f2:	4621      	mov	r1, r4
 80089f4:	6f5b      	ldr	r3, [r3, #116]	; 0x74
 80089f6:	681a      	ldr	r2, [r3, #0]
 80089f8:	6813      	ldr	r3, [r2, #0]
 80089fa:	f023 0308 	bic.w	r3, r3, #8
 80089fe:	6013      	str	r3, [r2, #0]
 8008a00:	2364      	movs	r3, #100	; 0x64
 8008a02:	f851 0b2b 	ldr.w	r0, [r1], #43
 8008a06:	f894 2033 	ldrb.w	r2, [r4, #51]	; 0x33
 8008a0a:	f7fb fe27 	bl	800465c <HAL_UART_Transmit>
 8008a0e:	f242 7210 	movw	r2, #10000	; 0x2710
 8008a12:	6839      	ldr	r1, [r7, #0]
 8008a14:	4668      	mov	r0, sp
 8008a16:	f7fc f915 	bl	8004c44 <osMessageGet>
 8008a1a:	9b00      	ldr	r3, [sp, #0]
 8008a1c:	2b10      	cmp	r3, #16
 8008a1e:	d009      	beq.n	8008a34 <_NOPTEL_write_packet_data+0x88>
 8008a20:	2b40      	cmp	r3, #64	; 0x40
 8008a22:	d026      	beq.n	8008a72 <_NOPTEL_write_packet_data+0xc6>
 8008a24:	2501      	movs	r5, #1
 8008a26:	6838      	ldr	r0, [r7, #0]
 8008a28:	f7fc fa5c 	bl	8004ee4 <osMessageDelete>
 8008a2c:	4628      	mov	r0, r5
 8008a2e:	b004      	add	sp, #16
 8008a30:	e8bd 81f0 	ldmia.w	sp!, {r4, r5, r6, r7, r8, pc}
 8008a34:	9b01      	ldr	r3, [sp, #4]
 8008a36:	4812      	ldr	r0, [pc, #72]	; (8008a80 <_NOPTEL_write_packet_data+0xd4>)
 8008a38:	b2d9      	uxtb	r1, r3
 8008a3a:	f884 302a 	strb.w	r3, [r4, #42]	; 0x2a
 8008a3e:	f001 f835 	bl	8009aac <iprintf>
 8008a42:	f894 302a 	ldrb.w	r3, [r4, #42]	; 0x2a
 8008a46:	b17b      	cbz	r3, 8008a68 <_NOPTEL_write_packet_data+0xbc>
 8008a48:	f104 0609 	add.w	r6, r4, #9
 8008a4c:	f8df 803c 	ldr.w	r8, [pc, #60]	; 8008a8c <_NOPTEL_write_packet_data+0xe0>
 8008a50:	4635      	mov	r5, r6
 8008a52:	4640      	mov	r0, r8
 8008a54:	f816 1f01 	ldrb.w	r1, [r6, #1]!
 8008a58:	3d08      	subs	r5, #8
 8008a5a:	f001 f827 	bl	8009aac <iprintf>
 8008a5e:	f894 302a 	ldrb.w	r3, [r4, #42]	; 0x2a
 8008a62:	1b2d      	subs	r5, r5, r4
 8008a64:	42ab      	cmp	r3, r5
 8008a66:	dcf3      	bgt.n	8008a50 <_NOPTEL_write_packet_data+0xa4>
 8008a68:	4806      	ldr	r0, [pc, #24]	; (8008a84 <_NOPTEL_write_packet_data+0xd8>)
 8008a6a:	2500      	movs	r5, #0
 8008a6c:	f001 f8a4 	bl	8009bb8 <puts>
 8008a70:	e7d9      	b.n	8008a26 <_NOPTEL_write_packet_data+0x7a>
 8008a72:	4805      	ldr	r0, [pc, #20]	; (8008a88 <_NOPTEL_write_packet_data+0xdc>)
 8008a74:	2501      	movs	r5, #1
 8008a76:	f001 f89f 	bl	8009bb8 <puts>
 8008a7a:	e7d4      	b.n	8008a26 <_NOPTEL_write_packet_data+0x7a>
 8008a7c:	20010790 	.word	0x20010790
 8008a80:	0800c29c 	.word	0x0800c29c
 8008a84:	0800bfa8 	.word	0x0800bfa8
 8008a88:	0800c1e0 	.word	0x0800c1e0
 8008a8c:	0800c1d8 	.word	0x0800c1d8

08008a90 <HAL_UARTEx_RxEventCallback>:
 8008a90:	4b06      	ldr	r3, [pc, #24]	; (8008aac <HAL_UARTEx_RxEventCallback+0x1c>)
 8008a92:	6802      	ldr	r2, [r0, #0]
 8008a94:	681b      	ldr	r3, [r3, #0]
 8008a96:	429a      	cmp	r2, r3
 8008a98:	d000      	beq.n	8008a9c <HAL_UARTEx_RxEventCallback+0xc>
 8008a9a:	4770      	bx	lr
 8008a9c:	4b04      	ldr	r3, [pc, #16]	; (8008ab0 <HAL_UARTEx_RxEventCallback+0x20>)
 8008a9e:	6818      	ldr	r0, [r3, #0]
 8008aa0:	2800      	cmp	r0, #0
 8008aa2:	d0fa      	beq.n	8008a9a <HAL_UARTEx_RxEventCallback+0xa>
 8008aa4:	2200      	movs	r2, #0
 8008aa6:	f7fc b8a1 	b.w	8004bec <osMessagePut>
 8008aaa:	bf00      	nop
 8008aac:	200004dc 	.word	0x200004dc
 8008ab0:	20010790 	.word	0x20010790

08008ab4 <TBT_set_zoom_optical_direct>:
 8008ab4:	b510      	push	{r4, lr}
 8008ab6:	4c09      	ldr	r4, [pc, #36]	; (8008adc <TBT_set_zoom_optical_direct+0x28>)
 8008ab8:	4603      	mov	r3, r0
 8008aba:	6820      	ldr	r0, [r4, #0]
 8008abc:	88a4      	ldrh	r4, [r4, #4]
 8008abe:	f8c3 0019 	str.w	r0, [r3, #25]
 8008ac2:	2015      	movs	r0, #21
 8008ac4:	7719      	strb	r1, [r3, #28]
 8008ac6:	0a09      	lsrs	r1, r1, #8
 8008ac8:	f8a3 401d 	strh.w	r4, [r3, #29]
 8008acc:	7698      	strb	r0, [r3, #26]
 8008ace:	4618      	mov	r0, r3
 8008ad0:	775a      	strb	r2, [r3, #29]
 8008ad2:	76d9      	strb	r1, [r3, #27]
 8008ad4:	f000 f864 	bl	8008ba0 <_TBT_write_packet_data>
 8008ad8:	bd10      	pop	{r4, pc}
 8008ada:	bf00      	nop
 8008adc:	0800bf2c 	.word	0x0800bf2c

08008ae0 <TBT_set_focus_stop>:
 8008ae0:	4a07      	ldr	r2, [pc, #28]	; (8008b00 <TBT_set_focus_stop+0x20>)
 8008ae2:	2117      	movs	r1, #23
 8008ae4:	b508      	push	{r3, lr}
 8008ae6:	4603      	mov	r3, r0
 8008ae8:	6810      	ldr	r0, [r2, #0]
 8008aea:	8892      	ldrh	r2, [r2, #4]
 8008aec:	f8c3 0019 	str.w	r0, [r3, #25]
 8008af0:	4618      	mov	r0, r3
 8008af2:	f8a3 201d 	strh.w	r2, [r3, #29]
 8008af6:	7699      	strb	r1, [r3, #26]
 8008af8:	f000 f852 	bl	8008ba0 <_TBT_write_packet_data>
 8008afc:	bd08      	pop	{r3, pc}
 8008afe:	bf00      	nop
 8008b00:	0800bf2c 	.word	0x0800bf2c

08008b04 <TBT_set_focus_start>:
 8008b04:	b510      	push	{r4, lr}
 8008b06:	4c08      	ldr	r4, [pc, #32]	; (8008b28 <TBT_set_focus_start+0x24>)
 8008b08:	4603      	mov	r3, r0
 8008b0a:	f8b4 c004 	ldrh.w	ip, [r4, #4]
 8008b0e:	6820      	ldr	r0, [r4, #0]
 8008b10:	2416      	movs	r4, #22
 8008b12:	f8a3 c01d 	strh.w	ip, [r3, #29]
 8008b16:	f8c3 0019 	str.w	r0, [r3, #25]
 8008b1a:	4618      	mov	r0, r3
 8008b1c:	76d9      	strb	r1, [r3, #27]
 8008b1e:	769c      	strb	r4, [r3, #26]
 8008b20:	771a      	strb	r2, [r3, #28]
 8008b22:	f000 f83d 	bl	8008ba0 <_TBT_write_packet_data>
 8008b26:	bd10      	pop	{r4, pc}
 8008b28:	0800bf2c 	.word	0x0800bf2c

08008b2c <TBT_set_focus_auto_one_push>:
 8008b2c:	4a07      	ldr	r2, [pc, #28]	; (8008b4c <TBT_set_focus_auto_one_push+0x20>)
 8008b2e:	2119      	movs	r1, #25
 8008b30:	b508      	push	{r3, lr}
 8008b32:	4603      	mov	r3, r0
 8008b34:	6810      	ldr	r0, [r2, #0]
 8008b36:	8892      	ldrh	r2, [r2, #4]
 8008b38:	f8c3 0019 	str.w	r0, [r3, #25]
 8008b3c:	4618      	mov	r0, r3
 8008b3e:	f8a3 201d 	strh.w	r2, [r3, #29]
 8008b42:	7699      	strb	r1, [r3, #26]
 8008b44:	f000 f82c 	bl	8008ba0 <_TBT_write_packet_data>
 8008b48:	bd08      	pop	{r3, pc}
 8008b4a:	bf00      	nop
 8008b4c:	0800bf2c 	.word	0x0800bf2c

08008b50 <TBT_set_video_mode>:
 8008b50:	b538      	push	{r3, r4, r5, lr}
 8008b52:	4b0f      	ldr	r3, [pc, #60]	; (8008b90 <TBT_set_video_mode+0x40>)
 8008b54:	4604      	mov	r4, r0
 8008b56:	2279      	movs	r2, #121	; 0x79
 8008b58:	460d      	mov	r5, r1
 8008b5a:	6818      	ldr	r0, [r3, #0]
 8008b5c:	889b      	ldrh	r3, [r3, #4]
 8008b5e:	f8c4 0019 	str.w	r0, [r4, #25]
 8008b62:	f8a4 301d 	strh.w	r3, [r4, #29]
 8008b66:	480b      	ldr	r0, [pc, #44]	; (8008b94 <TBT_set_video_mode+0x44>)
 8008b68:	76a2      	strb	r2, [r4, #26]
 8008b6a:	76e1      	strb	r1, [r4, #27]
 8008b6c:	f000 ff9e 	bl	8009aac <iprintf>
 8008b70:	b935      	cbnz	r5, 8008b80 <TBT_set_video_mode+0x30>
 8008b72:	4809      	ldr	r0, [pc, #36]	; (8008b98 <TBT_set_video_mode+0x48>)
 8008b74:	f001 f820 	bl	8009bb8 <puts>
 8008b78:	4620      	mov	r0, r4
 8008b7a:	f000 f811 	bl	8008ba0 <_TBT_write_packet_data>
 8008b7e:	bd38      	pop	{r3, r4, r5, pc}
 8008b80:	4806      	ldr	r0, [pc, #24]	; (8008b9c <TBT_set_video_mode+0x4c>)
 8008b82:	f001 f819 	bl	8009bb8 <puts>
 8008b86:	4620      	mov	r0, r4
 8008b88:	f000 f80a 	bl	8008ba0 <_TBT_write_packet_data>
 8008b8c:	bd38      	pop	{r3, r4, r5, pc}
 8008b8e:	bf00      	nop
 8008b90:	0800bf2c 	.word	0x0800bf2c
 8008b94:	0800c2a4 	.word	0x0800c2a4
 8008b98:	0800c2b0 	.word	0x0800c2b0
 8008b9c:	0800c2b8 	.word	0x0800c2b8

08008ba0 <_TBT_write_packet_data>:
 8008ba0:	b570      	push	{r4, r5, r6, lr}
 8008ba2:	4604      	mov	r4, r0
 8008ba4:	4605      	mov	r5, r0
 8008ba6:	2364      	movs	r3, #100	; 0x64
 8008ba8:	2206      	movs	r2, #6
 8008baa:	f854 0b19 	ldr.w	r0, [r4], #25
 8008bae:	4621      	mov	r1, r4
 8008bb0:	f7fb fd54 	bl	800465c <HAL_UART_Transmit>
 8008bb4:	b980      	cbnz	r0, 8008bd8 <_TBT_write_packet_data+0x38>
 8008bb6:	4809      	ldr	r0, [pc, #36]	; (8008bdc <_TBT_write_packet_data+0x3c>)
 8008bb8:	351f      	adds	r5, #31
 8008bba:	4e09      	ldr	r6, [pc, #36]	; (8008be0 <_TBT_write_packet_data+0x40>)
 8008bbc:	f000 ff76 	bl	8009aac <iprintf>
 8008bc0:	f814 1b01 	ldrb.w	r1, [r4], #1
 8008bc4:	4630      	mov	r0, r6
 8008bc6:	f000 ff71 	bl	8009aac <iprintf>
 8008bca:	42ac      	cmp	r4, r5
 8008bcc:	d1f8      	bne.n	8008bc0 <_TBT_write_packet_data+0x20>
 8008bce:	4805      	ldr	r0, [pc, #20]	; (8008be4 <_TBT_write_packet_data+0x44>)
 8008bd0:	f000 fff2 	bl	8009bb8 <puts>
 8008bd4:	2000      	movs	r0, #0
 8008bd6:	bd70      	pop	{r4, r5, r6, pc}
 8008bd8:	20ff      	movs	r0, #255	; 0xff
 8008bda:	bd70      	pop	{r4, r5, r6, pc}
 8008bdc:	0800c1bc 	.word	0x0800c1bc
 8008be0:	0800c1c4 	.word	0x0800c1c4
 8008be4:	0800bfa8 	.word	0x0800bfa8

08008be8 <USART2_IRQHandler>:
 8008be8:	4b06      	ldr	r3, [pc, #24]	; (8008c04 <USART2_IRQHandler+0x1c>)
 8008bea:	681b      	ldr	r3, [r3, #0]
 8008bec:	69da      	ldr	r2, [r3, #28]
 8008bee:	0692      	lsls	r2, r2, #26
 8008bf0:	d400      	bmi.n	8008bf4 <USART2_IRQHandler+0xc>
 8008bf2:	4770      	bx	lr
 8008bf4:	6a59      	ldr	r1, [r3, #36]	; 0x24
 8008bf6:	2200      	movs	r2, #0
 8008bf8:	4b03      	ldr	r3, [pc, #12]	; (8008c08 <USART2_IRQHandler+0x20>)
 8008bfa:	b2c9      	uxtb	r1, r1
 8008bfc:	6818      	ldr	r0, [r3, #0]
 8008bfe:	f7fb bff5 	b.w	8004bec <osMessagePut>
 8008c02:	bf00      	nop
 8008c04:	200003cc 	.word	0x200003cc
 8008c08:	20010794 	.word	0x20010794

08008c0c <retarget_init>:
 8008c0c:	b510      	push	{r4, lr}
 8008c0e:	4c0a      	ldr	r4, [pc, #40]	; (8008c38 <retarget_init+0x2c>)
 8008c10:	480a      	ldr	r0, [pc, #40]	; (8008c3c <retarget_init+0x30>)
 8008c12:	f000 f81f 	bl	8008c54 <uartTerminal_init>
 8008c16:	6823      	ldr	r3, [r4, #0]
 8008c18:	2100      	movs	r1, #0
 8008c1a:	6858      	ldr	r0, [r3, #4]
 8008c1c:	f000 ffd4 	bl	8009bc8 <setbuf>
 8008c20:	6823      	ldr	r3, [r4, #0]
 8008c22:	2100      	movs	r1, #0
 8008c24:	6898      	ldr	r0, [r3, #8]
 8008c26:	f000 ffcf 	bl	8009bc8 <setbuf>
 8008c2a:	6823      	ldr	r3, [r4, #0]
 8008c2c:	2100      	movs	r1, #0
 8008c2e:	68d8      	ldr	r0, [r3, #12]
 8008c30:	e8bd 4010 	ldmia.w	sp!, {r4, lr}
 8008c34:	f000 bfc8 	b.w	8009bc8 <setbuf>
 8008c38:	20000030 	.word	0x20000030
 8008c3c:	20000344 	.word	0x20000344

08008c40 <__io_putchar>:
 8008c40:	b508      	push	{r3, lr}
 8008c42:	b2c0      	uxtb	r0, r0
 8008c44:	f000 f80e 	bl	8008c64 <uartTerminal_send>
 8008c48:	2001      	movs	r0, #1
 8008c4a:	bd08      	pop	{r3, pc}

08008c4c <__io_getchar>:
 8008c4c:	b508      	push	{r3, lr}
 8008c4e:	f000 f81b 	bl	8008c88 <uartTerminal_recv>
 8008c52:	bd08      	pop	{r3, pc}

08008c54 <uartTerminal_init>:
 8008c54:	4602      	mov	r2, r0
 8008c56:	4b02      	ldr	r3, [pc, #8]	; (8008c60 <uartTerminal_init+0xc>)
 8008c58:	2000      	movs	r0, #0
 8008c5a:	601a      	str	r2, [r3, #0]
 8008c5c:	4770      	bx	lr
 8008c5e:	bf00      	nop
 8008c60:	20010798 	.word	0x20010798

08008c64 <uartTerminal_send>:
 8008c64:	b510      	push	{r4, lr}
 8008c66:	b082      	sub	sp, #8
 8008c68:	4c06      	ldr	r4, [pc, #24]	; (8008c84 <uartTerminal_send+0x20>)
 8008c6a:	4684      	mov	ip, r0
 8008c6c:	2364      	movs	r3, #100	; 0x64
 8008c6e:	2201      	movs	r2, #1
 8008c70:	f10d 0107 	add.w	r1, sp, #7
 8008c74:	6820      	ldr	r0, [r4, #0]
 8008c76:	f88d c007 	strb.w	ip, [sp, #7]
 8008c7a:	f7fb fcef 	bl	800465c <HAL_UART_Transmit>
 8008c7e:	b002      	add	sp, #8
 8008c80:	bd10      	pop	{r4, pc}
 8008c82:	bf00      	nop
 8008c84:	20010798 	.word	0x20010798

08008c88 <uartTerminal_recv>:
 8008c88:	b510      	push	{r4, lr}
 8008c8a:	480a      	ldr	r0, [pc, #40]	; (8008cb4 <uartTerminal_recv+0x2c>)
 8008c8c:	b082      	sub	sp, #8
 8008c8e:	2400      	movs	r4, #0
 8008c90:	2364      	movs	r3, #100	; 0x64
 8008c92:	2201      	movs	r2, #1
 8008c94:	f10d 0107 	add.w	r1, sp, #7
 8008c98:	6800      	ldr	r0, [r0, #0]
 8008c9a:	f88d 4007 	strb.w	r4, [sp, #7]
 8008c9e:	f7fa ff73 	bl	8003b88 <HAL_UART_Receive>
 8008ca2:	b918      	cbnz	r0, 8008cac <uartTerminal_recv+0x24>
 8008ca4:	f89d 0007 	ldrb.w	r0, [sp, #7]
 8008ca8:	b002      	add	sp, #8
 8008caa:	bd10      	pop	{r4, pc}
 8008cac:	4620      	mov	r0, r4
 8008cae:	b002      	add	sp, #8
 8008cb0:	bd10      	pop	{r4, pc}
 8008cb2:	bf00      	nop
 8008cb4:	20010798 	.word	0x20010798

08008cb8 <sony_init>:
 8008cb8:	b410      	push	{r4}
 8008cba:	4b06      	ldr	r3, [pc, #24]	; (8008cd4 <sony_init+0x1c>)
 8008cbc:	2000      	movs	r0, #0
 8008cbe:	4c06      	ldr	r4, [pc, #24]	; (8008cd8 <sony_init+0x20>)
 8008cc0:	2201      	movs	r2, #1
 8008cc2:	6098      	str	r0, [r3, #8]
 8008cc4:	2139      	movs	r1, #57	; 0x39
 8008cc6:	601c      	str	r4, [r3, #0]
 8008cc8:	635a      	str	r2, [r3, #52]	; 0x34
 8008cca:	4804      	ldr	r0, [pc, #16]	; (8008cdc <sony_init+0x24>)
 8008ccc:	f85d 4b04 	ldr.w	r4, [sp], #4
 8008cd0:	f000 beec 	b.w	8009aac <iprintf>
 8008cd4:	2001079c 	.word	0x2001079c
 8008cd8:	20000454 	.word	0x20000454
 8008cdc:	0800c2c0 	.word	0x0800c2c0

08008ce0 <sony_zoom>:
 8008ce0:	490c      	ldr	r1, [pc, #48]	; (8008d14 <sony_zoom+0x34>)
 8008ce2:	4602      	mov	r2, r0
 8008ce4:	b500      	push	{lr}
 8008ce6:	b083      	sub	sp, #12
 8008ce8:	f1a1 0034 	sub.w	r0, r1, #52	; 0x34
 8008cec:	9201      	str	r2, [sp, #4]
 8008cee:	f7ff fb53 	bl	8008398 <VISCA_set_zoom_value>
 8008cf2:	b938      	cbnz	r0, 8008d04 <sony_zoom+0x24>
 8008cf4:	9a01      	ldr	r2, [sp, #4]
 8008cf6:	2144      	movs	r1, #68	; 0x44
 8008cf8:	4807      	ldr	r0, [pc, #28]	; (8008d18 <sony_zoom+0x38>)
 8008cfa:	b003      	add	sp, #12
 8008cfc:	f85d eb04 	ldr.w	lr, [sp], #4
 8008d00:	f000 bed4 	b.w	8009aac <iprintf>
 8008d04:	2146      	movs	r1, #70	; 0x46
 8008d06:	4805      	ldr	r0, [pc, #20]	; (8008d1c <sony_zoom+0x3c>)
 8008d08:	b003      	add	sp, #12
 8008d0a:	f85d eb04 	ldr.w	lr, [sp], #4
 8008d0e:	f000 becd 	b.w	8009aac <iprintf>
 8008d12:	bf00      	nop
 8008d14:	200107d0 	.word	0x200107d0
 8008d18:	0800c2d4 	.word	0x0800c2d4
 8008d1c:	0800c2f0 	.word	0x0800c2f0

08008d20 <sony_auto_focus_start>:
 8008d20:	4909      	ldr	r1, [pc, #36]	; (8008d48 <sony_auto_focus_start+0x28>)
 8008d22:	2202      	movs	r2, #2
 8008d24:	b508      	push	{r3, lr}
 8008d26:	f1a1 0034 	sub.w	r0, r1, #52	; 0x34
 8008d2a:	f7ff fb93 	bl	8008454 <VISCA_set_focus_auto>
 8008d2e:	b928      	cbnz	r0, 8008d3c <sony_auto_focus_start+0x1c>
 8008d30:	214c      	movs	r1, #76	; 0x4c
 8008d32:	4806      	ldr	r0, [pc, #24]	; (8008d4c <sony_auto_focus_start+0x2c>)
 8008d34:	e8bd 4008 	ldmia.w	sp!, {r3, lr}
 8008d38:	f000 beb8 	b.w	8009aac <iprintf>
 8008d3c:	214e      	movs	r1, #78	; 0x4e
 8008d3e:	4804      	ldr	r0, [pc, #16]	; (8008d50 <sony_auto_focus_start+0x30>)
 8008d40:	e8bd 4008 	ldmia.w	sp!, {r3, lr}
 8008d44:	f000 beb2 	b.w	8009aac <iprintf>
 8008d48:	200107d0 	.word	0x200107d0
 8008d4c:	0800c308 	.word	0x0800c308
 8008d50:	0800c2f0 	.word	0x0800c2f0

08008d54 <sony_man_focus_near_speed_start>:
 8008d54:	490e      	ldr	r1, [pc, #56]	; (8008d90 <sony_man_focus_near_speed_start+0x3c>)
 8008d56:	2203      	movs	r2, #3
 8008d58:	b510      	push	{r4, lr}
 8008d5a:	4604      	mov	r4, r0
 8008d5c:	f1a1 0034 	sub.w	r0, r1, #52	; 0x34
 8008d60:	f7ff fb78 	bl	8008454 <VISCA_set_focus_auto>
 8008d64:	490a      	ldr	r1, [pc, #40]	; (8008d90 <sony_man_focus_near_speed_start+0x3c>)
 8008d66:	4622      	mov	r2, r4
 8008d68:	4604      	mov	r4, r0
 8008d6a:	f1a1 0034 	sub.w	r0, r1, #52	; 0x34
 8008d6e:	f7ff fb5b 	bl	8008428 <VISCA_set_focus_near_speed>
 8008d72:	ea54 0300 	orrs.w	r3, r4, r0
 8008d76:	d105      	bne.n	8008d84 <sony_man_focus_near_speed_start+0x30>
 8008d78:	215a      	movs	r1, #90	; 0x5a
 8008d7a:	4806      	ldr	r0, [pc, #24]	; (8008d94 <sony_man_focus_near_speed_start+0x40>)
 8008d7c:	e8bd 4010 	ldmia.w	sp!, {r4, lr}
 8008d80:	f000 be94 	b.w	8009aac <iprintf>
 8008d84:	215c      	movs	r1, #92	; 0x5c
 8008d86:	4804      	ldr	r0, [pc, #16]	; (8008d98 <sony_man_focus_near_speed_start+0x44>)
 8008d88:	e8bd 4010 	ldmia.w	sp!, {r4, lr}
 8008d8c:	f000 be8e 	b.w	8009aac <iprintf>
 8008d90:	200107d0 	.word	0x200107d0
 8008d94:	0800c328 	.word	0x0800c328
 8008d98:	0800c2f0 	.word	0x0800c2f0

08008d9c <sony_man_focus_far_speed_start>:
 8008d9c:	490e      	ldr	r1, [pc, #56]	; (8008dd8 <sony_man_focus_far_speed_start+0x3c>)
 8008d9e:	2203      	movs	r2, #3
 8008da0:	b510      	push	{r4, lr}
 8008da2:	4604      	mov	r4, r0
 8008da4:	f1a1 0034 	sub.w	r0, r1, #52	; 0x34
 8008da8:	f7ff fb54 	bl	8008454 <VISCA_set_focus_auto>
 8008dac:	490a      	ldr	r1, [pc, #40]	; (8008dd8 <sony_man_focus_far_speed_start+0x3c>)
 8008dae:	4622      	mov	r2, r4
 8008db0:	4604      	mov	r4, r0
 8008db2:	f1a1 0034 	sub.w	r0, r1, #52	; 0x34
 8008db6:	f7ff fb21 	bl	80083fc <VISCA_set_focus_far_speed>
 8008dba:	ea54 0300 	orrs.w	r3, r4, r0
 8008dbe:	d105      	bne.n	8008dcc <sony_man_focus_far_speed_start+0x30>
 8008dc0:	2176      	movs	r1, #118	; 0x76
 8008dc2:	4806      	ldr	r0, [pc, #24]	; (8008ddc <sony_man_focus_far_speed_start+0x40>)
 8008dc4:	e8bd 4010 	ldmia.w	sp!, {r4, lr}
 8008dc8:	f000 be70 	b.w	8009aac <iprintf>
 8008dcc:	2178      	movs	r1, #120	; 0x78
 8008dce:	4804      	ldr	r0, [pc, #16]	; (8008de0 <sony_man_focus_far_speed_start+0x44>)
 8008dd0:	e8bd 4010 	ldmia.w	sp!, {r4, lr}
 8008dd4:	f000 be6a 	b.w	8009aac <iprintf>
 8008dd8:	200107d0 	.word	0x200107d0
 8008ddc:	0800c34c 	.word	0x0800c34c
 8008de0:	0800c2f0 	.word	0x0800c2f0

08008de4 <sony_man_focus_stop>:
 8008de4:	4909      	ldr	r1, [pc, #36]	; (8008e0c <sony_man_focus_stop+0x28>)
 8008de6:	b508      	push	{r3, lr}
 8008de8:	f1a1 0034 	sub.w	r0, r1, #52	; 0x34
 8008dec:	f7ff faf8 	bl	80083e0 <VISCA_set_focus_stop>
 8008df0:	b928      	cbnz	r0, 8008dfe <sony_man_focus_stop+0x1a>
 8008df2:	218f      	movs	r1, #143	; 0x8f
 8008df4:	4806      	ldr	r0, [pc, #24]	; (8008e10 <sony_man_focus_stop+0x2c>)
 8008df6:	e8bd 4008 	ldmia.w	sp!, {r3, lr}
 8008dfa:	f000 be57 	b.w	8009aac <iprintf>
 8008dfe:	2191      	movs	r1, #145	; 0x91
 8008e00:	4804      	ldr	r0, [pc, #16]	; (8008e14 <sony_man_focus_stop+0x30>)
 8008e02:	e8bd 4008 	ldmia.w	sp!, {r3, lr}
 8008e06:	f000 be51 	b.w	8009aac <iprintf>
 8008e0a:	bf00      	nop
 8008e0c:	200107d0 	.word	0x200107d0
 8008e10:	0800c36c 	.word	0x0800c36c
 8008e14:	0800c2f0 	.word	0x0800c2f0

08008e18 <sony_power>:
 8008e18:	b510      	push	{r4, lr}
 8008e1a:	4604      	mov	r4, r0
 8008e1c:	b1d0      	cbz	r0, 8008e54 <sony_power+0x3c>
 8008e1e:	4917      	ldr	r1, [pc, #92]	; (8008e7c <sony_power+0x64>)
 8008e20:	2202      	movs	r2, #2
 8008e22:	f1a1 0034 	sub.w	r0, r1, #52	; 0x34
 8008e26:	f7ff faa3 	bl	8008370 <VISCA_set_power>
 8008e2a:	4622      	mov	r2, r4
 8008e2c:	21a7      	movs	r1, #167	; 0xa7
 8008e2e:	4814      	ldr	r0, [pc, #80]	; (8008e80 <sony_power+0x68>)
 8008e30:	f000 fe3c 	bl	8009aac <iprintf>
 8008e34:	4911      	ldr	r1, [pc, #68]	; (8008e7c <sony_power+0x64>)
 8008e36:	f44f 5200 	mov.w	r2, #8192	; 0x2000
 8008e3a:	f1a1 0034 	sub.w	r0, r1, #52	; 0x34
 8008e3e:	f7ff faab 	bl	8008398 <VISCA_set_zoom_value>
 8008e42:	b9a0      	cbnz	r0, 8008e6e <sony_power+0x56>
 8008e44:	f44f 5200 	mov.w	r2, #8192	; 0x2000
 8008e48:	2144      	movs	r1, #68	; 0x44
 8008e4a:	480e      	ldr	r0, [pc, #56]	; (8008e84 <sony_power+0x6c>)
 8008e4c:	e8bd 4010 	ldmia.w	sp!, {r4, lr}
 8008e50:	f000 be2c 	b.w	8009aac <iprintf>
 8008e54:	4909      	ldr	r1, [pc, #36]	; (8008e7c <sony_power+0x64>)
 8008e56:	2203      	movs	r2, #3
 8008e58:	f1a1 0034 	sub.w	r0, r1, #52	; 0x34
 8008e5c:	f7ff fa88 	bl	8008370 <VISCA_set_power>
 8008e60:	4622      	mov	r2, r4
 8008e62:	21a7      	movs	r1, #167	; 0xa7
 8008e64:	4806      	ldr	r0, [pc, #24]	; (8008e80 <sony_power+0x68>)
 8008e66:	e8bd 4010 	ldmia.w	sp!, {r4, lr}
 8008e6a:	f000 be1f 	b.w	8009aac <iprintf>
 8008e6e:	2146      	movs	r1, #70	; 0x46
 8008e70:	4805      	ldr	r0, [pc, #20]	; (8008e88 <sony_power+0x70>)
 8008e72:	e8bd 4010 	ldmia.w	sp!, {r4, lr}
 8008e76:	f000 be19 	b.w	8009aac <iprintf>
 8008e7a:	bf00      	nop
 8008e7c:	200107d0 	.word	0x200107d0
 8008e80:	0800c388 	.word	0x0800c388
 8008e84:	0800c2d4 	.word	0x0800c2d4
 8008e88:	0800c2f0 	.word	0x0800c2f0

08008e8c <sony_set_video_mode>:
 8008e8c:	21be      	movs	r1, #190	; 0xbe
 8008e8e:	4801      	ldr	r0, [pc, #4]	; (8008e94 <sony_set_video_mode+0x8>)
 8008e90:	f000 be0c 	b.w	8009aac <iprintf>
 8008e94:	0800c3a0 	.word	0x0800c3a0

08008e98 <tbt_init>:
 8008e98:	2120      	movs	r1, #32
 8008e9a:	4801      	ldr	r0, [pc, #4]	; (8008ea0 <tbt_init+0x8>)
 8008e9c:	f000 be06 	b.w	8009aac <iprintf>
 8008ea0:	0800c3b8 	.word	0x0800c3b8

08008ea4 <tbt_zoom>:
 8008ea4:	b510      	push	{r4, lr}
 8008ea6:	4604      	mov	r4, r0
 8008ea8:	2207      	movs	r2, #7
 8008eaa:	4809      	ldr	r0, [pc, #36]	; (8008ed0 <tbt_zoom+0x2c>)
 8008eac:	b2a1      	uxth	r1, r4
 8008eae:	f7ff fe01 	bl	8008ab4 <TBT_set_zoom_optical_direct>
 8008eb2:	b930      	cbnz	r0, 8008ec2 <tbt_zoom+0x1e>
 8008eb4:	4622      	mov	r2, r4
 8008eb6:	212b      	movs	r1, #43	; 0x2b
 8008eb8:	4806      	ldr	r0, [pc, #24]	; (8008ed4 <tbt_zoom+0x30>)
 8008eba:	e8bd 4010 	ldmia.w	sp!, {r4, lr}
 8008ebe:	f000 bdf5 	b.w	8009aac <iprintf>
 8008ec2:	212d      	movs	r1, #45	; 0x2d
 8008ec4:	4804      	ldr	r0, [pc, #16]	; (8008ed8 <tbt_zoom+0x34>)
 8008ec6:	e8bd 4010 	ldmia.w	sp!, {r4, lr}
 8008eca:	f000 bdef 	b.w	8009aac <iprintf>
 8008ece:	bf00      	nop
 8008ed0:	20000010 	.word	0x20000010
 8008ed4:	0800c3c8 	.word	0x0800c3c8
 8008ed8:	0800c3e0 	.word	0x0800c3e0

08008edc <tbt_auto_focus_start>:
 8008edc:	b508      	push	{r3, lr}
 8008ede:	4808      	ldr	r0, [pc, #32]	; (8008f00 <tbt_auto_focus_start+0x24>)
 8008ee0:	f7ff fe24 	bl	8008b2c <TBT_set_focus_auto_one_push>
 8008ee4:	b928      	cbnz	r0, 8008ef2 <tbt_auto_focus_start+0x16>
 8008ee6:	2133      	movs	r1, #51	; 0x33
 8008ee8:	4806      	ldr	r0, [pc, #24]	; (8008f04 <tbt_auto_focus_start+0x28>)
 8008eea:	e8bd 4008 	ldmia.w	sp!, {r3, lr}
 8008eee:	f000 bddd 	b.w	8009aac <iprintf>
 8008ef2:	2135      	movs	r1, #53	; 0x35
 8008ef4:	4804      	ldr	r0, [pc, #16]	; (8008f08 <tbt_auto_focus_start+0x2c>)
 8008ef6:	e8bd 4008 	ldmia.w	sp!, {r3, lr}
 8008efa:	f000 bdd7 	b.w	8009aac <iprintf>
 8008efe:	bf00      	nop
 8008f00:	20000010 	.word	0x20000010
 8008f04:	0800c3f8 	.word	0x0800c3f8
 8008f08:	0800c3e0 	.word	0x0800c3e0

08008f0c <tbt_man_focus_near_speed_start>:
 8008f0c:	4602      	mov	r2, r0
 8008f0e:	2100      	movs	r1, #0
 8008f10:	4809      	ldr	r0, [pc, #36]	; (8008f38 <tbt_man_focus_near_speed_start+0x2c>)
 8008f12:	f002 0207 	and.w	r2, r2, #7
 8008f16:	b508      	push	{r3, lr}
 8008f18:	f7ff fdf4 	bl	8008b04 <TBT_set_focus_start>
 8008f1c:	b928      	cbnz	r0, 8008f2a <tbt_man_focus_near_speed_start+0x1e>
 8008f1e:	213b      	movs	r1, #59	; 0x3b
 8008f20:	4806      	ldr	r0, [pc, #24]	; (8008f3c <tbt_man_focus_near_speed_start+0x30>)
 8008f22:	e8bd 4008 	ldmia.w	sp!, {r3, lr}
 8008f26:	f000 bdc1 	b.w	8009aac <iprintf>
 8008f2a:	213d      	movs	r1, #61	; 0x3d
 8008f2c:	4804      	ldr	r0, [pc, #16]	; (8008f40 <tbt_man_focus_near_speed_start+0x34>)
 8008f2e:	e8bd 4008 	ldmia.w	sp!, {r3, lr}
 8008f32:	f000 bdbb 	b.w	8009aac <iprintf>
 8008f36:	bf00      	nop
 8008f38:	20000010 	.word	0x20000010
 8008f3c:	0800c414 	.word	0x0800c414
 8008f40:	0800c3e0 	.word	0x0800c3e0

08008f44 <tbt_man_focus_far_speed_start>:
 8008f44:	4602      	mov	r2, r0
 8008f46:	2101      	movs	r1, #1
 8008f48:	4809      	ldr	r0, [pc, #36]	; (8008f70 <tbt_man_focus_far_speed_start+0x2c>)
 8008f4a:	f002 0207 	and.w	r2, r2, #7
 8008f4e:	b508      	push	{r3, lr}
 8008f50:	f7ff fdd8 	bl	8008b04 <TBT_set_focus_start>
 8008f54:	b928      	cbnz	r0, 8008f62 <tbt_man_focus_far_speed_start+0x1e>
 8008f56:	214c      	movs	r1, #76	; 0x4c
 8008f58:	4806      	ldr	r0, [pc, #24]	; (8008f74 <tbt_man_focus_far_speed_start+0x30>)
 8008f5a:	e8bd 4008 	ldmia.w	sp!, {r3, lr}
 8008f5e:	f000 bda5 	b.w	8009aac <iprintf>
 8008f62:	214e      	movs	r1, #78	; 0x4e
 8008f64:	4804      	ldr	r0, [pc, #16]	; (8008f78 <tbt_man_focus_far_speed_start+0x34>)
 8008f66:	e8bd 4008 	ldmia.w	sp!, {r3, lr}
 8008f6a:	f000 bd9f 	b.w	8009aac <iprintf>
 8008f6e:	bf00      	nop
 8008f70:	20000010 	.word	0x20000010
 8008f74:	0800c434 	.word	0x0800c434
 8008f78:	0800c3e0 	.word	0x0800c3e0

08008f7c <tbt_man_focus_stop>:
 8008f7c:	b508      	push	{r3, lr}
 8008f7e:	4808      	ldr	r0, [pc, #32]	; (8008fa0 <tbt_man_focus_stop+0x24>)
 8008f80:	f7ff fdae 	bl	8008ae0 <TBT_set_focus_stop>
 8008f84:	b928      	cbnz	r0, 8008f92 <tbt_man_focus_stop+0x16>
 8008f86:	215c      	movs	r1, #92	; 0x5c
 8008f88:	4806      	ldr	r0, [pc, #24]	; (8008fa4 <tbt_man_focus_stop+0x28>)
 8008f8a:	e8bd 4008 	ldmia.w	sp!, {r3, lr}
 8008f8e:	f000 bd8d 	b.w	8009aac <iprintf>
 8008f92:	215e      	movs	r1, #94	; 0x5e
 8008f94:	4804      	ldr	r0, [pc, #16]	; (8008fa8 <tbt_man_focus_stop+0x2c>)
 8008f96:	e8bd 4008 	ldmia.w	sp!, {r3, lr}
 8008f9a:	f000 bd87 	b.w	8009aac <iprintf>
 8008f9e:	bf00      	nop
 8008fa0:	20000010 	.word	0x20000010
 8008fa4:	0800c454 	.word	0x0800c454
 8008fa8:	0800c3e0 	.word	0x0800c3e0

08008fac <tbt_power>:
 8008fac:	4602      	mov	r2, r0
 8008fae:	216f      	movs	r1, #111	; 0x6f
 8008fb0:	4801      	ldr	r0, [pc, #4]	; (8008fb8 <tbt_power+0xc>)
 8008fb2:	f000 bd7b 	b.w	8009aac <iprintf>
 8008fb6:	bf00      	nop
 8008fb8:	0800c470 	.word	0x0800c470

08008fbc <tbt_set_video_mode>:
 8008fbc:	4601      	mov	r1, r0
 8008fbe:	4806      	ldr	r0, [pc, #24]	; (8008fd8 <tbt_set_video_mode+0x1c>)
 8008fc0:	b508      	push	{r3, lr}
 8008fc2:	f7ff fdc5 	bl	8008b50 <TBT_set_video_mode>
 8008fc6:	b900      	cbnz	r0, 8008fca <tbt_set_video_mode+0xe>
 8008fc8:	bd08      	pop	{r3, pc}
 8008fca:	2175      	movs	r1, #117	; 0x75
 8008fcc:	4803      	ldr	r0, [pc, #12]	; (8008fdc <tbt_set_video_mode+0x20>)
 8008fce:	e8bd 4008 	ldmia.w	sp!, {r3, lr}
 8008fd2:	f000 bd6b 	b.w	8009aac <iprintf>
 8008fd6:	bf00      	nop
 8008fd8:	20000010 	.word	0x20000010
 8008fdc:	0800c484 	.word	0x0800c484

08008fe0 <hal_bus_init>:
 8008fe0:	b538      	push	{r3, r4, r5, lr}
 8008fe2:	4c0f      	ldr	r4, [pc, #60]	; (8009020 <hal_bus_init+0x40>)
 8008fe4:	4b0f      	ldr	r3, [pc, #60]	; (8009024 <hal_bus_init+0x44>)
 8008fe6:	4625      	mov	r5, r4
 8008fe8:	480f      	ldr	r0, [pc, #60]	; (8009028 <hal_bus_init+0x48>)
 8008fea:	6023      	str	r3, [r4, #0]
 8008fec:	f000 fde4 	bl	8009bb8 <puts>
 8008ff0:	f240 1211 	movw	r2, #273	; 0x111
 8008ff4:	2100      	movs	r1, #0
 8008ff6:	f240 73ff 	movw	r3, #2047	; 0x7ff
 8008ffa:	6820      	ldr	r0, [r4, #0]
 8008ffc:	f7ff f928 	bl	8008250 <CAN_RX_Filter>
 8009000:	f240 1311 	movw	r3, #273	; 0x111
 8009004:	f855 0b04 	ldr.w	r0, [r5], #4
 8009008:	6223      	str	r3, [r4, #32]
 800900a:	f7ff f949 	bl	80082a0 <CAN_Config>
 800900e:	4628      	mov	r0, r5
 8009010:	f7ff f95e 	bl	80082d0 <CAN_Tx_Config>
 8009014:	4805      	ldr	r0, [pc, #20]	; (800902c <hal_bus_init+0x4c>)
 8009016:	e8bd 4038 	ldmia.w	sp!, {r3, r4, r5, lr}
 800901a:	f000 bdcd 	b.w	8009bb8 <puts>
 800901e:	bf00      	nop
 8009020:	200107e8 	.word	0x200107e8
 8009024:	2000021c 	.word	0x2000021c
 8009028:	0800c49c 	.word	0x0800c49c
 800902c:	0800c4b0 	.word	0x0800c4b0

08009030 <hal_bus_send>:
 8009030:	b410      	push	{r4}
 8009032:	4c08      	ldr	r4, [pc, #32]	; (8009054 <hal_bus_send+0x24>)
 8009034:	6802      	ldr	r2, [r0, #0]
 8009036:	4621      	mov	r1, r4
 8009038:	f104 031c 	add.w	r3, r4, #28
 800903c:	6062      	str	r2, [r4, #4]
 800903e:	6842      	ldr	r2, [r0, #4]
 8009040:	6162      	str	r2, [r4, #20]
 8009042:	f100 0208 	add.w	r2, r0, #8
 8009046:	f85d 4b04 	ldr.w	r4, [sp], #4
 800904a:	f851 0b04 	ldr.w	r0, [r1], #4
 800904e:	f7f8 bf5b 	b.w	8001f08 <HAL_CAN_AddTxMessage>
 8009052:	bf00      	nop
 8009054:	200107e8 	.word	0x200107e8

08009058 <hal_lrf_send>:
 8009058:	b410      	push	{r4}
 800905a:	4c08      	ldr	r4, [pc, #32]	; (800907c <hal_lrf_send+0x24>)
 800905c:	6802      	ldr	r2, [r0, #0]
 800905e:	4621      	mov	r1, r4
 8009060:	f104 031c 	add.w	r3, r4, #28
 8009064:	6062      	str	r2, [r4, #4]
 8009066:	6842      	ldr	r2, [r0, #4]
 8009068:	6162      	str	r2, [r4, #20]
 800906a:	f100 0208 	add.w	r2, r0, #8
 800906e:	f85d 4b04 	ldr.w	r4, [sp], #4
 8009072:	f851 0b04 	ldr.w	r0, [r1], #4
 8009076:	f7f8 bf47 	b.w	8001f08 <HAL_CAN_AddTxMessage>
 800907a:	bf00      	nop
 800907c:	200107e8 	.word	0x200107e8

08009080 <HAL_CAN_RxFifo0MsgPendingCallback>:
 8009080:	b510      	push	{r4, lr}
 8009082:	b08a      	sub	sp, #40	; 0x28
 8009084:	2100      	movs	r1, #0
 8009086:	aa03      	add	r2, sp, #12
 8009088:	ab01      	add	r3, sp, #4
 800908a:	f7f8 ffab 	bl	8001fe4 <HAL_CAN_GetRxMessage>
 800908e:	bb28      	cbnz	r0, 80090dc <HAL_CAN_RxFifo0MsgPendingCallback+0x5c>
 8009090:	9a03      	ldr	r2, [sp, #12]
 8009092:	f240 1311 	movw	r3, #273	; 0x111
 8009096:	429a      	cmp	r2, r3
 8009098:	d001      	beq.n	800909e <HAL_CAN_RxFifo0MsgPendingCallback+0x1e>
 800909a:	9b05      	ldr	r3, [sp, #20]
 800909c:	b9f3      	cbnz	r3, 80090dc <HAL_CAN_RxFifo0MsgPendingCallback+0x5c>
 800909e:	f7f8 f8cb 	bl	8001238 <opt_get_bus_mail>
 80090a2:	2100      	movs	r1, #0
 80090a4:	f7fb fe44 	bl	8004d30 <osMailAlloc>
 80090a8:	4604      	mov	r4, r0
 80090aa:	f7fb fc61 	bl	8004970 <osKernelSysTick>
 80090ae:	9a03      	ldr	r2, [sp, #12]
 80090b0:	2300      	movs	r3, #0
 80090b2:	a901      	add	r1, sp, #4
 80090b4:	6022      	str	r2, [r4, #0]
 80090b6:	7123      	strb	r3, [r4, #4]
 80090b8:	9b07      	ldr	r3, [sp, #28]
 80090ba:	64a0      	str	r0, [r4, #72]	; 0x48
 80090bc:	1da0      	adds	r0, r4, #6
 80090be:	7163      	strb	r3, [r4, #5]
 80090c0:	9a07      	ldr	r2, [sp, #28]
 80090c2:	f000 f873 	bl	80091ac <memcpy>
 80090c6:	4b06      	ldr	r3, [pc, #24]	; (80090e0 <HAL_CAN_RxFifo0MsgPendingCallback+0x60>)
 80090c8:	781a      	ldrb	r2, [r3, #0]
 80090ca:	1c51      	adds	r1, r2, #1
 80090cc:	f884 2046 	strb.w	r2, [r4, #70]	; 0x46
 80090d0:	7019      	strb	r1, [r3, #0]
 80090d2:	f7f8 f8b1 	bl	8001238 <opt_get_bus_mail>
 80090d6:	4621      	mov	r1, r4
 80090d8:	f7fb fe70 	bl	8004dbc <osMailPut>
 80090dc:	b00a      	add	sp, #40	; 0x28
 80090de:	bd10      	pop	{r4, pc}
 80090e0:	200107e4 	.word	0x200107e4

080090e4 <HAL_CAN_ErrorCallback>:
 80090e4:	6a43      	ldr	r3, [r0, #36]	; 0x24
 80090e6:	07db      	lsls	r3, r3, #31
 80090e8:	d400      	bmi.n	80090ec <HAL_CAN_ErrorCallback+0x8>
 80090ea:	4770      	bx	lr
 80090ec:	4801      	ldr	r0, [pc, #4]	; (80090f4 <HAL_CAN_ErrorCallback+0x10>)
 80090ee:	f000 bd63 	b.w	8009bb8 <puts>
 80090f2:	bf00      	nop
 80090f4:	0800c4b8 	.word	0x0800c4b8

080090f8 <lrf_init>:
 80090f8:	f44f 7380 	mov.w	r3, #256	; 0x100
 80090fc:	4a02      	ldr	r2, [pc, #8]	; (8009108 <lrf_init+0x10>)
 80090fe:	4903      	ldr	r1, [pc, #12]	; (800910c <lrf_init+0x14>)
 8009100:	4803      	ldr	r0, [pc, #12]	; (8009110 <lrf_init+0x18>)
 8009102:	f7ff ba59 	b.w	80085b8 <noptel_init>
 8009106:	bf00      	nop
 8009108:	40021400 	.word	0x40021400
 800910c:	200004dc 	.word	0x200004dc
 8009110:	20010854 	.word	0x20010854

08009114 <lrf_power>:
 8009114:	4601      	mov	r1, r0
 8009116:	4801      	ldr	r0, [pc, #4]	; (800911c <lrf_power+0x8>)
 8009118:	f7ff ba68 	b.w	80085ec <noptel_power>
 800911c:	20010854 	.word	0x20010854

08009120 <lrf_set_pointer>:
 8009120:	4601      	mov	r1, r0
 8009122:	4801      	ldr	r0, [pc, #4]	; (8009128 <lrf_set_pointer+0x8>)
 8009124:	f7ff ba80 	b.w	8008628 <noptel_set_pointer>
 8009128:	20010854 	.word	0x20010854

0800912c <lrf_measure_start_with_status>:
 800912c:	4601      	mov	r1, r0
 800912e:	4801      	ldr	r0, [pc, #4]	; (8009134 <lrf_measure_start_with_status+0x8>)
 8009130:	f7ff bad4 	b.w	80086dc <noptel_measure_start_with_status>
 8009134:	20010854 	.word	0x20010854

08009138 <lrf_get_counter>:
 8009138:	4b01      	ldr	r3, [pc, #4]	; (8009140 <lrf_get_counter+0x8>)
 800913a:	f893 0034 	ldrb.w	r0, [r3, #52]	; 0x34
 800913e:	4770      	bx	lr
 8009140:	20010854 	.word	0x20010854

08009144 <lrf_get_value>:
 8009144:	4b03      	ldr	r3, [pc, #12]	; (8009154 <lrf_get_value+0x10>)
 8009146:	6b9a      	ldr	r2, [r3, #56]	; 0x38
 8009148:	6002      	str	r2, [r0, #0]
 800914a:	6bda      	ldr	r2, [r3, #60]	; 0x3c
 800914c:	6042      	str	r2, [r0, #4]
 800914e:	6c1b      	ldr	r3, [r3, #64]	; 0x40
 8009150:	6083      	str	r3, [r0, #8]
 8009152:	4770      	bx	lr
 8009154:	20010854 	.word	0x20010854

08009158 <__errno>:
 8009158:	4b01      	ldr	r3, [pc, #4]	; (8009160 <__errno+0x8>)
 800915a:	6818      	ldr	r0, [r3, #0]
 800915c:	4770      	bx	lr
 800915e:	bf00      	nop
 8009160:	20000030 	.word	0x20000030

08009164 <__libc_init_array>:
 8009164:	b570      	push	{r4, r5, r6, lr}
 8009166:	4d0d      	ldr	r5, [pc, #52]	; (800919c <__libc_init_array+0x38>)
 8009168:	4c0d      	ldr	r4, [pc, #52]	; (80091a0 <__libc_init_array+0x3c>)
 800916a:	1b64      	subs	r4, r4, r5
 800916c:	10a4      	asrs	r4, r4, #2
 800916e:	2600      	movs	r6, #0
 8009170:	42a6      	cmp	r6, r4
 8009172:	d109      	bne.n	8009188 <__libc_init_array+0x24>
 8009174:	4d0b      	ldr	r5, [pc, #44]	; (80091a4 <__libc_init_array+0x40>)
 8009176:	4c0c      	ldr	r4, [pc, #48]	; (80091a8 <__libc_init_array+0x44>)
 8009178:	f002 fe92 	bl	800bea0 <_init>
 800917c:	1b64      	subs	r4, r4, r5
 800917e:	10a4      	asrs	r4, r4, #2
 8009180:	2600      	movs	r6, #0
 8009182:	42a6      	cmp	r6, r4
 8009184:	d105      	bne.n	8009192 <__libc_init_array+0x2e>
 8009186:	bd70      	pop	{r4, r5, r6, pc}
 8009188:	f855 3b04 	ldr.w	r3, [r5], #4
 800918c:	4798      	blx	r3
 800918e:	3601      	adds	r6, #1
 8009190:	e7ee      	b.n	8009170 <__libc_init_array+0xc>
 8009192:	f855 3b04 	ldr.w	r3, [r5], #4
 8009196:	4798      	blx	r3
 8009198:	3601      	adds	r6, #1
 800919a:	e7f2      	b.n	8009182 <__libc_init_array+0x1e>
 800919c:	0800c8ac 	.word	0x0800c8ac
 80091a0:	0800c8ac 	.word	0x0800c8ac
 80091a4:	0800c8ac 	.word	0x0800c8ac
 80091a8:	0800c8b0 	.word	0x0800c8b0

080091ac <memcpy>:
 80091ac:	440a      	add	r2, r1
 80091ae:	4291      	cmp	r1, r2
 80091b0:	f100 33ff 	add.w	r3, r0, #4294967295
 80091b4:	d100      	bne.n	80091b8 <memcpy+0xc>
 80091b6:	4770      	bx	lr
 80091b8:	b510      	push	{r4, lr}
 80091ba:	f811 4b01 	ldrb.w	r4, [r1], #1
 80091be:	f803 4f01 	strb.w	r4, [r3, #1]!
 80091c2:	4291      	cmp	r1, r2
 80091c4:	d1f9      	bne.n	80091ba <memcpy+0xe>
 80091c6:	bd10      	pop	{r4, pc}

080091c8 <memset>:
 80091c8:	4402      	add	r2, r0
 80091ca:	4603      	mov	r3, r0
 80091cc:	4293      	cmp	r3, r2
 80091ce:	d100      	bne.n	80091d2 <memset+0xa>
 80091d0:	4770      	bx	lr
 80091d2:	f803 1b01 	strb.w	r1, [r3], #1
 80091d6:	e7f9      	b.n	80091cc <memset+0x4>

080091d8 <__cvt>:
 80091d8:	e92d 47ff 	stmdb	sp!, {r0, r1, r2, r3, r4, r5, r6, r7, r8, r9, sl, lr}
 80091dc:	ec55 4b10 	vmov	r4, r5, d0
 80091e0:	2d00      	cmp	r5, #0
 80091e2:	460e      	mov	r6, r1
 80091e4:	4619      	mov	r1, r3
 80091e6:	462b      	mov	r3, r5
 80091e8:	bfbb      	ittet	lt
 80091ea:	f105 4300 	addlt.w	r3, r5, #2147483648	; 0x80000000
 80091ee:	461d      	movlt	r5, r3
 80091f0:	2300      	movge	r3, #0
 80091f2:	232d      	movlt	r3, #45	; 0x2d
 80091f4:	700b      	strb	r3, [r1, #0]
 80091f6:	9b0d      	ldr	r3, [sp, #52]	; 0x34
 80091f8:	f8dd a030 	ldr.w	sl, [sp, #48]	; 0x30
 80091fc:	4691      	mov	r9, r2
 80091fe:	f023 0820 	bic.w	r8, r3, #32
 8009202:	bfbc      	itt	lt
 8009204:	4622      	movlt	r2, r4
 8009206:	4614      	movlt	r4, r2
 8009208:	f1b8 0f46 	cmp.w	r8, #70	; 0x46
 800920c:	d005      	beq.n	800921a <__cvt+0x42>
 800920e:	f1b8 0f45 	cmp.w	r8, #69	; 0x45
 8009212:	d100      	bne.n	8009216 <__cvt+0x3e>
 8009214:	3601      	adds	r6, #1
 8009216:	2102      	movs	r1, #2
 8009218:	e000      	b.n	800921c <__cvt+0x44>
 800921a:	2103      	movs	r1, #3
 800921c:	ab03      	add	r3, sp, #12
 800921e:	9301      	str	r3, [sp, #4]
 8009220:	ab02      	add	r3, sp, #8
 8009222:	9300      	str	r3, [sp, #0]
 8009224:	ec45 4b10 	vmov	d0, r4, r5
 8009228:	4653      	mov	r3, sl
 800922a:	4632      	mov	r2, r6
 800922c:	f000 fee8 	bl	800a000 <_dtoa_r>
 8009230:	f1b8 0f47 	cmp.w	r8, #71	; 0x47
 8009234:	4607      	mov	r7, r0
 8009236:	d102      	bne.n	800923e <__cvt+0x66>
 8009238:	f019 0f01 	tst.w	r9, #1
 800923c:	d022      	beq.n	8009284 <__cvt+0xac>
 800923e:	f1b8 0f46 	cmp.w	r8, #70	; 0x46
 8009242:	eb07 0906 	add.w	r9, r7, r6
 8009246:	d110      	bne.n	800926a <__cvt+0x92>
 8009248:	783b      	ldrb	r3, [r7, #0]
 800924a:	2b30      	cmp	r3, #48	; 0x30
 800924c:	d10a      	bne.n	8009264 <__cvt+0x8c>
 800924e:	2200      	movs	r2, #0
 8009250:	2300      	movs	r3, #0
 8009252:	4620      	mov	r0, r4
 8009254:	4629      	mov	r1, r5
 8009256:	f7f7 fc5f 	bl	8000b18 <__aeabi_dcmpeq>
 800925a:	b918      	cbnz	r0, 8009264 <__cvt+0x8c>
 800925c:	f1c6 0601 	rsb	r6, r6, #1
 8009260:	f8ca 6000 	str.w	r6, [sl]
 8009264:	f8da 3000 	ldr.w	r3, [sl]
 8009268:	4499      	add	r9, r3
 800926a:	2200      	movs	r2, #0
 800926c:	2300      	movs	r3, #0
 800926e:	4620      	mov	r0, r4
 8009270:	4629      	mov	r1, r5
 8009272:	f7f7 fc51 	bl	8000b18 <__aeabi_dcmpeq>
 8009276:	b108      	cbz	r0, 800927c <__cvt+0xa4>
 8009278:	f8cd 900c 	str.w	r9, [sp, #12]
 800927c:	2230      	movs	r2, #48	; 0x30
 800927e:	9b03      	ldr	r3, [sp, #12]
 8009280:	454b      	cmp	r3, r9
 8009282:	d307      	bcc.n	8009294 <__cvt+0xbc>
 8009284:	9b03      	ldr	r3, [sp, #12]
 8009286:	9a0e      	ldr	r2, [sp, #56]	; 0x38
 8009288:	1bdb      	subs	r3, r3, r7
 800928a:	4638      	mov	r0, r7
 800928c:	6013      	str	r3, [r2, #0]
 800928e:	b004      	add	sp, #16
 8009290:	e8bd 87f0 	ldmia.w	sp!, {r4, r5, r6, r7, r8, r9, sl, pc}
 8009294:	1c59      	adds	r1, r3, #1
 8009296:	9103      	str	r1, [sp, #12]
 8009298:	701a      	strb	r2, [r3, #0]
 800929a:	e7f0      	b.n	800927e <__cvt+0xa6>

0800929c <__exponent>:
 800929c:	b5f7      	push	{r0, r1, r2, r4, r5, r6, r7, lr}
 800929e:	4603      	mov	r3, r0
 80092a0:	2900      	cmp	r1, #0
 80092a2:	bfb8      	it	lt
 80092a4:	4249      	neglt	r1, r1
 80092a6:	f803 2b02 	strb.w	r2, [r3], #2
 80092aa:	bfb4      	ite	lt
 80092ac:	222d      	movlt	r2, #45	; 0x2d
 80092ae:	222b      	movge	r2, #43	; 0x2b
 80092b0:	2909      	cmp	r1, #9
 80092b2:	7042      	strb	r2, [r0, #1]
 80092b4:	dd2a      	ble.n	800930c <__exponent+0x70>
 80092b6:	f10d 0407 	add.w	r4, sp, #7
 80092ba:	46a4      	mov	ip, r4
 80092bc:	270a      	movs	r7, #10
 80092be:	46a6      	mov	lr, r4
 80092c0:	460a      	mov	r2, r1
 80092c2:	fb91 f6f7 	sdiv	r6, r1, r7
 80092c6:	fb07 1516 	mls	r5, r7, r6, r1
 80092ca:	3530      	adds	r5, #48	; 0x30
 80092cc:	2a63      	cmp	r2, #99	; 0x63
 80092ce:	f104 34ff 	add.w	r4, r4, #4294967295
 80092d2:	f80e 5c01 	strb.w	r5, [lr, #-1]
 80092d6:	4631      	mov	r1, r6
 80092d8:	dcf1      	bgt.n	80092be <__exponent+0x22>
 80092da:	3130      	adds	r1, #48	; 0x30
 80092dc:	f1ae 0502 	sub.w	r5, lr, #2
 80092e0:	f804 1c01 	strb.w	r1, [r4, #-1]
 80092e4:	1c44      	adds	r4, r0, #1
 80092e6:	4629      	mov	r1, r5
 80092e8:	4561      	cmp	r1, ip
 80092ea:	d30a      	bcc.n	8009302 <__exponent+0x66>
 80092ec:	f10d 0209 	add.w	r2, sp, #9
 80092f0:	eba2 020e 	sub.w	r2, r2, lr
 80092f4:	4565      	cmp	r5, ip
 80092f6:	bf88      	it	hi
 80092f8:	2200      	movhi	r2, #0
 80092fa:	4413      	add	r3, r2
 80092fc:	1a18      	subs	r0, r3, r0
 80092fe:	b003      	add	sp, #12
 8009300:	bdf0      	pop	{r4, r5, r6, r7, pc}
 8009302:	f811 2b01 	ldrb.w	r2, [r1], #1
 8009306:	f804 2f01 	strb.w	r2, [r4, #1]!
 800930a:	e7ed      	b.n	80092e8 <__exponent+0x4c>
 800930c:	2330      	movs	r3, #48	; 0x30
 800930e:	3130      	adds	r1, #48	; 0x30
 8009310:	7083      	strb	r3, [r0, #2]
 8009312:	70c1      	strb	r1, [r0, #3]
 8009314:	1d03      	adds	r3, r0, #4
 8009316:	e7f1      	b.n	80092fc <__exponent+0x60>

08009318 <_printf_float>:
 8009318:	e92d 4ff0 	stmdb	sp!, {r4, r5, r6, r7, r8, r9, sl, fp, lr}
 800931c:	ed2d 8b02 	vpush	{d8}
 8009320:	b08d      	sub	sp, #52	; 0x34
 8009322:	460c      	mov	r4, r1
 8009324:	f8dd 8060 	ldr.w	r8, [sp, #96]	; 0x60
 8009328:	4616      	mov	r6, r2
 800932a:	461f      	mov	r7, r3
 800932c:	4605      	mov	r5, r0
 800932e:	f001 fe0d 	bl	800af4c <_localeconv_r>
 8009332:	f8d0 a000 	ldr.w	sl, [r0]
 8009336:	4650      	mov	r0, sl
 8009338:	f7f6 ff72 	bl	8000220 <strlen>
 800933c:	2300      	movs	r3, #0
 800933e:	930a      	str	r3, [sp, #40]	; 0x28
 8009340:	6823      	ldr	r3, [r4, #0]
 8009342:	9305      	str	r3, [sp, #20]
 8009344:	f8d8 3000 	ldr.w	r3, [r8]
 8009348:	f894 b018 	ldrb.w	fp, [r4, #24]
 800934c:	3307      	adds	r3, #7
 800934e:	f023 0307 	bic.w	r3, r3, #7
 8009352:	f103 0208 	add.w	r2, r3, #8
 8009356:	f8c8 2000 	str.w	r2, [r8]
 800935a:	e9d3 2300 	ldrd	r2, r3, [r3]
 800935e:	e9c4 2312 	strd	r2, r3, [r4, #72]	; 0x48
 8009362:	e9d4 8912 	ldrd	r8, r9, [r4, #72]	; 0x48
 8009366:	f029 4300 	bic.w	r3, r9, #2147483648	; 0x80000000
 800936a:	9307      	str	r3, [sp, #28]
 800936c:	f8cd 8018 	str.w	r8, [sp, #24]
 8009370:	ee08 0a10 	vmov	s16, r0
 8009374:	4b9f      	ldr	r3, [pc, #636]	; (80095f4 <_printf_float+0x2dc>)
 8009376:	e9dd 0106 	ldrd	r0, r1, [sp, #24]
 800937a:	f04f 32ff 	mov.w	r2, #4294967295
 800937e:	f7f7 fbfd 	bl	8000b7c <__aeabi_dcmpun>
 8009382:	bb88      	cbnz	r0, 80093e8 <_printf_float+0xd0>
 8009384:	e9dd 0106 	ldrd	r0, r1, [sp, #24]
 8009388:	4b9a      	ldr	r3, [pc, #616]	; (80095f4 <_printf_float+0x2dc>)
 800938a:	f04f 32ff 	mov.w	r2, #4294967295
 800938e:	f7f7 fbd7 	bl	8000b40 <__aeabi_dcmple>
 8009392:	bb48      	cbnz	r0, 80093e8 <_printf_float+0xd0>
 8009394:	2200      	movs	r2, #0
 8009396:	2300      	movs	r3, #0
 8009398:	4640      	mov	r0, r8
 800939a:	4649      	mov	r1, r9
 800939c:	f7f7 fbc6 	bl	8000b2c <__aeabi_dcmplt>
 80093a0:	b110      	cbz	r0, 80093a8 <_printf_float+0x90>
 80093a2:	232d      	movs	r3, #45	; 0x2d
 80093a4:	f884 3043 	strb.w	r3, [r4, #67]	; 0x43
 80093a8:	4b93      	ldr	r3, [pc, #588]	; (80095f8 <_printf_float+0x2e0>)
 80093aa:	4894      	ldr	r0, [pc, #592]	; (80095fc <_printf_float+0x2e4>)
 80093ac:	f1bb 0f47 	cmp.w	fp, #71	; 0x47
 80093b0:	bf94      	ite	ls
 80093b2:	4698      	movls	r8, r3
 80093b4:	4680      	movhi	r8, r0
 80093b6:	2303      	movs	r3, #3
 80093b8:	6123      	str	r3, [r4, #16]
 80093ba:	9b05      	ldr	r3, [sp, #20]
 80093bc:	f023 0204 	bic.w	r2, r3, #4
 80093c0:	6022      	str	r2, [r4, #0]
 80093c2:	f04f 0900 	mov.w	r9, #0
 80093c6:	9700      	str	r7, [sp, #0]
 80093c8:	4633      	mov	r3, r6
 80093ca:	aa0b      	add	r2, sp, #44	; 0x2c
 80093cc:	4621      	mov	r1, r4
 80093ce:	4628      	mov	r0, r5
 80093d0:	f000 f9d8 	bl	8009784 <_printf_common>
 80093d4:	3001      	adds	r0, #1
 80093d6:	f040 8090 	bne.w	80094fa <_printf_float+0x1e2>
 80093da:	f04f 30ff 	mov.w	r0, #4294967295
 80093de:	b00d      	add	sp, #52	; 0x34
 80093e0:	ecbd 8b02 	vpop	{d8}
 80093e4:	e8bd 8ff0 	ldmia.w	sp!, {r4, r5, r6, r7, r8, r9, sl, fp, pc}
 80093e8:	4642      	mov	r2, r8
 80093ea:	464b      	mov	r3, r9
 80093ec:	4640      	mov	r0, r8
 80093ee:	4649      	mov	r1, r9
 80093f0:	f7f7 fbc4 	bl	8000b7c <__aeabi_dcmpun>
 80093f4:	b140      	cbz	r0, 8009408 <_printf_float+0xf0>
 80093f6:	464b      	mov	r3, r9
 80093f8:	2b00      	cmp	r3, #0
 80093fa:	bfbc      	itt	lt
 80093fc:	232d      	movlt	r3, #45	; 0x2d
 80093fe:	f884 3043 	strblt.w	r3, [r4, #67]	; 0x43
 8009402:	487f      	ldr	r0, [pc, #508]	; (8009600 <_printf_float+0x2e8>)
 8009404:	4b7f      	ldr	r3, [pc, #508]	; (8009604 <_printf_float+0x2ec>)
 8009406:	e7d1      	b.n	80093ac <_printf_float+0x94>
 8009408:	6863      	ldr	r3, [r4, #4]
 800940a:	f00b 02df 	and.w	r2, fp, #223	; 0xdf
 800940e:	9206      	str	r2, [sp, #24]
 8009410:	1c5a      	adds	r2, r3, #1
 8009412:	d13f      	bne.n	8009494 <_printf_float+0x17c>
 8009414:	2306      	movs	r3, #6
 8009416:	6063      	str	r3, [r4, #4]
 8009418:	9b05      	ldr	r3, [sp, #20]
 800941a:	6861      	ldr	r1, [r4, #4]
 800941c:	f443 6280 	orr.w	r2, r3, #1024	; 0x400
 8009420:	2300      	movs	r3, #0
 8009422:	9303      	str	r3, [sp, #12]
 8009424:	ab0a      	add	r3, sp, #40	; 0x28
 8009426:	e9cd b301 	strd	fp, r3, [sp, #4]
 800942a:	ab09      	add	r3, sp, #36	; 0x24
 800942c:	ec49 8b10 	vmov	d0, r8, r9
 8009430:	9300      	str	r3, [sp, #0]
 8009432:	6022      	str	r2, [r4, #0]
 8009434:	f10d 0323 	add.w	r3, sp, #35	; 0x23
 8009438:	4628      	mov	r0, r5
 800943a:	f7ff fecd 	bl	80091d8 <__cvt>
 800943e:	9b06      	ldr	r3, [sp, #24]
 8009440:	9909      	ldr	r1, [sp, #36]	; 0x24
 8009442:	2b47      	cmp	r3, #71	; 0x47
 8009444:	4680      	mov	r8, r0
 8009446:	d108      	bne.n	800945a <_printf_float+0x142>
 8009448:	1cc8      	adds	r0, r1, #3
 800944a:	db02      	blt.n	8009452 <_printf_float+0x13a>
 800944c:	6863      	ldr	r3, [r4, #4]
 800944e:	4299      	cmp	r1, r3
 8009450:	dd41      	ble.n	80094d6 <_printf_float+0x1be>
 8009452:	f1ab 0b02 	sub.w	fp, fp, #2
 8009456:	fa5f fb8b 	uxtb.w	fp, fp
 800945a:	f1bb 0f65 	cmp.w	fp, #101	; 0x65
 800945e:	d820      	bhi.n	80094a2 <_printf_float+0x18a>
 8009460:	3901      	subs	r1, #1
 8009462:	465a      	mov	r2, fp
 8009464:	f104 0050 	add.w	r0, r4, #80	; 0x50
 8009468:	9109      	str	r1, [sp, #36]	; 0x24
 800946a:	f7ff ff17 	bl	800929c <__exponent>
 800946e:	9a0a      	ldr	r2, [sp, #40]	; 0x28
 8009470:	1813      	adds	r3, r2, r0
 8009472:	2a01      	cmp	r2, #1
 8009474:	4681      	mov	r9, r0
 8009476:	6123      	str	r3, [r4, #16]
 8009478:	dc02      	bgt.n	8009480 <_printf_float+0x168>
 800947a:	6822      	ldr	r2, [r4, #0]
 800947c:	07d2      	lsls	r2, r2, #31
 800947e:	d501      	bpl.n	8009484 <_printf_float+0x16c>
 8009480:	3301      	adds	r3, #1
 8009482:	6123      	str	r3, [r4, #16]
 8009484:	f89d 3023 	ldrb.w	r3, [sp, #35]	; 0x23
 8009488:	2b00      	cmp	r3, #0
 800948a:	d09c      	beq.n	80093c6 <_printf_float+0xae>
 800948c:	232d      	movs	r3, #45	; 0x2d
 800948e:	f884 3043 	strb.w	r3, [r4, #67]	; 0x43
 8009492:	e798      	b.n	80093c6 <_printf_float+0xae>
 8009494:	9a06      	ldr	r2, [sp, #24]
 8009496:	2a47      	cmp	r2, #71	; 0x47
 8009498:	d1be      	bne.n	8009418 <_printf_float+0x100>
 800949a:	2b00      	cmp	r3, #0
 800949c:	d1bc      	bne.n	8009418 <_printf_float+0x100>
 800949e:	2301      	movs	r3, #1
 80094a0:	e7b9      	b.n	8009416 <_printf_float+0xfe>
 80094a2:	f1bb 0f66 	cmp.w	fp, #102	; 0x66
 80094a6:	d118      	bne.n	80094da <_printf_float+0x1c2>
 80094a8:	2900      	cmp	r1, #0
 80094aa:	6863      	ldr	r3, [r4, #4]
 80094ac:	dd0b      	ble.n	80094c6 <_printf_float+0x1ae>
 80094ae:	6121      	str	r1, [r4, #16]
 80094b0:	b913      	cbnz	r3, 80094b8 <_printf_float+0x1a0>
 80094b2:	6822      	ldr	r2, [r4, #0]
 80094b4:	07d0      	lsls	r0, r2, #31
 80094b6:	d502      	bpl.n	80094be <_printf_float+0x1a6>
 80094b8:	3301      	adds	r3, #1
 80094ba:	440b      	add	r3, r1
 80094bc:	6123      	str	r3, [r4, #16]
 80094be:	65a1      	str	r1, [r4, #88]	; 0x58
 80094c0:	f04f 0900 	mov.w	r9, #0
 80094c4:	e7de      	b.n	8009484 <_printf_float+0x16c>
 80094c6:	b913      	cbnz	r3, 80094ce <_printf_float+0x1b6>
 80094c8:	6822      	ldr	r2, [r4, #0]
 80094ca:	07d2      	lsls	r2, r2, #31
 80094cc:	d501      	bpl.n	80094d2 <_printf_float+0x1ba>
 80094ce:	3302      	adds	r3, #2
 80094d0:	e7f4      	b.n	80094bc <_printf_float+0x1a4>
 80094d2:	2301      	movs	r3, #1
 80094d4:	e7f2      	b.n	80094bc <_printf_float+0x1a4>
 80094d6:	f04f 0b67 	mov.w	fp, #103	; 0x67
 80094da:	9b0a      	ldr	r3, [sp, #40]	; 0x28
 80094dc:	4299      	cmp	r1, r3
 80094de:	db05      	blt.n	80094ec <_printf_float+0x1d4>
 80094e0:	6823      	ldr	r3, [r4, #0]
 80094e2:	6121      	str	r1, [r4, #16]
 80094e4:	07d8      	lsls	r0, r3, #31
 80094e6:	d5ea      	bpl.n	80094be <_printf_float+0x1a6>
 80094e8:	1c4b      	adds	r3, r1, #1
 80094ea:	e7e7      	b.n	80094bc <_printf_float+0x1a4>
 80094ec:	2900      	cmp	r1, #0
 80094ee:	bfd4      	ite	le
 80094f0:	f1c1 0202 	rsble	r2, r1, #2
 80094f4:	2201      	movgt	r2, #1
 80094f6:	4413      	add	r3, r2
 80094f8:	e7e0      	b.n	80094bc <_printf_float+0x1a4>
 80094fa:	6823      	ldr	r3, [r4, #0]
 80094fc:	055a      	lsls	r2, r3, #21
 80094fe:	d407      	bmi.n	8009510 <_printf_float+0x1f8>
 8009500:	6923      	ldr	r3, [r4, #16]
 8009502:	4642      	mov	r2, r8
 8009504:	4631      	mov	r1, r6
 8009506:	4628      	mov	r0, r5
 8009508:	47b8      	blx	r7
 800950a:	3001      	adds	r0, #1
 800950c:	d12c      	bne.n	8009568 <_printf_float+0x250>
 800950e:	e764      	b.n	80093da <_printf_float+0xc2>
 8009510:	f1bb 0f65 	cmp.w	fp, #101	; 0x65
 8009514:	f240 80e0 	bls.w	80096d8 <_printf_float+0x3c0>
 8009518:	e9d4 0112 	ldrd	r0, r1, [r4, #72]	; 0x48
 800951c:	2200      	movs	r2, #0
 800951e:	2300      	movs	r3, #0
 8009520:	f7f7 fafa 	bl	8000b18 <__aeabi_dcmpeq>
 8009524:	2800      	cmp	r0, #0
 8009526:	d034      	beq.n	8009592 <_printf_float+0x27a>
 8009528:	4a37      	ldr	r2, [pc, #220]	; (8009608 <_printf_float+0x2f0>)
 800952a:	2301      	movs	r3, #1
 800952c:	4631      	mov	r1, r6
 800952e:	4628      	mov	r0, r5
 8009530:	47b8      	blx	r7
 8009532:	3001      	adds	r0, #1
 8009534:	f43f af51 	beq.w	80093da <_printf_float+0xc2>
 8009538:	e9dd 2309 	ldrd	r2, r3, [sp, #36]	; 0x24
 800953c:	429a      	cmp	r2, r3
 800953e:	db02      	blt.n	8009546 <_printf_float+0x22e>
 8009540:	6823      	ldr	r3, [r4, #0]
 8009542:	07d8      	lsls	r0, r3, #31
 8009544:	d510      	bpl.n	8009568 <_printf_float+0x250>
 8009546:	ee18 3a10 	vmov	r3, s16
 800954a:	4652      	mov	r2, sl
 800954c:	4631      	mov	r1, r6
 800954e:	4628      	mov	r0, r5
 8009550:	47b8      	blx	r7
 8009552:	3001      	adds	r0, #1
 8009554:	f43f af41 	beq.w	80093da <_printf_float+0xc2>
 8009558:	f04f 0800 	mov.w	r8, #0
 800955c:	f104 091a 	add.w	r9, r4, #26
 8009560:	9b0a      	ldr	r3, [sp, #40]	; 0x28
 8009562:	3b01      	subs	r3, #1
 8009564:	4543      	cmp	r3, r8
 8009566:	dc09      	bgt.n	800957c <_printf_float+0x264>
 8009568:	6823      	ldr	r3, [r4, #0]
 800956a:	079b      	lsls	r3, r3, #30
 800956c:	f100 8105 	bmi.w	800977a <_printf_float+0x462>
 8009570:	68e0      	ldr	r0, [r4, #12]
 8009572:	9b0b      	ldr	r3, [sp, #44]	; 0x2c
 8009574:	4298      	cmp	r0, r3
 8009576:	bfb8      	it	lt
 8009578:	4618      	movlt	r0, r3
 800957a:	e730      	b.n	80093de <_printf_float+0xc6>
 800957c:	2301      	movs	r3, #1
 800957e:	464a      	mov	r2, r9
 8009580:	4631      	mov	r1, r6
 8009582:	4628      	mov	r0, r5
 8009584:	47b8      	blx	r7
 8009586:	3001      	adds	r0, #1
 8009588:	f43f af27 	beq.w	80093da <_printf_float+0xc2>
 800958c:	f108 0801 	add.w	r8, r8, #1
 8009590:	e7e6      	b.n	8009560 <_printf_float+0x248>
 8009592:	9b09      	ldr	r3, [sp, #36]	; 0x24
 8009594:	2b00      	cmp	r3, #0
 8009596:	dc39      	bgt.n	800960c <_printf_float+0x2f4>
 8009598:	4a1b      	ldr	r2, [pc, #108]	; (8009608 <_printf_float+0x2f0>)
 800959a:	2301      	movs	r3, #1
 800959c:	4631      	mov	r1, r6
 800959e:	4628      	mov	r0, r5
 80095a0:	47b8      	blx	r7
 80095a2:	3001      	adds	r0, #1
 80095a4:	f43f af19 	beq.w	80093da <_printf_float+0xc2>
 80095a8:	e9dd 2309 	ldrd	r2, r3, [sp, #36]	; 0x24
 80095ac:	4313      	orrs	r3, r2
 80095ae:	d102      	bne.n	80095b6 <_printf_float+0x29e>
 80095b0:	6823      	ldr	r3, [r4, #0]
 80095b2:	07d9      	lsls	r1, r3, #31
 80095b4:	d5d8      	bpl.n	8009568 <_printf_float+0x250>
 80095b6:	ee18 3a10 	vmov	r3, s16
 80095ba:	4652      	mov	r2, sl
 80095bc:	4631      	mov	r1, r6
 80095be:	4628      	mov	r0, r5
 80095c0:	47b8      	blx	r7
 80095c2:	3001      	adds	r0, #1
 80095c4:	f43f af09 	beq.w	80093da <_printf_float+0xc2>
 80095c8:	f04f 0900 	mov.w	r9, #0
 80095cc:	f104 0a1a 	add.w	sl, r4, #26
 80095d0:	9b09      	ldr	r3, [sp, #36]	; 0x24
 80095d2:	425b      	negs	r3, r3
 80095d4:	454b      	cmp	r3, r9
 80095d6:	dc01      	bgt.n	80095dc <_printf_float+0x2c4>
 80095d8:	9b0a      	ldr	r3, [sp, #40]	; 0x28
 80095da:	e792      	b.n	8009502 <_printf_float+0x1ea>
 80095dc:	2301      	movs	r3, #1
 80095de:	4652      	mov	r2, sl
 80095e0:	4631      	mov	r1, r6
 80095e2:	4628      	mov	r0, r5
 80095e4:	47b8      	blx	r7
 80095e6:	3001      	adds	r0, #1
 80095e8:	f43f aef7 	beq.w	80093da <_printf_float+0xc2>
 80095ec:	f109 0901 	add.w	r9, r9, #1
 80095f0:	e7ee      	b.n	80095d0 <_printf_float+0x2b8>
 80095f2:	bf00      	nop
 80095f4:	7fefffff 	.word	0x7fefffff
 80095f8:	0800c4cc 	.word	0x0800c4cc
 80095fc:	0800c4d0 	.word	0x0800c4d0
 8009600:	0800c4d8 	.word	0x0800c4d8
 8009604:	0800c4d4 	.word	0x0800c4d4
 8009608:	0800c4dc 	.word	0x0800c4dc
 800960c:	9a0a      	ldr	r2, [sp, #40]	; 0x28
 800960e:	6da3      	ldr	r3, [r4, #88]	; 0x58
 8009610:	429a      	cmp	r2, r3
 8009612:	bfa8      	it	ge
 8009614:	461a      	movge	r2, r3
 8009616:	2a00      	cmp	r2, #0
 8009618:	4691      	mov	r9, r2
 800961a:	dc37      	bgt.n	800968c <_printf_float+0x374>
 800961c:	f04f 0b00 	mov.w	fp, #0
 8009620:	ea29 79e9 	bic.w	r9, r9, r9, asr #31
 8009624:	f104 021a 	add.w	r2, r4, #26
 8009628:	6da3      	ldr	r3, [r4, #88]	; 0x58
 800962a:	9305      	str	r3, [sp, #20]
 800962c:	eba3 0309 	sub.w	r3, r3, r9
 8009630:	455b      	cmp	r3, fp
 8009632:	dc33      	bgt.n	800969c <_printf_float+0x384>
 8009634:	e9dd 2309 	ldrd	r2, r3, [sp, #36]	; 0x24
 8009638:	429a      	cmp	r2, r3
 800963a:	db3b      	blt.n	80096b4 <_printf_float+0x39c>
 800963c:	6823      	ldr	r3, [r4, #0]
 800963e:	07da      	lsls	r2, r3, #31
 8009640:	d438      	bmi.n	80096b4 <_printf_float+0x39c>
 8009642:	9b0a      	ldr	r3, [sp, #40]	; 0x28
 8009644:	9a05      	ldr	r2, [sp, #20]
 8009646:	9909      	ldr	r1, [sp, #36]	; 0x24
 8009648:	1a9a      	subs	r2, r3, r2
 800964a:	eba3 0901 	sub.w	r9, r3, r1
 800964e:	4591      	cmp	r9, r2
 8009650:	bfa8      	it	ge
 8009652:	4691      	movge	r9, r2
 8009654:	f1b9 0f00 	cmp.w	r9, #0
 8009658:	dc35      	bgt.n	80096c6 <_printf_float+0x3ae>
 800965a:	f04f 0800 	mov.w	r8, #0
 800965e:	ea29 79e9 	bic.w	r9, r9, r9, asr #31
 8009662:	f104 0a1a 	add.w	sl, r4, #26
 8009666:	e9dd 2309 	ldrd	r2, r3, [sp, #36]	; 0x24
 800966a:	1a9b      	subs	r3, r3, r2
 800966c:	eba3 0309 	sub.w	r3, r3, r9
 8009670:	4543      	cmp	r3, r8
 8009672:	f77f af79 	ble.w	8009568 <_printf_float+0x250>
 8009676:	2301      	movs	r3, #1
 8009678:	4652      	mov	r2, sl
 800967a:	4631      	mov	r1, r6
 800967c:	4628      	mov	r0, r5
 800967e:	47b8      	blx	r7
 8009680:	3001      	adds	r0, #1
 8009682:	f43f aeaa 	beq.w	80093da <_printf_float+0xc2>
 8009686:	f108 0801 	add.w	r8, r8, #1
 800968a:	e7ec      	b.n	8009666 <_printf_float+0x34e>
 800968c:	4613      	mov	r3, r2
 800968e:	4631      	mov	r1, r6
 8009690:	4642      	mov	r2, r8
 8009692:	4628      	mov	r0, r5
 8009694:	47b8      	blx	r7
 8009696:	3001      	adds	r0, #1
 8009698:	d1c0      	bne.n	800961c <_printf_float+0x304>
 800969a:	e69e      	b.n	80093da <_printf_float+0xc2>
 800969c:	2301      	movs	r3, #1
 800969e:	4631      	mov	r1, r6
 80096a0:	4628      	mov	r0, r5
 80096a2:	9205      	str	r2, [sp, #20]
 80096a4:	47b8      	blx	r7
 80096a6:	3001      	adds	r0, #1
 80096a8:	f43f ae97 	beq.w	80093da <_printf_float+0xc2>
 80096ac:	9a05      	ldr	r2, [sp, #20]
 80096ae:	f10b 0b01 	add.w	fp, fp, #1
 80096b2:	e7b9      	b.n	8009628 <_printf_float+0x310>
 80096b4:	ee18 3a10 	vmov	r3, s16
 80096b8:	4652      	mov	r2, sl
 80096ba:	4631      	mov	r1, r6
 80096bc:	4628      	mov	r0, r5
 80096be:	47b8      	blx	r7
 80096c0:	3001      	adds	r0, #1
 80096c2:	d1be      	bne.n	8009642 <_printf_float+0x32a>
 80096c4:	e689      	b.n	80093da <_printf_float+0xc2>
 80096c6:	9a05      	ldr	r2, [sp, #20]
 80096c8:	464b      	mov	r3, r9
 80096ca:	4442      	add	r2, r8
 80096cc:	4631      	mov	r1, r6
 80096ce:	4628      	mov	r0, r5
 80096d0:	47b8      	blx	r7
 80096d2:	3001      	adds	r0, #1
 80096d4:	d1c1      	bne.n	800965a <_printf_float+0x342>
 80096d6:	e680      	b.n	80093da <_printf_float+0xc2>
 80096d8:	9a0a      	ldr	r2, [sp, #40]	; 0x28
 80096da:	2a01      	cmp	r2, #1
 80096dc:	dc01      	bgt.n	80096e2 <_printf_float+0x3ca>
 80096de:	07db      	lsls	r3, r3, #31
 80096e0:	d538      	bpl.n	8009754 <_printf_float+0x43c>
 80096e2:	2301      	movs	r3, #1
 80096e4:	4642      	mov	r2, r8
 80096e6:	4631      	mov	r1, r6
 80096e8:	4628      	mov	r0, r5
 80096ea:	47b8      	blx	r7
 80096ec:	3001      	adds	r0, #1
 80096ee:	f43f ae74 	beq.w	80093da <_printf_float+0xc2>
 80096f2:	ee18 3a10 	vmov	r3, s16
 80096f6:	4652      	mov	r2, sl
 80096f8:	4631      	mov	r1, r6
 80096fa:	4628      	mov	r0, r5
 80096fc:	47b8      	blx	r7
 80096fe:	3001      	adds	r0, #1
 8009700:	f43f ae6b 	beq.w	80093da <_printf_float+0xc2>
 8009704:	e9d4 0112 	ldrd	r0, r1, [r4, #72]	; 0x48
 8009708:	2200      	movs	r2, #0
 800970a:	2300      	movs	r3, #0
 800970c:	f7f7 fa04 	bl	8000b18 <__aeabi_dcmpeq>
 8009710:	b9d8      	cbnz	r0, 800974a <_printf_float+0x432>
 8009712:	9b0a      	ldr	r3, [sp, #40]	; 0x28
 8009714:	f108 0201 	add.w	r2, r8, #1
 8009718:	3b01      	subs	r3, #1
 800971a:	4631      	mov	r1, r6
 800971c:	4628      	mov	r0, r5
 800971e:	47b8      	blx	r7
 8009720:	3001      	adds	r0, #1
 8009722:	d10e      	bne.n	8009742 <_printf_float+0x42a>
 8009724:	e659      	b.n	80093da <_printf_float+0xc2>
 8009726:	2301      	movs	r3, #1
 8009728:	4652      	mov	r2, sl
 800972a:	4631      	mov	r1, r6
 800972c:	4628      	mov	r0, r5
 800972e:	47b8      	blx	r7
 8009730:	3001      	adds	r0, #1
 8009732:	f43f ae52 	beq.w	80093da <_printf_float+0xc2>
 8009736:	f108 0801 	add.w	r8, r8, #1
 800973a:	9b0a      	ldr	r3, [sp, #40]	; 0x28
 800973c:	3b01      	subs	r3, #1
 800973e:	4543      	cmp	r3, r8
 8009740:	dcf1      	bgt.n	8009726 <_printf_float+0x40e>
 8009742:	464b      	mov	r3, r9
 8009744:	f104 0250 	add.w	r2, r4, #80	; 0x50
 8009748:	e6dc      	b.n	8009504 <_printf_float+0x1ec>
 800974a:	f04f 0800 	mov.w	r8, #0
 800974e:	f104 0a1a 	add.w	sl, r4, #26
 8009752:	e7f2      	b.n	800973a <_printf_float+0x422>
 8009754:	2301      	movs	r3, #1
 8009756:	4642      	mov	r2, r8
 8009758:	e7df      	b.n	800971a <_printf_float+0x402>
 800975a:	2301      	movs	r3, #1
 800975c:	464a      	mov	r2, r9
 800975e:	4631      	mov	r1, r6
 8009760:	4628      	mov	r0, r5
 8009762:	47b8      	blx	r7
 8009764:	3001      	adds	r0, #1
 8009766:	f43f ae38 	beq.w	80093da <_printf_float+0xc2>
 800976a:	f108 0801 	add.w	r8, r8, #1
 800976e:	68e3      	ldr	r3, [r4, #12]
 8009770:	990b      	ldr	r1, [sp, #44]	; 0x2c
 8009772:	1a5b      	subs	r3, r3, r1
 8009774:	4543      	cmp	r3, r8
 8009776:	dcf0      	bgt.n	800975a <_printf_float+0x442>
 8009778:	e6fa      	b.n	8009570 <_printf_float+0x258>
 800977a:	f04f 0800 	mov.w	r8, #0
 800977e:	f104 0919 	add.w	r9, r4, #25
 8009782:	e7f4      	b.n	800976e <_printf_float+0x456>

08009784 <_printf_common>:
 8009784:	e92d 47f0 	stmdb	sp!, {r4, r5, r6, r7, r8, r9, sl, lr}
 8009788:	4616      	mov	r6, r2
 800978a:	4699      	mov	r9, r3
 800978c:	688a      	ldr	r2, [r1, #8]
 800978e:	690b      	ldr	r3, [r1, #16]
 8009790:	f8dd 8020 	ldr.w	r8, [sp, #32]
 8009794:	4293      	cmp	r3, r2
 8009796:	bfb8      	it	lt
 8009798:	4613      	movlt	r3, r2
 800979a:	6033      	str	r3, [r6, #0]
 800979c:	f891 2043 	ldrb.w	r2, [r1, #67]	; 0x43
 80097a0:	4607      	mov	r7, r0
 80097a2:	460c      	mov	r4, r1
 80097a4:	b10a      	cbz	r2, 80097aa <_printf_common+0x26>
 80097a6:	3301      	adds	r3, #1
 80097a8:	6033      	str	r3, [r6, #0]
 80097aa:	6823      	ldr	r3, [r4, #0]
 80097ac:	0699      	lsls	r1, r3, #26
 80097ae:	bf42      	ittt	mi
 80097b0:	6833      	ldrmi	r3, [r6, #0]
 80097b2:	3302      	addmi	r3, #2
 80097b4:	6033      	strmi	r3, [r6, #0]
 80097b6:	6825      	ldr	r5, [r4, #0]
 80097b8:	f015 0506 	ands.w	r5, r5, #6
 80097bc:	d106      	bne.n	80097cc <_printf_common+0x48>
 80097be:	f104 0a19 	add.w	sl, r4, #25
 80097c2:	68e3      	ldr	r3, [r4, #12]
 80097c4:	6832      	ldr	r2, [r6, #0]
 80097c6:	1a9b      	subs	r3, r3, r2
 80097c8:	42ab      	cmp	r3, r5
 80097ca:	dc26      	bgt.n	800981a <_printf_common+0x96>
 80097cc:	f894 2043 	ldrb.w	r2, [r4, #67]	; 0x43
 80097d0:	1e13      	subs	r3, r2, #0
 80097d2:	6822      	ldr	r2, [r4, #0]
 80097d4:	bf18      	it	ne
 80097d6:	2301      	movne	r3, #1
 80097d8:	0692      	lsls	r2, r2, #26
 80097da:	d42b      	bmi.n	8009834 <_printf_common+0xb0>
 80097dc:	f104 0243 	add.w	r2, r4, #67	; 0x43
 80097e0:	4649      	mov	r1, r9
 80097e2:	4638      	mov	r0, r7
 80097e4:	47c0      	blx	r8
 80097e6:	3001      	adds	r0, #1
 80097e8:	d01e      	beq.n	8009828 <_printf_common+0xa4>
 80097ea:	6823      	ldr	r3, [r4, #0]
 80097ec:	68e5      	ldr	r5, [r4, #12]
 80097ee:	6832      	ldr	r2, [r6, #0]
 80097f0:	f003 0306 	and.w	r3, r3, #6
 80097f4:	2b04      	cmp	r3, #4
 80097f6:	bf08      	it	eq
 80097f8:	1aad      	subeq	r5, r5, r2
 80097fa:	68a3      	ldr	r3, [r4, #8]
 80097fc:	6922      	ldr	r2, [r4, #16]
 80097fe:	bf0c      	ite	eq
 8009800:	ea25 75e5 	biceq.w	r5, r5, r5, asr #31
 8009804:	2500      	movne	r5, #0
 8009806:	4293      	cmp	r3, r2
 8009808:	bfc4      	itt	gt
 800980a:	1a9b      	subgt	r3, r3, r2
 800980c:	18ed      	addgt	r5, r5, r3
 800980e:	2600      	movs	r6, #0
 8009810:	341a      	adds	r4, #26
 8009812:	42b5      	cmp	r5, r6
 8009814:	d11a      	bne.n	800984c <_printf_common+0xc8>
 8009816:	2000      	movs	r0, #0
 8009818:	e008      	b.n	800982c <_printf_common+0xa8>
 800981a:	2301      	movs	r3, #1
 800981c:	4652      	mov	r2, sl
 800981e:	4649      	mov	r1, r9
 8009820:	4638      	mov	r0, r7
 8009822:	47c0      	blx	r8
 8009824:	3001      	adds	r0, #1
 8009826:	d103      	bne.n	8009830 <_printf_common+0xac>
 8009828:	f04f 30ff 	mov.w	r0, #4294967295
 800982c:	e8bd 87f0 	ldmia.w	sp!, {r4, r5, r6, r7, r8, r9, sl, pc}
 8009830:	3501      	adds	r5, #1
 8009832:	e7c6      	b.n	80097c2 <_printf_common+0x3e>
 8009834:	18e1      	adds	r1, r4, r3
 8009836:	1c5a      	adds	r2, r3, #1
 8009838:	2030      	movs	r0, #48	; 0x30
 800983a:	f881 0043 	strb.w	r0, [r1, #67]	; 0x43
 800983e:	4422      	add	r2, r4
 8009840:	f894 1045 	ldrb.w	r1, [r4, #69]	; 0x45
 8009844:	f882 1043 	strb.w	r1, [r2, #67]	; 0x43
 8009848:	3302      	adds	r3, #2
 800984a:	e7c7      	b.n	80097dc <_printf_common+0x58>
 800984c:	2301      	movs	r3, #1
 800984e:	4622      	mov	r2, r4
 8009850:	4649      	mov	r1, r9
 8009852:	4638      	mov	r0, r7
 8009854:	47c0      	blx	r8
 8009856:	3001      	adds	r0, #1
 8009858:	d0e6      	beq.n	8009828 <_printf_common+0xa4>
 800985a:	3601      	adds	r6, #1
 800985c:	e7d9      	b.n	8009812 <_printf_common+0x8e>
	...

08009860 <_printf_i>:
 8009860:	e92d 47ff 	stmdb	sp!, {r0, r1, r2, r3, r4, r5, r6, r7, r8, r9, sl, lr}
 8009864:	7e0f      	ldrb	r7, [r1, #24]
 8009866:	9d0c      	ldr	r5, [sp, #48]	; 0x30
 8009868:	2f78      	cmp	r7, #120	; 0x78
 800986a:	4691      	mov	r9, r2
 800986c:	4680      	mov	r8, r0
 800986e:	460c      	mov	r4, r1
 8009870:	469a      	mov	sl, r3
 8009872:	f101 0243 	add.w	r2, r1, #67	; 0x43
 8009876:	d807      	bhi.n	8009888 <_printf_i+0x28>
 8009878:	2f62      	cmp	r7, #98	; 0x62
 800987a:	d80a      	bhi.n	8009892 <_printf_i+0x32>
 800987c:	2f00      	cmp	r7, #0
 800987e:	f000 80d8 	beq.w	8009a32 <_printf_i+0x1d2>
 8009882:	2f58      	cmp	r7, #88	; 0x58
 8009884:	f000 80a3 	beq.w	80099ce <_printf_i+0x16e>
 8009888:	f104 0542 	add.w	r5, r4, #66	; 0x42
 800988c:	f884 7042 	strb.w	r7, [r4, #66]	; 0x42
 8009890:	e03a      	b.n	8009908 <_printf_i+0xa8>
 8009892:	f1a7 0363 	sub.w	r3, r7, #99	; 0x63
 8009896:	2b15      	cmp	r3, #21
 8009898:	d8f6      	bhi.n	8009888 <_printf_i+0x28>
 800989a:	a101      	add	r1, pc, #4	; (adr r1, 80098a0 <_printf_i+0x40>)
 800989c:	f851 f023 	ldr.w	pc, [r1, r3, lsl #2]
 80098a0:	080098f9 	.word	0x080098f9
 80098a4:	0800990d 	.word	0x0800990d
 80098a8:	08009889 	.word	0x08009889
 80098ac:	08009889 	.word	0x08009889
 80098b0:	08009889 	.word	0x08009889
 80098b4:	08009889 	.word	0x08009889
 80098b8:	0800990d 	.word	0x0800990d
 80098bc:	08009889 	.word	0x08009889
 80098c0:	08009889 	.word	0x08009889
 80098c4:	08009889 	.word	0x08009889
 80098c8:	08009889 	.word	0x08009889
 80098cc:	08009a19 	.word	0x08009a19
 80098d0:	0800993d 	.word	0x0800993d
 80098d4:	080099fb 	.word	0x080099fb
 80098d8:	08009889 	.word	0x08009889
 80098dc:	08009889 	.word	0x08009889
 80098e0:	08009a3b 	.word	0x08009a3b
 80098e4:	08009889 	.word	0x08009889
 80098e8:	0800993d 	.word	0x0800993d
 80098ec:	08009889 	.word	0x08009889
 80098f0:	08009889 	.word	0x08009889
 80098f4:	08009a03 	.word	0x08009a03
 80098f8:	682b      	ldr	r3, [r5, #0]
 80098fa:	1d1a      	adds	r2, r3, #4
 80098fc:	681b      	ldr	r3, [r3, #0]
 80098fe:	602a      	str	r2, [r5, #0]
 8009900:	f104 0542 	add.w	r5, r4, #66	; 0x42
 8009904:	f884 3042 	strb.w	r3, [r4, #66]	; 0x42
 8009908:	2301      	movs	r3, #1
 800990a:	e0a3      	b.n	8009a54 <_printf_i+0x1f4>
 800990c:	6820      	ldr	r0, [r4, #0]
 800990e:	6829      	ldr	r1, [r5, #0]
 8009910:	0606      	lsls	r6, r0, #24
 8009912:	f101 0304 	add.w	r3, r1, #4
 8009916:	d50a      	bpl.n	800992e <_printf_i+0xce>
 8009918:	680e      	ldr	r6, [r1, #0]
 800991a:	602b      	str	r3, [r5, #0]
 800991c:	2e00      	cmp	r6, #0
 800991e:	da03      	bge.n	8009928 <_printf_i+0xc8>
 8009920:	232d      	movs	r3, #45	; 0x2d
 8009922:	4276      	negs	r6, r6
 8009924:	f884 3043 	strb.w	r3, [r4, #67]	; 0x43
 8009928:	485e      	ldr	r0, [pc, #376]	; (8009aa4 <_printf_i+0x244>)
 800992a:	230a      	movs	r3, #10
 800992c:	e019      	b.n	8009962 <_printf_i+0x102>
 800992e:	680e      	ldr	r6, [r1, #0]
 8009930:	602b      	str	r3, [r5, #0]
 8009932:	f010 0f40 	tst.w	r0, #64	; 0x40
 8009936:	bf18      	it	ne
 8009938:	b236      	sxthne	r6, r6
 800993a:	e7ef      	b.n	800991c <_printf_i+0xbc>
 800993c:	682b      	ldr	r3, [r5, #0]
 800993e:	6820      	ldr	r0, [r4, #0]
 8009940:	1d19      	adds	r1, r3, #4
 8009942:	6029      	str	r1, [r5, #0]
 8009944:	0601      	lsls	r1, r0, #24
 8009946:	d501      	bpl.n	800994c <_printf_i+0xec>
 8009948:	681e      	ldr	r6, [r3, #0]
 800994a:	e002      	b.n	8009952 <_printf_i+0xf2>
 800994c:	0646      	lsls	r6, r0, #25
 800994e:	d5fb      	bpl.n	8009948 <_printf_i+0xe8>
 8009950:	881e      	ldrh	r6, [r3, #0]
 8009952:	4854      	ldr	r0, [pc, #336]	; (8009aa4 <_printf_i+0x244>)
 8009954:	2f6f      	cmp	r7, #111	; 0x6f
 8009956:	bf0c      	ite	eq
 8009958:	2308      	moveq	r3, #8
 800995a:	230a      	movne	r3, #10
 800995c:	2100      	movs	r1, #0
 800995e:	f884 1043 	strb.w	r1, [r4, #67]	; 0x43
 8009962:	6865      	ldr	r5, [r4, #4]
 8009964:	60a5      	str	r5, [r4, #8]
 8009966:	2d00      	cmp	r5, #0
 8009968:	bfa2      	ittt	ge
 800996a:	6821      	ldrge	r1, [r4, #0]
 800996c:	f021 0104 	bicge.w	r1, r1, #4
 8009970:	6021      	strge	r1, [r4, #0]
 8009972:	b90e      	cbnz	r6, 8009978 <_printf_i+0x118>
 8009974:	2d00      	cmp	r5, #0
 8009976:	d04d      	beq.n	8009a14 <_printf_i+0x1b4>
 8009978:	4615      	mov	r5, r2
 800997a:	fbb6 f1f3 	udiv	r1, r6, r3
 800997e:	fb03 6711 	mls	r7, r3, r1, r6
 8009982:	5dc7      	ldrb	r7, [r0, r7]
 8009984:	f805 7d01 	strb.w	r7, [r5, #-1]!
 8009988:	4637      	mov	r7, r6
 800998a:	42bb      	cmp	r3, r7
 800998c:	460e      	mov	r6, r1
 800998e:	d9f4      	bls.n	800997a <_printf_i+0x11a>
 8009990:	2b08      	cmp	r3, #8
 8009992:	d10b      	bne.n	80099ac <_printf_i+0x14c>
 8009994:	6823      	ldr	r3, [r4, #0]
 8009996:	07de      	lsls	r6, r3, #31
 8009998:	d508      	bpl.n	80099ac <_printf_i+0x14c>
 800999a:	6923      	ldr	r3, [r4, #16]
 800999c:	6861      	ldr	r1, [r4, #4]
 800999e:	4299      	cmp	r1, r3
 80099a0:	bfde      	ittt	le
 80099a2:	2330      	movle	r3, #48	; 0x30
 80099a4:	f805 3c01 	strble.w	r3, [r5, #-1]
 80099a8:	f105 35ff 	addle.w	r5, r5, #4294967295
 80099ac:	1b52      	subs	r2, r2, r5
 80099ae:	6122      	str	r2, [r4, #16]
 80099b0:	f8cd a000 	str.w	sl, [sp]
 80099b4:	464b      	mov	r3, r9
 80099b6:	aa03      	add	r2, sp, #12
 80099b8:	4621      	mov	r1, r4
 80099ba:	4640      	mov	r0, r8
 80099bc:	f7ff fee2 	bl	8009784 <_printf_common>
 80099c0:	3001      	adds	r0, #1
 80099c2:	d14c      	bne.n	8009a5e <_printf_i+0x1fe>
 80099c4:	f04f 30ff 	mov.w	r0, #4294967295
 80099c8:	b004      	add	sp, #16
 80099ca:	e8bd 87f0 	ldmia.w	sp!, {r4, r5, r6, r7, r8, r9, sl, pc}
 80099ce:	4835      	ldr	r0, [pc, #212]	; (8009aa4 <_printf_i+0x244>)
 80099d0:	f881 7045 	strb.w	r7, [r1, #69]	; 0x45
 80099d4:	6829      	ldr	r1, [r5, #0]
 80099d6:	6823      	ldr	r3, [r4, #0]
 80099d8:	f851 6b04 	ldr.w	r6, [r1], #4
 80099dc:	6029      	str	r1, [r5, #0]
 80099de:	061d      	lsls	r5, r3, #24
 80099e0:	d514      	bpl.n	8009a0c <_printf_i+0x1ac>
 80099e2:	07df      	lsls	r7, r3, #31
 80099e4:	bf44      	itt	mi
 80099e6:	f043 0320 	orrmi.w	r3, r3, #32
 80099ea:	6023      	strmi	r3, [r4, #0]
 80099ec:	b91e      	cbnz	r6, 80099f6 <_printf_i+0x196>
 80099ee:	6823      	ldr	r3, [r4, #0]
 80099f0:	f023 0320 	bic.w	r3, r3, #32
 80099f4:	6023      	str	r3, [r4, #0]
 80099f6:	2310      	movs	r3, #16
 80099f8:	e7b0      	b.n	800995c <_printf_i+0xfc>
 80099fa:	6823      	ldr	r3, [r4, #0]
 80099fc:	f043 0320 	orr.w	r3, r3, #32
 8009a00:	6023      	str	r3, [r4, #0]
 8009a02:	2378      	movs	r3, #120	; 0x78
 8009a04:	4828      	ldr	r0, [pc, #160]	; (8009aa8 <_printf_i+0x248>)
 8009a06:	f884 3045 	strb.w	r3, [r4, #69]	; 0x45
 8009a0a:	e7e3      	b.n	80099d4 <_printf_i+0x174>
 8009a0c:	0659      	lsls	r1, r3, #25
 8009a0e:	bf48      	it	mi
 8009a10:	b2b6      	uxthmi	r6, r6
 8009a12:	e7e6      	b.n	80099e2 <_printf_i+0x182>
 8009a14:	4615      	mov	r5, r2
 8009a16:	e7bb      	b.n	8009990 <_printf_i+0x130>
 8009a18:	682b      	ldr	r3, [r5, #0]
 8009a1a:	6826      	ldr	r6, [r4, #0]
 8009a1c:	6961      	ldr	r1, [r4, #20]
 8009a1e:	1d18      	adds	r0, r3, #4
 8009a20:	6028      	str	r0, [r5, #0]
 8009a22:	0635      	lsls	r5, r6, #24
 8009a24:	681b      	ldr	r3, [r3, #0]
 8009a26:	d501      	bpl.n	8009a2c <_printf_i+0x1cc>
 8009a28:	6019      	str	r1, [r3, #0]
 8009a2a:	e002      	b.n	8009a32 <_printf_i+0x1d2>
 8009a2c:	0670      	lsls	r0, r6, #25
 8009a2e:	d5fb      	bpl.n	8009a28 <_printf_i+0x1c8>
 8009a30:	8019      	strh	r1, [r3, #0]
 8009a32:	2300      	movs	r3, #0
 8009a34:	6123      	str	r3, [r4, #16]
 8009a36:	4615      	mov	r5, r2
 8009a38:	e7ba      	b.n	80099b0 <_printf_i+0x150>
 8009a3a:	682b      	ldr	r3, [r5, #0]
 8009a3c:	1d1a      	adds	r2, r3, #4
 8009a3e:	602a      	str	r2, [r5, #0]
 8009a40:	681d      	ldr	r5, [r3, #0]
 8009a42:	6862      	ldr	r2, [r4, #4]
 8009a44:	2100      	movs	r1, #0
 8009a46:	4628      	mov	r0, r5
 8009a48:	f7f6 fbf2 	bl	8000230 <memchr>
 8009a4c:	b108      	cbz	r0, 8009a52 <_printf_i+0x1f2>
 8009a4e:	1b40      	subs	r0, r0, r5
 8009a50:	6060      	str	r0, [r4, #4]
 8009a52:	6863      	ldr	r3, [r4, #4]
 8009a54:	6123      	str	r3, [r4, #16]
 8009a56:	2300      	movs	r3, #0
 8009a58:	f884 3043 	strb.w	r3, [r4, #67]	; 0x43
 8009a5c:	e7a8      	b.n	80099b0 <_printf_i+0x150>
 8009a5e:	6923      	ldr	r3, [r4, #16]
 8009a60:	462a      	mov	r2, r5
 8009a62:	4649      	mov	r1, r9
 8009a64:	4640      	mov	r0, r8
 8009a66:	47d0      	blx	sl
 8009a68:	3001      	adds	r0, #1
 8009a6a:	d0ab      	beq.n	80099c4 <_printf_i+0x164>
 8009a6c:	6823      	ldr	r3, [r4, #0]
 8009a6e:	079b      	lsls	r3, r3, #30
 8009a70:	d413      	bmi.n	8009a9a <_printf_i+0x23a>
 8009a72:	68e0      	ldr	r0, [r4, #12]
 8009a74:	9b03      	ldr	r3, [sp, #12]
 8009a76:	4298      	cmp	r0, r3
 8009a78:	bfb8      	it	lt
 8009a7a:	4618      	movlt	r0, r3
 8009a7c:	e7a4      	b.n	80099c8 <_printf_i+0x168>
 8009a7e:	2301      	movs	r3, #1
 8009a80:	4632      	mov	r2, r6
 8009a82:	4649      	mov	r1, r9
 8009a84:	4640      	mov	r0, r8
 8009a86:	47d0      	blx	sl
 8009a88:	3001      	adds	r0, #1
 8009a8a:	d09b      	beq.n	80099c4 <_printf_i+0x164>
 8009a8c:	3501      	adds	r5, #1
 8009a8e:	68e3      	ldr	r3, [r4, #12]
 8009a90:	9903      	ldr	r1, [sp, #12]
 8009a92:	1a5b      	subs	r3, r3, r1
 8009a94:	42ab      	cmp	r3, r5
 8009a96:	dcf2      	bgt.n	8009a7e <_printf_i+0x21e>
 8009a98:	e7eb      	b.n	8009a72 <_printf_i+0x212>
 8009a9a:	2500      	movs	r5, #0
 8009a9c:	f104 0619 	add.w	r6, r4, #25
 8009aa0:	e7f5      	b.n	8009a8e <_printf_i+0x22e>
 8009aa2:	bf00      	nop
 8009aa4:	0800c4de 	.word	0x0800c4de
 8009aa8:	0800c4ef 	.word	0x0800c4ef

08009aac <iprintf>:
 8009aac:	b40f      	push	{r0, r1, r2, r3}
 8009aae:	4b0a      	ldr	r3, [pc, #40]	; (8009ad8 <iprintf+0x2c>)
 8009ab0:	b513      	push	{r0, r1, r4, lr}
 8009ab2:	681c      	ldr	r4, [r3, #0]
 8009ab4:	b124      	cbz	r4, 8009ac0 <iprintf+0x14>
 8009ab6:	69a3      	ldr	r3, [r4, #24]
 8009ab8:	b913      	cbnz	r3, 8009ac0 <iprintf+0x14>
 8009aba:	4620      	mov	r0, r4
 8009abc:	f001 f9a8 	bl	800ae10 <__sinit>
 8009ac0:	ab05      	add	r3, sp, #20
 8009ac2:	9a04      	ldr	r2, [sp, #16]
 8009ac4:	68a1      	ldr	r1, [r4, #8]
 8009ac6:	9301      	str	r3, [sp, #4]
 8009ac8:	4620      	mov	r0, r4
 8009aca:	f001 ff57 	bl	800b97c <_vfiprintf_r>
 8009ace:	b002      	add	sp, #8
 8009ad0:	e8bd 4010 	ldmia.w	sp!, {r4, lr}
 8009ad4:	b004      	add	sp, #16
 8009ad6:	4770      	bx	lr
 8009ad8:	20000030 	.word	0x20000030

08009adc <_puts_r>:
 8009adc:	b570      	push	{r4, r5, r6, lr}
 8009ade:	460e      	mov	r6, r1
 8009ae0:	4605      	mov	r5, r0
 8009ae2:	b118      	cbz	r0, 8009aec <_puts_r+0x10>
 8009ae4:	6983      	ldr	r3, [r0, #24]
 8009ae6:	b90b      	cbnz	r3, 8009aec <_puts_r+0x10>
 8009ae8:	f001 f992 	bl	800ae10 <__sinit>
 8009aec:	69ab      	ldr	r3, [r5, #24]
 8009aee:	68ac      	ldr	r4, [r5, #8]
 8009af0:	b913      	cbnz	r3, 8009af8 <_puts_r+0x1c>
 8009af2:	4628      	mov	r0, r5
 8009af4:	f001 f98c 	bl	800ae10 <__sinit>
 8009af8:	4b2c      	ldr	r3, [pc, #176]	; (8009bac <_puts_r+0xd0>)
 8009afa:	429c      	cmp	r4, r3
 8009afc:	d120      	bne.n	8009b40 <_puts_r+0x64>
 8009afe:	686c      	ldr	r4, [r5, #4]
 8009b00:	6e63      	ldr	r3, [r4, #100]	; 0x64
 8009b02:	07db      	lsls	r3, r3, #31
 8009b04:	d405      	bmi.n	8009b12 <_puts_r+0x36>
 8009b06:	89a3      	ldrh	r3, [r4, #12]
 8009b08:	0598      	lsls	r0, r3, #22
 8009b0a:	d402      	bmi.n	8009b12 <_puts_r+0x36>
 8009b0c:	6da0      	ldr	r0, [r4, #88]	; 0x58
 8009b0e:	f001 fa22 	bl	800af56 <__retarget_lock_acquire_recursive>
 8009b12:	89a3      	ldrh	r3, [r4, #12]
 8009b14:	0719      	lsls	r1, r3, #28
 8009b16:	d51d      	bpl.n	8009b54 <_puts_r+0x78>
 8009b18:	6923      	ldr	r3, [r4, #16]
 8009b1a:	b1db      	cbz	r3, 8009b54 <_puts_r+0x78>
 8009b1c:	3e01      	subs	r6, #1
 8009b1e:	68a3      	ldr	r3, [r4, #8]
 8009b20:	f816 1f01 	ldrb.w	r1, [r6, #1]!
 8009b24:	3b01      	subs	r3, #1
 8009b26:	60a3      	str	r3, [r4, #8]
 8009b28:	bb39      	cbnz	r1, 8009b7a <_puts_r+0x9e>
 8009b2a:	2b00      	cmp	r3, #0
 8009b2c:	da38      	bge.n	8009ba0 <_puts_r+0xc4>
 8009b2e:	4622      	mov	r2, r4
 8009b30:	210a      	movs	r1, #10
 8009b32:	4628      	mov	r0, r5
 8009b34:	f000 f916 	bl	8009d64 <__swbuf_r>
 8009b38:	3001      	adds	r0, #1
 8009b3a:	d011      	beq.n	8009b60 <_puts_r+0x84>
 8009b3c:	250a      	movs	r5, #10
 8009b3e:	e011      	b.n	8009b64 <_puts_r+0x88>
 8009b40:	4b1b      	ldr	r3, [pc, #108]	; (8009bb0 <_puts_r+0xd4>)
 8009b42:	429c      	cmp	r4, r3
 8009b44:	d101      	bne.n	8009b4a <_puts_r+0x6e>
 8009b46:	68ac      	ldr	r4, [r5, #8]
 8009b48:	e7da      	b.n	8009b00 <_puts_r+0x24>
 8009b4a:	4b1a      	ldr	r3, [pc, #104]	; (8009bb4 <_puts_r+0xd8>)
 8009b4c:	429c      	cmp	r4, r3
 8009b4e:	bf08      	it	eq
 8009b50:	68ec      	ldreq	r4, [r5, #12]
 8009b52:	e7d5      	b.n	8009b00 <_puts_r+0x24>
 8009b54:	4621      	mov	r1, r4
 8009b56:	4628      	mov	r0, r5
 8009b58:	f000 f956 	bl	8009e08 <__swsetup_r>
 8009b5c:	2800      	cmp	r0, #0
 8009b5e:	d0dd      	beq.n	8009b1c <_puts_r+0x40>
 8009b60:	f04f 35ff 	mov.w	r5, #4294967295
 8009b64:	6e63      	ldr	r3, [r4, #100]	; 0x64
 8009b66:	07da      	lsls	r2, r3, #31
 8009b68:	d405      	bmi.n	8009b76 <_puts_r+0x9a>
 8009b6a:	89a3      	ldrh	r3, [r4, #12]
 8009b6c:	059b      	lsls	r3, r3, #22
 8009b6e:	d402      	bmi.n	8009b76 <_puts_r+0x9a>
 8009b70:	6da0      	ldr	r0, [r4, #88]	; 0x58
 8009b72:	f001 f9f1 	bl	800af58 <__retarget_lock_release_recursive>
 8009b76:	4628      	mov	r0, r5
 8009b78:	bd70      	pop	{r4, r5, r6, pc}
 8009b7a:	2b00      	cmp	r3, #0
 8009b7c:	da04      	bge.n	8009b88 <_puts_r+0xac>
 8009b7e:	69a2      	ldr	r2, [r4, #24]
 8009b80:	429a      	cmp	r2, r3
 8009b82:	dc06      	bgt.n	8009b92 <_puts_r+0xb6>
 8009b84:	290a      	cmp	r1, #10
 8009b86:	d004      	beq.n	8009b92 <_puts_r+0xb6>
 8009b88:	6823      	ldr	r3, [r4, #0]
 8009b8a:	1c5a      	adds	r2, r3, #1
 8009b8c:	6022      	str	r2, [r4, #0]
 8009b8e:	7019      	strb	r1, [r3, #0]
 8009b90:	e7c5      	b.n	8009b1e <_puts_r+0x42>
 8009b92:	4622      	mov	r2, r4
 8009b94:	4628      	mov	r0, r5
 8009b96:	f000 f8e5 	bl	8009d64 <__swbuf_r>
 8009b9a:	3001      	adds	r0, #1
 8009b9c:	d1bf      	bne.n	8009b1e <_puts_r+0x42>
 8009b9e:	e7df      	b.n	8009b60 <_puts_r+0x84>
 8009ba0:	6823      	ldr	r3, [r4, #0]
 8009ba2:	250a      	movs	r5, #10
 8009ba4:	1c5a      	adds	r2, r3, #1
 8009ba6:	6022      	str	r2, [r4, #0]
 8009ba8:	701d      	strb	r5, [r3, #0]
 8009baa:	e7db      	b.n	8009b64 <_puts_r+0x88>
 8009bac:	0800c5b0 	.word	0x0800c5b0
 8009bb0:	0800c5d0 	.word	0x0800c5d0
 8009bb4:	0800c590 	.word	0x0800c590

08009bb8 <puts>:
 8009bb8:	4b02      	ldr	r3, [pc, #8]	; (8009bc4 <puts+0xc>)
 8009bba:	4601      	mov	r1, r0
 8009bbc:	6818      	ldr	r0, [r3, #0]
 8009bbe:	f7ff bf8d 	b.w	8009adc <_puts_r>
 8009bc2:	bf00      	nop
 8009bc4:	20000030 	.word	0x20000030

08009bc8 <setbuf>:
 8009bc8:	2900      	cmp	r1, #0
 8009bca:	f44f 6380 	mov.w	r3, #1024	; 0x400
 8009bce:	bf0c      	ite	eq
 8009bd0:	2202      	moveq	r2, #2
 8009bd2:	2200      	movne	r2, #0
 8009bd4:	f000 b800 	b.w	8009bd8 <setvbuf>

08009bd8 <setvbuf>:
 8009bd8:	e92d 43f7 	stmdb	sp!, {r0, r1, r2, r4, r5, r6, r7, r8, r9, lr}
 8009bdc:	461d      	mov	r5, r3
 8009bde:	4b5d      	ldr	r3, [pc, #372]	; (8009d54 <setvbuf+0x17c>)
 8009be0:	681f      	ldr	r7, [r3, #0]
 8009be2:	4604      	mov	r4, r0
 8009be4:	460e      	mov	r6, r1
 8009be6:	4690      	mov	r8, r2
 8009be8:	b127      	cbz	r7, 8009bf4 <setvbuf+0x1c>
 8009bea:	69bb      	ldr	r3, [r7, #24]
 8009bec:	b913      	cbnz	r3, 8009bf4 <setvbuf+0x1c>
 8009bee:	4638      	mov	r0, r7
 8009bf0:	f001 f90e 	bl	800ae10 <__sinit>
 8009bf4:	4b58      	ldr	r3, [pc, #352]	; (8009d58 <setvbuf+0x180>)
 8009bf6:	429c      	cmp	r4, r3
 8009bf8:	d167      	bne.n	8009cca <setvbuf+0xf2>
 8009bfa:	687c      	ldr	r4, [r7, #4]
 8009bfc:	f1b8 0f02 	cmp.w	r8, #2
 8009c00:	d006      	beq.n	8009c10 <setvbuf+0x38>
 8009c02:	f1b8 0f01 	cmp.w	r8, #1
 8009c06:	f200 809f 	bhi.w	8009d48 <setvbuf+0x170>
 8009c0a:	2d00      	cmp	r5, #0
 8009c0c:	f2c0 809c 	blt.w	8009d48 <setvbuf+0x170>
 8009c10:	6e63      	ldr	r3, [r4, #100]	; 0x64
 8009c12:	07db      	lsls	r3, r3, #31
 8009c14:	d405      	bmi.n	8009c22 <setvbuf+0x4a>
 8009c16:	89a3      	ldrh	r3, [r4, #12]
 8009c18:	0598      	lsls	r0, r3, #22
 8009c1a:	d402      	bmi.n	8009c22 <setvbuf+0x4a>
 8009c1c:	6da0      	ldr	r0, [r4, #88]	; 0x58
 8009c1e:	f001 f99a 	bl	800af56 <__retarget_lock_acquire_recursive>
 8009c22:	4621      	mov	r1, r4
 8009c24:	4638      	mov	r0, r7
 8009c26:	f001 f85f 	bl	800ace8 <_fflush_r>
 8009c2a:	6b61      	ldr	r1, [r4, #52]	; 0x34
 8009c2c:	b141      	cbz	r1, 8009c40 <setvbuf+0x68>
 8009c2e:	f104 0344 	add.w	r3, r4, #68	; 0x44
 8009c32:	4299      	cmp	r1, r3
 8009c34:	d002      	beq.n	8009c3c <setvbuf+0x64>
 8009c36:	4638      	mov	r0, r7
 8009c38:	f001 fd96 	bl	800b768 <_free_r>
 8009c3c:	2300      	movs	r3, #0
 8009c3e:	6363      	str	r3, [r4, #52]	; 0x34
 8009c40:	2300      	movs	r3, #0
 8009c42:	61a3      	str	r3, [r4, #24]
 8009c44:	6063      	str	r3, [r4, #4]
 8009c46:	89a3      	ldrh	r3, [r4, #12]
 8009c48:	0619      	lsls	r1, r3, #24
 8009c4a:	d503      	bpl.n	8009c54 <setvbuf+0x7c>
 8009c4c:	6921      	ldr	r1, [r4, #16]
 8009c4e:	4638      	mov	r0, r7
 8009c50:	f001 fd8a 	bl	800b768 <_free_r>
 8009c54:	89a3      	ldrh	r3, [r4, #12]
 8009c56:	f423 634a 	bic.w	r3, r3, #3232	; 0xca0
 8009c5a:	f023 0303 	bic.w	r3, r3, #3
 8009c5e:	f1b8 0f02 	cmp.w	r8, #2
 8009c62:	81a3      	strh	r3, [r4, #12]
 8009c64:	d06c      	beq.n	8009d40 <setvbuf+0x168>
 8009c66:	ab01      	add	r3, sp, #4
 8009c68:	466a      	mov	r2, sp
 8009c6a:	4621      	mov	r1, r4
 8009c6c:	4638      	mov	r0, r7
 8009c6e:	f001 f974 	bl	800af5a <__swhatbuf_r>
 8009c72:	89a3      	ldrh	r3, [r4, #12]
 8009c74:	4318      	orrs	r0, r3
 8009c76:	81a0      	strh	r0, [r4, #12]
 8009c78:	2d00      	cmp	r5, #0
 8009c7a:	d130      	bne.n	8009cde <setvbuf+0x106>
 8009c7c:	9d00      	ldr	r5, [sp, #0]
 8009c7e:	4628      	mov	r0, r5
 8009c80:	f001 f9d0 	bl	800b024 <malloc>
 8009c84:	4606      	mov	r6, r0
 8009c86:	2800      	cmp	r0, #0
 8009c88:	d155      	bne.n	8009d36 <setvbuf+0x15e>
 8009c8a:	f8dd 9000 	ldr.w	r9, [sp]
 8009c8e:	45a9      	cmp	r9, r5
 8009c90:	d14a      	bne.n	8009d28 <setvbuf+0x150>
 8009c92:	f04f 35ff 	mov.w	r5, #4294967295
 8009c96:	2200      	movs	r2, #0
 8009c98:	60a2      	str	r2, [r4, #8]
 8009c9a:	f104 0247 	add.w	r2, r4, #71	; 0x47
 8009c9e:	6022      	str	r2, [r4, #0]
 8009ca0:	6122      	str	r2, [r4, #16]
 8009ca2:	2201      	movs	r2, #1
 8009ca4:	f9b4 300c 	ldrsh.w	r3, [r4, #12]
 8009ca8:	6162      	str	r2, [r4, #20]
 8009caa:	6e62      	ldr	r2, [r4, #100]	; 0x64
 8009cac:	f043 0302 	orr.w	r3, r3, #2
 8009cb0:	07d2      	lsls	r2, r2, #31
 8009cb2:	81a3      	strh	r3, [r4, #12]
 8009cb4:	d405      	bmi.n	8009cc2 <setvbuf+0xea>
 8009cb6:	f413 7f00 	tst.w	r3, #512	; 0x200
 8009cba:	d102      	bne.n	8009cc2 <setvbuf+0xea>
 8009cbc:	6da0      	ldr	r0, [r4, #88]	; 0x58
 8009cbe:	f001 f94b 	bl	800af58 <__retarget_lock_release_recursive>
 8009cc2:	4628      	mov	r0, r5
 8009cc4:	b003      	add	sp, #12
 8009cc6:	e8bd 83f0 	ldmia.w	sp!, {r4, r5, r6, r7, r8, r9, pc}
 8009cca:	4b24      	ldr	r3, [pc, #144]	; (8009d5c <setvbuf+0x184>)
 8009ccc:	429c      	cmp	r4, r3
 8009cce:	d101      	bne.n	8009cd4 <setvbuf+0xfc>
 8009cd0:	68bc      	ldr	r4, [r7, #8]
 8009cd2:	e793      	b.n	8009bfc <setvbuf+0x24>
 8009cd4:	4b22      	ldr	r3, [pc, #136]	; (8009d60 <setvbuf+0x188>)
 8009cd6:	429c      	cmp	r4, r3
 8009cd8:	bf08      	it	eq
 8009cda:	68fc      	ldreq	r4, [r7, #12]
 8009cdc:	e78e      	b.n	8009bfc <setvbuf+0x24>
 8009cde:	2e00      	cmp	r6, #0
 8009ce0:	d0cd      	beq.n	8009c7e <setvbuf+0xa6>
 8009ce2:	69bb      	ldr	r3, [r7, #24]
 8009ce4:	b913      	cbnz	r3, 8009cec <setvbuf+0x114>
 8009ce6:	4638      	mov	r0, r7
 8009ce8:	f001 f892 	bl	800ae10 <__sinit>
 8009cec:	f1b8 0f01 	cmp.w	r8, #1
 8009cf0:	bf08      	it	eq
 8009cf2:	89a3      	ldrheq	r3, [r4, #12]
 8009cf4:	6026      	str	r6, [r4, #0]
 8009cf6:	bf04      	itt	eq
 8009cf8:	f043 0301 	orreq.w	r3, r3, #1
 8009cfc:	81a3      	strheq	r3, [r4, #12]
 8009cfe:	89a2      	ldrh	r2, [r4, #12]
 8009d00:	f012 0308 	ands.w	r3, r2, #8
 8009d04:	e9c4 6504 	strd	r6, r5, [r4, #16]
 8009d08:	d01c      	beq.n	8009d44 <setvbuf+0x16c>
 8009d0a:	07d3      	lsls	r3, r2, #31
 8009d0c:	bf41      	itttt	mi
 8009d0e:	2300      	movmi	r3, #0
 8009d10:	426d      	negmi	r5, r5
 8009d12:	60a3      	strmi	r3, [r4, #8]
 8009d14:	61a5      	strmi	r5, [r4, #24]
 8009d16:	bf58      	it	pl
 8009d18:	60a5      	strpl	r5, [r4, #8]
 8009d1a:	6e65      	ldr	r5, [r4, #100]	; 0x64
 8009d1c:	f015 0501 	ands.w	r5, r5, #1
 8009d20:	d115      	bne.n	8009d4e <setvbuf+0x176>
 8009d22:	f412 7f00 	tst.w	r2, #512	; 0x200
 8009d26:	e7c8      	b.n	8009cba <setvbuf+0xe2>
 8009d28:	4648      	mov	r0, r9
 8009d2a:	f001 f97b 	bl	800b024 <malloc>
 8009d2e:	4606      	mov	r6, r0
 8009d30:	2800      	cmp	r0, #0
 8009d32:	d0ae      	beq.n	8009c92 <setvbuf+0xba>
 8009d34:	464d      	mov	r5, r9
 8009d36:	89a3      	ldrh	r3, [r4, #12]
 8009d38:	f043 0380 	orr.w	r3, r3, #128	; 0x80
 8009d3c:	81a3      	strh	r3, [r4, #12]
 8009d3e:	e7d0      	b.n	8009ce2 <setvbuf+0x10a>
 8009d40:	2500      	movs	r5, #0
 8009d42:	e7a8      	b.n	8009c96 <setvbuf+0xbe>
 8009d44:	60a3      	str	r3, [r4, #8]
 8009d46:	e7e8      	b.n	8009d1a <setvbuf+0x142>
 8009d48:	f04f 35ff 	mov.w	r5, #4294967295
 8009d4c:	e7b9      	b.n	8009cc2 <setvbuf+0xea>
 8009d4e:	2500      	movs	r5, #0
 8009d50:	e7b7      	b.n	8009cc2 <setvbuf+0xea>
 8009d52:	bf00      	nop
 8009d54:	20000030 	.word	0x20000030
 8009d58:	0800c5b0 	.word	0x0800c5b0
 8009d5c:	0800c5d0 	.word	0x0800c5d0
 8009d60:	0800c590 	.word	0x0800c590

08009d64 <__swbuf_r>:
 8009d64:	b5f8      	push	{r3, r4, r5, r6, r7, lr}
 8009d66:	460e      	mov	r6, r1
 8009d68:	4614      	mov	r4, r2
 8009d6a:	4605      	mov	r5, r0
 8009d6c:	b118      	cbz	r0, 8009d76 <__swbuf_r+0x12>
 8009d6e:	6983      	ldr	r3, [r0, #24]
 8009d70:	b90b      	cbnz	r3, 8009d76 <__swbuf_r+0x12>
 8009d72:	f001 f84d 	bl	800ae10 <__sinit>
 8009d76:	4b21      	ldr	r3, [pc, #132]	; (8009dfc <__swbuf_r+0x98>)
 8009d78:	429c      	cmp	r4, r3
 8009d7a:	d12b      	bne.n	8009dd4 <__swbuf_r+0x70>
 8009d7c:	686c      	ldr	r4, [r5, #4]
 8009d7e:	69a3      	ldr	r3, [r4, #24]
 8009d80:	60a3      	str	r3, [r4, #8]
 8009d82:	89a3      	ldrh	r3, [r4, #12]
 8009d84:	071a      	lsls	r2, r3, #28
 8009d86:	d52f      	bpl.n	8009de8 <__swbuf_r+0x84>
 8009d88:	6923      	ldr	r3, [r4, #16]
 8009d8a:	b36b      	cbz	r3, 8009de8 <__swbuf_r+0x84>
 8009d8c:	6923      	ldr	r3, [r4, #16]
 8009d8e:	6820      	ldr	r0, [r4, #0]
 8009d90:	1ac0      	subs	r0, r0, r3
 8009d92:	6963      	ldr	r3, [r4, #20]
 8009d94:	b2f6      	uxtb	r6, r6
 8009d96:	4283      	cmp	r3, r0
 8009d98:	4637      	mov	r7, r6
 8009d9a:	dc04      	bgt.n	8009da6 <__swbuf_r+0x42>
 8009d9c:	4621      	mov	r1, r4
 8009d9e:	4628      	mov	r0, r5
 8009da0:	f000 ffa2 	bl	800ace8 <_fflush_r>
 8009da4:	bb30      	cbnz	r0, 8009df4 <__swbuf_r+0x90>
 8009da6:	68a3      	ldr	r3, [r4, #8]
 8009da8:	3b01      	subs	r3, #1
 8009daa:	60a3      	str	r3, [r4, #8]
 8009dac:	6823      	ldr	r3, [r4, #0]
 8009dae:	1c5a      	adds	r2, r3, #1
 8009db0:	6022      	str	r2, [r4, #0]
 8009db2:	701e      	strb	r6, [r3, #0]
 8009db4:	6963      	ldr	r3, [r4, #20]
 8009db6:	3001      	adds	r0, #1
 8009db8:	4283      	cmp	r3, r0
 8009dba:	d004      	beq.n	8009dc6 <__swbuf_r+0x62>
 8009dbc:	89a3      	ldrh	r3, [r4, #12]
 8009dbe:	07db      	lsls	r3, r3, #31
 8009dc0:	d506      	bpl.n	8009dd0 <__swbuf_r+0x6c>
 8009dc2:	2e0a      	cmp	r6, #10
 8009dc4:	d104      	bne.n	8009dd0 <__swbuf_r+0x6c>
 8009dc6:	4621      	mov	r1, r4
 8009dc8:	4628      	mov	r0, r5
 8009dca:	f000 ff8d 	bl	800ace8 <_fflush_r>
 8009dce:	b988      	cbnz	r0, 8009df4 <__swbuf_r+0x90>
 8009dd0:	4638      	mov	r0, r7
 8009dd2:	bdf8      	pop	{r3, r4, r5, r6, r7, pc}
 8009dd4:	4b0a      	ldr	r3, [pc, #40]	; (8009e00 <__swbuf_r+0x9c>)
 8009dd6:	429c      	cmp	r4, r3
 8009dd8:	d101      	bne.n	8009dde <__swbuf_r+0x7a>
 8009dda:	68ac      	ldr	r4, [r5, #8]
 8009ddc:	e7cf      	b.n	8009d7e <__swbuf_r+0x1a>
 8009dde:	4b09      	ldr	r3, [pc, #36]	; (8009e04 <__swbuf_r+0xa0>)
 8009de0:	429c      	cmp	r4, r3
 8009de2:	bf08      	it	eq
 8009de4:	68ec      	ldreq	r4, [r5, #12]
 8009de6:	e7ca      	b.n	8009d7e <__swbuf_r+0x1a>
 8009de8:	4621      	mov	r1, r4
 8009dea:	4628      	mov	r0, r5
 8009dec:	f000 f80c 	bl	8009e08 <__swsetup_r>
 8009df0:	2800      	cmp	r0, #0
 8009df2:	d0cb      	beq.n	8009d8c <__swbuf_r+0x28>
 8009df4:	f04f 37ff 	mov.w	r7, #4294967295
 8009df8:	e7ea      	b.n	8009dd0 <__swbuf_r+0x6c>
 8009dfa:	bf00      	nop
 8009dfc:	0800c5b0 	.word	0x0800c5b0
 8009e00:	0800c5d0 	.word	0x0800c5d0
 8009e04:	0800c590 	.word	0x0800c590

08009e08 <__swsetup_r>:
 8009e08:	4b32      	ldr	r3, [pc, #200]	; (8009ed4 <__swsetup_r+0xcc>)
 8009e0a:	b570      	push	{r4, r5, r6, lr}
 8009e0c:	681d      	ldr	r5, [r3, #0]
 8009e0e:	4606      	mov	r6, r0
 8009e10:	460c      	mov	r4, r1
 8009e12:	b125      	cbz	r5, 8009e1e <__swsetup_r+0x16>
 8009e14:	69ab      	ldr	r3, [r5, #24]
 8009e16:	b913      	cbnz	r3, 8009e1e <__swsetup_r+0x16>
 8009e18:	4628      	mov	r0, r5
 8009e1a:	f000 fff9 	bl	800ae10 <__sinit>
 8009e1e:	4b2e      	ldr	r3, [pc, #184]	; (8009ed8 <__swsetup_r+0xd0>)
 8009e20:	429c      	cmp	r4, r3
 8009e22:	d10f      	bne.n	8009e44 <__swsetup_r+0x3c>
 8009e24:	686c      	ldr	r4, [r5, #4]
 8009e26:	89a3      	ldrh	r3, [r4, #12]
 8009e28:	f9b4 200c 	ldrsh.w	r2, [r4, #12]
 8009e2c:	0719      	lsls	r1, r3, #28
 8009e2e:	d42c      	bmi.n	8009e8a <__swsetup_r+0x82>
 8009e30:	06dd      	lsls	r5, r3, #27
 8009e32:	d411      	bmi.n	8009e58 <__swsetup_r+0x50>
 8009e34:	2309      	movs	r3, #9
 8009e36:	6033      	str	r3, [r6, #0]
 8009e38:	f042 0340 	orr.w	r3, r2, #64	; 0x40
 8009e3c:	81a3      	strh	r3, [r4, #12]
 8009e3e:	f04f 30ff 	mov.w	r0, #4294967295
 8009e42:	e03e      	b.n	8009ec2 <__swsetup_r+0xba>
 8009e44:	4b25      	ldr	r3, [pc, #148]	; (8009edc <__swsetup_r+0xd4>)
 8009e46:	429c      	cmp	r4, r3
 8009e48:	d101      	bne.n	8009e4e <__swsetup_r+0x46>
 8009e4a:	68ac      	ldr	r4, [r5, #8]
 8009e4c:	e7eb      	b.n	8009e26 <__swsetup_r+0x1e>
 8009e4e:	4b24      	ldr	r3, [pc, #144]	; (8009ee0 <__swsetup_r+0xd8>)
 8009e50:	429c      	cmp	r4, r3
 8009e52:	bf08      	it	eq
 8009e54:	68ec      	ldreq	r4, [r5, #12]
 8009e56:	e7e6      	b.n	8009e26 <__swsetup_r+0x1e>
 8009e58:	0758      	lsls	r0, r3, #29
 8009e5a:	d512      	bpl.n	8009e82 <__swsetup_r+0x7a>
 8009e5c:	6b61      	ldr	r1, [r4, #52]	; 0x34
 8009e5e:	b141      	cbz	r1, 8009e72 <__swsetup_r+0x6a>
 8009e60:	f104 0344 	add.w	r3, r4, #68	; 0x44
 8009e64:	4299      	cmp	r1, r3
 8009e66:	d002      	beq.n	8009e6e <__swsetup_r+0x66>
 8009e68:	4630      	mov	r0, r6
 8009e6a:	f001 fc7d 	bl	800b768 <_free_r>
 8009e6e:	2300      	movs	r3, #0
 8009e70:	6363      	str	r3, [r4, #52]	; 0x34
 8009e72:	89a3      	ldrh	r3, [r4, #12]
 8009e74:	f023 0324 	bic.w	r3, r3, #36	; 0x24
 8009e78:	81a3      	strh	r3, [r4, #12]
 8009e7a:	2300      	movs	r3, #0
 8009e7c:	6063      	str	r3, [r4, #4]
 8009e7e:	6923      	ldr	r3, [r4, #16]
 8009e80:	6023      	str	r3, [r4, #0]
 8009e82:	89a3      	ldrh	r3, [r4, #12]
 8009e84:	f043 0308 	orr.w	r3, r3, #8
 8009e88:	81a3      	strh	r3, [r4, #12]
 8009e8a:	6923      	ldr	r3, [r4, #16]
 8009e8c:	b94b      	cbnz	r3, 8009ea2 <__swsetup_r+0x9a>
 8009e8e:	89a3      	ldrh	r3, [r4, #12]
 8009e90:	f403 7320 	and.w	r3, r3, #640	; 0x280
 8009e94:	f5b3 7f00 	cmp.w	r3, #512	; 0x200
 8009e98:	d003      	beq.n	8009ea2 <__swsetup_r+0x9a>
 8009e9a:	4621      	mov	r1, r4
 8009e9c:	4630      	mov	r0, r6
 8009e9e:	f001 f881 	bl	800afa4 <__smakebuf_r>
 8009ea2:	89a0      	ldrh	r0, [r4, #12]
 8009ea4:	f9b4 200c 	ldrsh.w	r2, [r4, #12]
 8009ea8:	f010 0301 	ands.w	r3, r0, #1
 8009eac:	d00a      	beq.n	8009ec4 <__swsetup_r+0xbc>
 8009eae:	2300      	movs	r3, #0
 8009eb0:	60a3      	str	r3, [r4, #8]
 8009eb2:	6963      	ldr	r3, [r4, #20]
 8009eb4:	425b      	negs	r3, r3
 8009eb6:	61a3      	str	r3, [r4, #24]
 8009eb8:	6923      	ldr	r3, [r4, #16]
 8009eba:	b943      	cbnz	r3, 8009ece <__swsetup_r+0xc6>
 8009ebc:	f010 0080 	ands.w	r0, r0, #128	; 0x80
 8009ec0:	d1ba      	bne.n	8009e38 <__swsetup_r+0x30>
 8009ec2:	bd70      	pop	{r4, r5, r6, pc}
 8009ec4:	0781      	lsls	r1, r0, #30
 8009ec6:	bf58      	it	pl
 8009ec8:	6963      	ldrpl	r3, [r4, #20]
 8009eca:	60a3      	str	r3, [r4, #8]
 8009ecc:	e7f4      	b.n	8009eb8 <__swsetup_r+0xb0>
 8009ece:	2000      	movs	r0, #0
 8009ed0:	e7f7      	b.n	8009ec2 <__swsetup_r+0xba>
 8009ed2:	bf00      	nop
 8009ed4:	20000030 	.word	0x20000030
 8009ed8:	0800c5b0 	.word	0x0800c5b0
 8009edc:	0800c5d0 	.word	0x0800c5d0
 8009ee0:	0800c590 	.word	0x0800c590

08009ee4 <quorem>:
 8009ee4:	e92d 4ff7 	stmdb	sp!, {r0, r1, r2, r4, r5, r6, r7, r8, r9, sl, fp, lr}
 8009ee8:	6903      	ldr	r3, [r0, #16]
 8009eea:	690c      	ldr	r4, [r1, #16]
 8009eec:	42a3      	cmp	r3, r4
 8009eee:	4607      	mov	r7, r0
 8009ef0:	f2c0 8081 	blt.w	8009ff6 <quorem+0x112>
 8009ef4:	3c01      	subs	r4, #1
 8009ef6:	f101 0814 	add.w	r8, r1, #20
 8009efa:	f100 0514 	add.w	r5, r0, #20
 8009efe:	eb05 0384 	add.w	r3, r5, r4, lsl #2
 8009f02:	9301      	str	r3, [sp, #4]
 8009f04:	f858 3024 	ldr.w	r3, [r8, r4, lsl #2]
 8009f08:	f855 2024 	ldr.w	r2, [r5, r4, lsl #2]
 8009f0c:	3301      	adds	r3, #1
 8009f0e:	429a      	cmp	r2, r3
 8009f10:	ea4f 0b84 	mov.w	fp, r4, lsl #2
 8009f14:	eb08 0984 	add.w	r9, r8, r4, lsl #2
 8009f18:	fbb2 f6f3 	udiv	r6, r2, r3
 8009f1c:	d331      	bcc.n	8009f82 <quorem+0x9e>
 8009f1e:	f04f 0e00 	mov.w	lr, #0
 8009f22:	4640      	mov	r0, r8
 8009f24:	46ac      	mov	ip, r5
 8009f26:	46f2      	mov	sl, lr
 8009f28:	f850 2b04 	ldr.w	r2, [r0], #4
 8009f2c:	b293      	uxth	r3, r2
 8009f2e:	fb06 e303 	mla	r3, r6, r3, lr
 8009f32:	ea4f 4e13 	mov.w	lr, r3, lsr #16
 8009f36:	b29b      	uxth	r3, r3
 8009f38:	ebaa 0303 	sub.w	r3, sl, r3
 8009f3c:	f8dc a000 	ldr.w	sl, [ip]
 8009f40:	0c12      	lsrs	r2, r2, #16
 8009f42:	fa13 f38a 	uxtah	r3, r3, sl
 8009f46:	fb06 e202 	mla	r2, r6, r2, lr
 8009f4a:	9300      	str	r3, [sp, #0]
 8009f4c:	9b00      	ldr	r3, [sp, #0]
 8009f4e:	ea4f 4e12 	mov.w	lr, r2, lsr #16
 8009f52:	b292      	uxth	r2, r2
 8009f54:	ebc2 421a 	rsb	r2, r2, sl, lsr #16
 8009f58:	eb02 4223 	add.w	r2, r2, r3, asr #16
 8009f5c:	f8bd 3000 	ldrh.w	r3, [sp]
 8009f60:	4581      	cmp	r9, r0
 8009f62:	ea43 4302 	orr.w	r3, r3, r2, lsl #16
 8009f66:	f84c 3b04 	str.w	r3, [ip], #4
 8009f6a:	ea4f 4a22 	mov.w	sl, r2, asr #16
 8009f6e:	d2db      	bcs.n	8009f28 <quorem+0x44>
 8009f70:	f855 300b 	ldr.w	r3, [r5, fp]
 8009f74:	b92b      	cbnz	r3, 8009f82 <quorem+0x9e>
 8009f76:	9b01      	ldr	r3, [sp, #4]
 8009f78:	3b04      	subs	r3, #4
 8009f7a:	429d      	cmp	r5, r3
 8009f7c:	461a      	mov	r2, r3
 8009f7e:	d32e      	bcc.n	8009fde <quorem+0xfa>
 8009f80:	613c      	str	r4, [r7, #16]
 8009f82:	4638      	mov	r0, r7
 8009f84:	f001 fad8 	bl	800b538 <__mcmp>
 8009f88:	2800      	cmp	r0, #0
 8009f8a:	db24      	blt.n	8009fd6 <quorem+0xf2>
 8009f8c:	3601      	adds	r6, #1
 8009f8e:	4628      	mov	r0, r5
 8009f90:	f04f 0c00 	mov.w	ip, #0
 8009f94:	f858 2b04 	ldr.w	r2, [r8], #4
 8009f98:	f8d0 e000 	ldr.w	lr, [r0]
 8009f9c:	b293      	uxth	r3, r2
 8009f9e:	ebac 0303 	sub.w	r3, ip, r3
 8009fa2:	0c12      	lsrs	r2, r2, #16
 8009fa4:	fa13 f38e 	uxtah	r3, r3, lr
 8009fa8:	ebc2 421e 	rsb	r2, r2, lr, lsr #16
 8009fac:	eb02 4223 	add.w	r2, r2, r3, asr #16
 8009fb0:	b29b      	uxth	r3, r3
 8009fb2:	ea43 4302 	orr.w	r3, r3, r2, lsl #16
 8009fb6:	45c1      	cmp	r9, r8
 8009fb8:	f840 3b04 	str.w	r3, [r0], #4
 8009fbc:	ea4f 4c22 	mov.w	ip, r2, asr #16
 8009fc0:	d2e8      	bcs.n	8009f94 <quorem+0xb0>
 8009fc2:	f855 2024 	ldr.w	r2, [r5, r4, lsl #2]
 8009fc6:	eb05 0384 	add.w	r3, r5, r4, lsl #2
 8009fca:	b922      	cbnz	r2, 8009fd6 <quorem+0xf2>
 8009fcc:	3b04      	subs	r3, #4
 8009fce:	429d      	cmp	r5, r3
 8009fd0:	461a      	mov	r2, r3
 8009fd2:	d30a      	bcc.n	8009fea <quorem+0x106>
 8009fd4:	613c      	str	r4, [r7, #16]
 8009fd6:	4630      	mov	r0, r6
 8009fd8:	b003      	add	sp, #12
 8009fda:	e8bd 8ff0 	ldmia.w	sp!, {r4, r5, r6, r7, r8, r9, sl, fp, pc}
 8009fde:	6812      	ldr	r2, [r2, #0]
 8009fe0:	3b04      	subs	r3, #4
 8009fe2:	2a00      	cmp	r2, #0
 8009fe4:	d1cc      	bne.n	8009f80 <quorem+0x9c>
 8009fe6:	3c01      	subs	r4, #1
 8009fe8:	e7c7      	b.n	8009f7a <quorem+0x96>
 8009fea:	6812      	ldr	r2, [r2, #0]
 8009fec:	3b04      	subs	r3, #4
 8009fee:	2a00      	cmp	r2, #0
 8009ff0:	d1f0      	bne.n	8009fd4 <quorem+0xf0>
 8009ff2:	3c01      	subs	r4, #1
 8009ff4:	e7eb      	b.n	8009fce <quorem+0xea>
 8009ff6:	2000      	movs	r0, #0
 8009ff8:	e7ee      	b.n	8009fd8 <quorem+0xf4>
 8009ffa:	0000      	movs	r0, r0
 8009ffc:	0000      	movs	r0, r0
	...

0800a000 <_dtoa_r>:
 800a000:	e92d 4ff0 	stmdb	sp!, {r4, r5, r6, r7, r8, r9, sl, fp, lr}
 800a004:	ed2d 8b04 	vpush	{d8-d9}
 800a008:	ec57 6b10 	vmov	r6, r7, d0
 800a00c:	b093      	sub	sp, #76	; 0x4c
 800a00e:	6a45      	ldr	r5, [r0, #36]	; 0x24
 800a010:	f8dd 8080 	ldr.w	r8, [sp, #128]	; 0x80
 800a014:	9106      	str	r1, [sp, #24]
 800a016:	ee10 aa10 	vmov	sl, s0
 800a01a:	4604      	mov	r4, r0
 800a01c:	9209      	str	r2, [sp, #36]	; 0x24
 800a01e:	930c      	str	r3, [sp, #48]	; 0x30
 800a020:	46bb      	mov	fp, r7
 800a022:	b975      	cbnz	r5, 800a042 <_dtoa_r+0x42>
 800a024:	2010      	movs	r0, #16
 800a026:	f000 fffd 	bl	800b024 <malloc>
 800a02a:	4602      	mov	r2, r0
 800a02c:	6260      	str	r0, [r4, #36]	; 0x24
 800a02e:	b920      	cbnz	r0, 800a03a <_dtoa_r+0x3a>
 800a030:	4ba7      	ldr	r3, [pc, #668]	; (800a2d0 <_dtoa_r+0x2d0>)
 800a032:	21ea      	movs	r1, #234	; 0xea
 800a034:	48a7      	ldr	r0, [pc, #668]	; (800a2d4 <_dtoa_r+0x2d4>)
 800a036:	f001 fe37 	bl	800bca8 <__assert_func>
 800a03a:	e9c0 5501 	strd	r5, r5, [r0, #4]
 800a03e:	6005      	str	r5, [r0, #0]
 800a040:	60c5      	str	r5, [r0, #12]
 800a042:	6a63      	ldr	r3, [r4, #36]	; 0x24
 800a044:	6819      	ldr	r1, [r3, #0]
 800a046:	b151      	cbz	r1, 800a05e <_dtoa_r+0x5e>
 800a048:	685a      	ldr	r2, [r3, #4]
 800a04a:	604a      	str	r2, [r1, #4]
 800a04c:	2301      	movs	r3, #1
 800a04e:	4093      	lsls	r3, r2
 800a050:	608b      	str	r3, [r1, #8]
 800a052:	4620      	mov	r0, r4
 800a054:	f001 f82e 	bl	800b0b4 <_Bfree>
 800a058:	6a63      	ldr	r3, [r4, #36]	; 0x24
 800a05a:	2200      	movs	r2, #0
 800a05c:	601a      	str	r2, [r3, #0]
 800a05e:	1e3b      	subs	r3, r7, #0
 800a060:	bfaa      	itet	ge
 800a062:	2300      	movge	r3, #0
 800a064:	f023 4b00 	biclt.w	fp, r3, #2147483648	; 0x80000000
 800a068:	f8c8 3000 	strge.w	r3, [r8]
 800a06c:	4b9a      	ldr	r3, [pc, #616]	; (800a2d8 <_dtoa_r+0x2d8>)
 800a06e:	bfbc      	itt	lt
 800a070:	2201      	movlt	r2, #1
 800a072:	f8c8 2000 	strlt.w	r2, [r8]
 800a076:	ea33 030b 	bics.w	r3, r3, fp
 800a07a:	d11b      	bne.n	800a0b4 <_dtoa_r+0xb4>
 800a07c:	9a0c      	ldr	r2, [sp, #48]	; 0x30
 800a07e:	f242 730f 	movw	r3, #9999	; 0x270f
 800a082:	6013      	str	r3, [r2, #0]
 800a084:	f3cb 0313 	ubfx	r3, fp, #0, #20
 800a088:	4333      	orrs	r3, r6
 800a08a:	f000 8592 	beq.w	800abb2 <_dtoa_r+0xbb2>
 800a08e:	9b21      	ldr	r3, [sp, #132]	; 0x84
 800a090:	b963      	cbnz	r3, 800a0ac <_dtoa_r+0xac>
 800a092:	4b92      	ldr	r3, [pc, #584]	; (800a2dc <_dtoa_r+0x2dc>)
 800a094:	e022      	b.n	800a0dc <_dtoa_r+0xdc>
 800a096:	4b92      	ldr	r3, [pc, #584]	; (800a2e0 <_dtoa_r+0x2e0>)
 800a098:	9301      	str	r3, [sp, #4]
 800a09a:	3308      	adds	r3, #8
 800a09c:	9a21      	ldr	r2, [sp, #132]	; 0x84
 800a09e:	6013      	str	r3, [r2, #0]
 800a0a0:	9801      	ldr	r0, [sp, #4]
 800a0a2:	b013      	add	sp, #76	; 0x4c
 800a0a4:	ecbd 8b04 	vpop	{d8-d9}
 800a0a8:	e8bd 8ff0 	ldmia.w	sp!, {r4, r5, r6, r7, r8, r9, sl, fp, pc}
 800a0ac:	4b8b      	ldr	r3, [pc, #556]	; (800a2dc <_dtoa_r+0x2dc>)
 800a0ae:	9301      	str	r3, [sp, #4]
 800a0b0:	3303      	adds	r3, #3
 800a0b2:	e7f3      	b.n	800a09c <_dtoa_r+0x9c>
 800a0b4:	2200      	movs	r2, #0
 800a0b6:	2300      	movs	r3, #0
 800a0b8:	4650      	mov	r0, sl
 800a0ba:	4659      	mov	r1, fp
 800a0bc:	f7f6 fd2c 	bl	8000b18 <__aeabi_dcmpeq>
 800a0c0:	ec4b ab19 	vmov	d9, sl, fp
 800a0c4:	4680      	mov	r8, r0
 800a0c6:	b158      	cbz	r0, 800a0e0 <_dtoa_r+0xe0>
 800a0c8:	9a0c      	ldr	r2, [sp, #48]	; 0x30
 800a0ca:	2301      	movs	r3, #1
 800a0cc:	6013      	str	r3, [r2, #0]
 800a0ce:	9b21      	ldr	r3, [sp, #132]	; 0x84
 800a0d0:	2b00      	cmp	r3, #0
 800a0d2:	f000 856b 	beq.w	800abac <_dtoa_r+0xbac>
 800a0d6:	4883      	ldr	r0, [pc, #524]	; (800a2e4 <_dtoa_r+0x2e4>)
 800a0d8:	6018      	str	r0, [r3, #0]
 800a0da:	1e43      	subs	r3, r0, #1
 800a0dc:	9301      	str	r3, [sp, #4]
 800a0de:	e7df      	b.n	800a0a0 <_dtoa_r+0xa0>
 800a0e0:	ec4b ab10 	vmov	d0, sl, fp
 800a0e4:	aa10      	add	r2, sp, #64	; 0x40
 800a0e6:	a911      	add	r1, sp, #68	; 0x44
 800a0e8:	4620      	mov	r0, r4
 800a0ea:	f001 facb 	bl	800b684 <__d2b>
 800a0ee:	f3cb 550a 	ubfx	r5, fp, #20, #11
 800a0f2:	ee08 0a10 	vmov	s16, r0
 800a0f6:	2d00      	cmp	r5, #0
 800a0f8:	f000 8084 	beq.w	800a204 <_dtoa_r+0x204>
 800a0fc:	ee19 3a90 	vmov	r3, s19
 800a100:	f3c3 0313 	ubfx	r3, r3, #0, #20
 800a104:	f043 577f 	orr.w	r7, r3, #1069547520	; 0x3fc00000
 800a108:	4656      	mov	r6, sl
 800a10a:	f447 1740 	orr.w	r7, r7, #3145728	; 0x300000
 800a10e:	f2a5 35ff 	subw	r5, r5, #1023	; 0x3ff
 800a112:	f8cd 8038 	str.w	r8, [sp, #56]	; 0x38
 800a116:	4b74      	ldr	r3, [pc, #464]	; (800a2e8 <_dtoa_r+0x2e8>)
 800a118:	2200      	movs	r2, #0
 800a11a:	4630      	mov	r0, r6
 800a11c:	4639      	mov	r1, r7
 800a11e:	f7f6 f8db 	bl	80002d8 <__aeabi_dsub>
 800a122:	a365      	add	r3, pc, #404	; (adr r3, 800a2b8 <_dtoa_r+0x2b8>)
 800a124:	e9d3 2300 	ldrd	r2, r3, [r3]
 800a128:	f7f6 fa8e 	bl	8000648 <__aeabi_dmul>
 800a12c:	a364      	add	r3, pc, #400	; (adr r3, 800a2c0 <_dtoa_r+0x2c0>)
 800a12e:	e9d3 2300 	ldrd	r2, r3, [r3]
 800a132:	f7f6 f8d3 	bl	80002dc <__adddf3>
 800a136:	4606      	mov	r6, r0
 800a138:	4628      	mov	r0, r5
 800a13a:	460f      	mov	r7, r1
 800a13c:	f7f6 fa1a 	bl	8000574 <__aeabi_i2d>
 800a140:	a361      	add	r3, pc, #388	; (adr r3, 800a2c8 <_dtoa_r+0x2c8>)
 800a142:	e9d3 2300 	ldrd	r2, r3, [r3]
 800a146:	f7f6 fa7f 	bl	8000648 <__aeabi_dmul>
 800a14a:	4602      	mov	r2, r0
 800a14c:	460b      	mov	r3, r1
 800a14e:	4630      	mov	r0, r6
 800a150:	4639      	mov	r1, r7
 800a152:	f7f6 f8c3 	bl	80002dc <__adddf3>
 800a156:	4606      	mov	r6, r0
 800a158:	460f      	mov	r7, r1
 800a15a:	f7f6 fd25 	bl	8000ba8 <__aeabi_d2iz>
 800a15e:	2200      	movs	r2, #0
 800a160:	9000      	str	r0, [sp, #0]
 800a162:	2300      	movs	r3, #0
 800a164:	4630      	mov	r0, r6
 800a166:	4639      	mov	r1, r7
 800a168:	f7f6 fce0 	bl	8000b2c <__aeabi_dcmplt>
 800a16c:	b150      	cbz	r0, 800a184 <_dtoa_r+0x184>
 800a16e:	9800      	ldr	r0, [sp, #0]
 800a170:	f7f6 fa00 	bl	8000574 <__aeabi_i2d>
 800a174:	4632      	mov	r2, r6
 800a176:	463b      	mov	r3, r7
 800a178:	f7f6 fcce 	bl	8000b18 <__aeabi_dcmpeq>
 800a17c:	b910      	cbnz	r0, 800a184 <_dtoa_r+0x184>
 800a17e:	9b00      	ldr	r3, [sp, #0]
 800a180:	3b01      	subs	r3, #1
 800a182:	9300      	str	r3, [sp, #0]
 800a184:	9b00      	ldr	r3, [sp, #0]
 800a186:	2b16      	cmp	r3, #22
 800a188:	d85a      	bhi.n	800a240 <_dtoa_r+0x240>
 800a18a:	9a00      	ldr	r2, [sp, #0]
 800a18c:	4b57      	ldr	r3, [pc, #348]	; (800a2ec <_dtoa_r+0x2ec>)
 800a18e:	eb03 03c2 	add.w	r3, r3, r2, lsl #3
 800a192:	e9d3 2300 	ldrd	r2, r3, [r3]
 800a196:	ec51 0b19 	vmov	r0, r1, d9
 800a19a:	f7f6 fcc7 	bl	8000b2c <__aeabi_dcmplt>
 800a19e:	2800      	cmp	r0, #0
 800a1a0:	d050      	beq.n	800a244 <_dtoa_r+0x244>
 800a1a2:	9b00      	ldr	r3, [sp, #0]
 800a1a4:	3b01      	subs	r3, #1
 800a1a6:	9300      	str	r3, [sp, #0]
 800a1a8:	2300      	movs	r3, #0
 800a1aa:	930b      	str	r3, [sp, #44]	; 0x2c
 800a1ac:	9b10      	ldr	r3, [sp, #64]	; 0x40
 800a1ae:	1b5d      	subs	r5, r3, r5
 800a1b0:	1e6b      	subs	r3, r5, #1
 800a1b2:	9305      	str	r3, [sp, #20]
 800a1b4:	bf45      	ittet	mi
 800a1b6:	f1c5 0301 	rsbmi	r3, r5, #1
 800a1ba:	9304      	strmi	r3, [sp, #16]
 800a1bc:	2300      	movpl	r3, #0
 800a1be:	2300      	movmi	r3, #0
 800a1c0:	bf4c      	ite	mi
 800a1c2:	9305      	strmi	r3, [sp, #20]
 800a1c4:	9304      	strpl	r3, [sp, #16]
 800a1c6:	9b00      	ldr	r3, [sp, #0]
 800a1c8:	2b00      	cmp	r3, #0
 800a1ca:	db3d      	blt.n	800a248 <_dtoa_r+0x248>
 800a1cc:	9b05      	ldr	r3, [sp, #20]
 800a1ce:	9a00      	ldr	r2, [sp, #0]
 800a1d0:	920a      	str	r2, [sp, #40]	; 0x28
 800a1d2:	4413      	add	r3, r2
 800a1d4:	9305      	str	r3, [sp, #20]
 800a1d6:	2300      	movs	r3, #0
 800a1d8:	9307      	str	r3, [sp, #28]
 800a1da:	9b06      	ldr	r3, [sp, #24]
 800a1dc:	2b09      	cmp	r3, #9
 800a1de:	f200 8089 	bhi.w	800a2f4 <_dtoa_r+0x2f4>
 800a1e2:	2b05      	cmp	r3, #5
 800a1e4:	bfc4      	itt	gt
 800a1e6:	3b04      	subgt	r3, #4
 800a1e8:	9306      	strgt	r3, [sp, #24]
 800a1ea:	9b06      	ldr	r3, [sp, #24]
 800a1ec:	f1a3 0302 	sub.w	r3, r3, #2
 800a1f0:	bfcc      	ite	gt
 800a1f2:	2500      	movgt	r5, #0
 800a1f4:	2501      	movle	r5, #1
 800a1f6:	2b03      	cmp	r3, #3
 800a1f8:	f200 8087 	bhi.w	800a30a <_dtoa_r+0x30a>
 800a1fc:	e8df f003 	tbb	[pc, r3]
 800a200:	59383a2d 	.word	0x59383a2d
 800a204:	e9dd 5310 	ldrd	r5, r3, [sp, #64]	; 0x40
 800a208:	441d      	add	r5, r3
 800a20a:	f205 4332 	addw	r3, r5, #1074	; 0x432
 800a20e:	2b20      	cmp	r3, #32
 800a210:	bfc1      	itttt	gt
 800a212:	f1c3 0340 	rsbgt	r3, r3, #64	; 0x40
 800a216:	f205 4012 	addwgt	r0, r5, #1042	; 0x412
 800a21a:	fa0b f303 	lslgt.w	r3, fp, r3
 800a21e:	fa26 f000 	lsrgt.w	r0, r6, r0
 800a222:	bfda      	itte	le
 800a224:	f1c3 0320 	rsble	r3, r3, #32
 800a228:	fa06 f003 	lslle.w	r0, r6, r3
 800a22c:	4318      	orrgt	r0, r3
 800a22e:	f7f6 f991 	bl	8000554 <__aeabi_ui2d>
 800a232:	2301      	movs	r3, #1
 800a234:	4606      	mov	r6, r0
 800a236:	f1a1 77f8 	sub.w	r7, r1, #32505856	; 0x1f00000
 800a23a:	3d01      	subs	r5, #1
 800a23c:	930e      	str	r3, [sp, #56]	; 0x38
 800a23e:	e76a      	b.n	800a116 <_dtoa_r+0x116>
 800a240:	2301      	movs	r3, #1
 800a242:	e7b2      	b.n	800a1aa <_dtoa_r+0x1aa>
 800a244:	900b      	str	r0, [sp, #44]	; 0x2c
 800a246:	e7b1      	b.n	800a1ac <_dtoa_r+0x1ac>
 800a248:	9b04      	ldr	r3, [sp, #16]
 800a24a:	9a00      	ldr	r2, [sp, #0]
 800a24c:	1a9b      	subs	r3, r3, r2
 800a24e:	9304      	str	r3, [sp, #16]
 800a250:	4253      	negs	r3, r2
 800a252:	9307      	str	r3, [sp, #28]
 800a254:	2300      	movs	r3, #0
 800a256:	930a      	str	r3, [sp, #40]	; 0x28
 800a258:	e7bf      	b.n	800a1da <_dtoa_r+0x1da>
 800a25a:	2300      	movs	r3, #0
 800a25c:	9308      	str	r3, [sp, #32]
 800a25e:	9b09      	ldr	r3, [sp, #36]	; 0x24
 800a260:	2b00      	cmp	r3, #0
 800a262:	dc55      	bgt.n	800a310 <_dtoa_r+0x310>
 800a264:	2301      	movs	r3, #1
 800a266:	e9cd 3302 	strd	r3, r3, [sp, #8]
 800a26a:	461a      	mov	r2, r3
 800a26c:	9209      	str	r2, [sp, #36]	; 0x24
 800a26e:	e00c      	b.n	800a28a <_dtoa_r+0x28a>
 800a270:	2301      	movs	r3, #1
 800a272:	e7f3      	b.n	800a25c <_dtoa_r+0x25c>
 800a274:	2300      	movs	r3, #0
 800a276:	9a09      	ldr	r2, [sp, #36]	; 0x24
 800a278:	9308      	str	r3, [sp, #32]
 800a27a:	9b00      	ldr	r3, [sp, #0]
 800a27c:	4413      	add	r3, r2
 800a27e:	9302      	str	r3, [sp, #8]
 800a280:	3301      	adds	r3, #1
 800a282:	2b01      	cmp	r3, #1
 800a284:	9303      	str	r3, [sp, #12]
 800a286:	bfb8      	it	lt
 800a288:	2301      	movlt	r3, #1
 800a28a:	6a60      	ldr	r0, [r4, #36]	; 0x24
 800a28c:	2200      	movs	r2, #0
 800a28e:	6042      	str	r2, [r0, #4]
 800a290:	2204      	movs	r2, #4
 800a292:	f102 0614 	add.w	r6, r2, #20
 800a296:	429e      	cmp	r6, r3
 800a298:	6841      	ldr	r1, [r0, #4]
 800a29a:	d93d      	bls.n	800a318 <_dtoa_r+0x318>
 800a29c:	4620      	mov	r0, r4
 800a29e:	f000 fec9 	bl	800b034 <_Balloc>
 800a2a2:	9001      	str	r0, [sp, #4]
 800a2a4:	2800      	cmp	r0, #0
 800a2a6:	d13b      	bne.n	800a320 <_dtoa_r+0x320>
 800a2a8:	4b11      	ldr	r3, [pc, #68]	; (800a2f0 <_dtoa_r+0x2f0>)
 800a2aa:	4602      	mov	r2, r0
 800a2ac:	f44f 71d5 	mov.w	r1, #426	; 0x1aa
 800a2b0:	e6c0      	b.n	800a034 <_dtoa_r+0x34>
 800a2b2:	2301      	movs	r3, #1
 800a2b4:	e7df      	b.n	800a276 <_dtoa_r+0x276>
 800a2b6:	bf00      	nop
 800a2b8:	636f4361 	.word	0x636f4361
 800a2bc:	3fd287a7 	.word	0x3fd287a7
 800a2c0:	8b60c8b3 	.word	0x8b60c8b3
 800a2c4:	3fc68a28 	.word	0x3fc68a28
 800a2c8:	509f79fb 	.word	0x509f79fb
 800a2cc:	3fd34413 	.word	0x3fd34413
 800a2d0:	0800c50d 	.word	0x0800c50d
 800a2d4:	0800c524 	.word	0x0800c524
 800a2d8:	7ff00000 	.word	0x7ff00000
 800a2dc:	0800c509 	.word	0x0800c509
 800a2e0:	0800c500 	.word	0x0800c500
 800a2e4:	0800c4dd 	.word	0x0800c4dd
 800a2e8:	3ff80000 	.word	0x3ff80000
 800a2ec:	0800c678 	.word	0x0800c678
 800a2f0:	0800c57f 	.word	0x0800c57f
 800a2f4:	2501      	movs	r5, #1
 800a2f6:	2300      	movs	r3, #0
 800a2f8:	9306      	str	r3, [sp, #24]
 800a2fa:	9508      	str	r5, [sp, #32]
 800a2fc:	f04f 33ff 	mov.w	r3, #4294967295
 800a300:	e9cd 3302 	strd	r3, r3, [sp, #8]
 800a304:	2200      	movs	r2, #0
 800a306:	2312      	movs	r3, #18
 800a308:	e7b0      	b.n	800a26c <_dtoa_r+0x26c>
 800a30a:	2301      	movs	r3, #1
 800a30c:	9308      	str	r3, [sp, #32]
 800a30e:	e7f5      	b.n	800a2fc <_dtoa_r+0x2fc>
 800a310:	9b09      	ldr	r3, [sp, #36]	; 0x24
 800a312:	e9cd 3302 	strd	r3, r3, [sp, #8]
 800a316:	e7b8      	b.n	800a28a <_dtoa_r+0x28a>
 800a318:	3101      	adds	r1, #1
 800a31a:	6041      	str	r1, [r0, #4]
 800a31c:	0052      	lsls	r2, r2, #1
 800a31e:	e7b8      	b.n	800a292 <_dtoa_r+0x292>
 800a320:	6a63      	ldr	r3, [r4, #36]	; 0x24
 800a322:	9a01      	ldr	r2, [sp, #4]
 800a324:	601a      	str	r2, [r3, #0]
 800a326:	9b03      	ldr	r3, [sp, #12]
 800a328:	2b0e      	cmp	r3, #14
 800a32a:	f200 809d 	bhi.w	800a468 <_dtoa_r+0x468>
 800a32e:	2d00      	cmp	r5, #0
 800a330:	f000 809a 	beq.w	800a468 <_dtoa_r+0x468>
 800a334:	9b00      	ldr	r3, [sp, #0]
 800a336:	2b00      	cmp	r3, #0
 800a338:	dd32      	ble.n	800a3a0 <_dtoa_r+0x3a0>
 800a33a:	4ab7      	ldr	r2, [pc, #732]	; (800a618 <_dtoa_r+0x618>)
 800a33c:	f003 030f 	and.w	r3, r3, #15
 800a340:	eb02 03c3 	add.w	r3, r2, r3, lsl #3
 800a344:	e9d3 8900 	ldrd	r8, r9, [r3]
 800a348:	9b00      	ldr	r3, [sp, #0]
 800a34a:	05d8      	lsls	r0, r3, #23
 800a34c:	ea4f 1723 	mov.w	r7, r3, asr #4
 800a350:	d516      	bpl.n	800a380 <_dtoa_r+0x380>
 800a352:	4bb2      	ldr	r3, [pc, #712]	; (800a61c <_dtoa_r+0x61c>)
 800a354:	ec51 0b19 	vmov	r0, r1, d9
 800a358:	e9d3 2308 	ldrd	r2, r3, [r3, #32]
 800a35c:	f7f6 fa9e 	bl	800089c <__aeabi_ddiv>
 800a360:	f007 070f 	and.w	r7, r7, #15
 800a364:	4682      	mov	sl, r0
 800a366:	468b      	mov	fp, r1
 800a368:	2503      	movs	r5, #3
 800a36a:	4eac      	ldr	r6, [pc, #688]	; (800a61c <_dtoa_r+0x61c>)
 800a36c:	b957      	cbnz	r7, 800a384 <_dtoa_r+0x384>
 800a36e:	4642      	mov	r2, r8
 800a370:	464b      	mov	r3, r9
 800a372:	4650      	mov	r0, sl
 800a374:	4659      	mov	r1, fp
 800a376:	f7f6 fa91 	bl	800089c <__aeabi_ddiv>
 800a37a:	4682      	mov	sl, r0
 800a37c:	468b      	mov	fp, r1
 800a37e:	e028      	b.n	800a3d2 <_dtoa_r+0x3d2>
 800a380:	2502      	movs	r5, #2
 800a382:	e7f2      	b.n	800a36a <_dtoa_r+0x36a>
 800a384:	07f9      	lsls	r1, r7, #31
 800a386:	d508      	bpl.n	800a39a <_dtoa_r+0x39a>
 800a388:	4640      	mov	r0, r8
 800a38a:	4649      	mov	r1, r9
 800a38c:	e9d6 2300 	ldrd	r2, r3, [r6]
 800a390:	f7f6 f95a 	bl	8000648 <__aeabi_dmul>
 800a394:	3501      	adds	r5, #1
 800a396:	4680      	mov	r8, r0
 800a398:	4689      	mov	r9, r1
 800a39a:	107f      	asrs	r7, r7, #1
 800a39c:	3608      	adds	r6, #8
 800a39e:	e7e5      	b.n	800a36c <_dtoa_r+0x36c>
 800a3a0:	f000 809b 	beq.w	800a4da <_dtoa_r+0x4da>
 800a3a4:	9b00      	ldr	r3, [sp, #0]
 800a3a6:	4f9d      	ldr	r7, [pc, #628]	; (800a61c <_dtoa_r+0x61c>)
 800a3a8:	425e      	negs	r6, r3
 800a3aa:	4b9b      	ldr	r3, [pc, #620]	; (800a618 <_dtoa_r+0x618>)
 800a3ac:	f006 020f 	and.w	r2, r6, #15
 800a3b0:	eb03 03c2 	add.w	r3, r3, r2, lsl #3
 800a3b4:	e9d3 2300 	ldrd	r2, r3, [r3]
 800a3b8:	ec51 0b19 	vmov	r0, r1, d9
 800a3bc:	f7f6 f944 	bl	8000648 <__aeabi_dmul>
 800a3c0:	1136      	asrs	r6, r6, #4
 800a3c2:	4682      	mov	sl, r0
 800a3c4:	468b      	mov	fp, r1
 800a3c6:	2300      	movs	r3, #0
 800a3c8:	2502      	movs	r5, #2
 800a3ca:	2e00      	cmp	r6, #0
 800a3cc:	d17a      	bne.n	800a4c4 <_dtoa_r+0x4c4>
 800a3ce:	2b00      	cmp	r3, #0
 800a3d0:	d1d3      	bne.n	800a37a <_dtoa_r+0x37a>
 800a3d2:	9b0b      	ldr	r3, [sp, #44]	; 0x2c
 800a3d4:	2b00      	cmp	r3, #0
 800a3d6:	f000 8082 	beq.w	800a4de <_dtoa_r+0x4de>
 800a3da:	4b91      	ldr	r3, [pc, #580]	; (800a620 <_dtoa_r+0x620>)
 800a3dc:	2200      	movs	r2, #0
 800a3de:	4650      	mov	r0, sl
 800a3e0:	4659      	mov	r1, fp
 800a3e2:	f7f6 fba3 	bl	8000b2c <__aeabi_dcmplt>
 800a3e6:	2800      	cmp	r0, #0
 800a3e8:	d079      	beq.n	800a4de <_dtoa_r+0x4de>
 800a3ea:	9b03      	ldr	r3, [sp, #12]
 800a3ec:	2b00      	cmp	r3, #0
 800a3ee:	d076      	beq.n	800a4de <_dtoa_r+0x4de>
 800a3f0:	9b02      	ldr	r3, [sp, #8]
 800a3f2:	2b00      	cmp	r3, #0
 800a3f4:	dd36      	ble.n	800a464 <_dtoa_r+0x464>
 800a3f6:	9b00      	ldr	r3, [sp, #0]
 800a3f8:	4650      	mov	r0, sl
 800a3fa:	4659      	mov	r1, fp
 800a3fc:	1e5f      	subs	r7, r3, #1
 800a3fe:	2200      	movs	r2, #0
 800a400:	4b88      	ldr	r3, [pc, #544]	; (800a624 <_dtoa_r+0x624>)
 800a402:	f7f6 f921 	bl	8000648 <__aeabi_dmul>
 800a406:	9e02      	ldr	r6, [sp, #8]
 800a408:	4682      	mov	sl, r0
 800a40a:	468b      	mov	fp, r1
 800a40c:	3501      	adds	r5, #1
 800a40e:	4628      	mov	r0, r5
 800a410:	f7f6 f8b0 	bl	8000574 <__aeabi_i2d>
 800a414:	4652      	mov	r2, sl
 800a416:	465b      	mov	r3, fp
 800a418:	f7f6 f916 	bl	8000648 <__aeabi_dmul>
 800a41c:	4b82      	ldr	r3, [pc, #520]	; (800a628 <_dtoa_r+0x628>)
 800a41e:	2200      	movs	r2, #0
 800a420:	f7f5 ff5c 	bl	80002dc <__adddf3>
 800a424:	46d0      	mov	r8, sl
 800a426:	46d9      	mov	r9, fp
 800a428:	4682      	mov	sl, r0
 800a42a:	f1a1 7b50 	sub.w	fp, r1, #54525952	; 0x3400000
 800a42e:	2e00      	cmp	r6, #0
 800a430:	d158      	bne.n	800a4e4 <_dtoa_r+0x4e4>
 800a432:	4b7e      	ldr	r3, [pc, #504]	; (800a62c <_dtoa_r+0x62c>)
 800a434:	2200      	movs	r2, #0
 800a436:	4640      	mov	r0, r8
 800a438:	4649      	mov	r1, r9
 800a43a:	f7f5 ff4d 	bl	80002d8 <__aeabi_dsub>
 800a43e:	4652      	mov	r2, sl
 800a440:	465b      	mov	r3, fp
 800a442:	4680      	mov	r8, r0
 800a444:	4689      	mov	r9, r1
 800a446:	f7f6 fb8f 	bl	8000b68 <__aeabi_dcmpgt>
 800a44a:	2800      	cmp	r0, #0
 800a44c:	f040 8295 	bne.w	800a97a <_dtoa_r+0x97a>
 800a450:	4652      	mov	r2, sl
 800a452:	f10b 4300 	add.w	r3, fp, #2147483648	; 0x80000000
 800a456:	4640      	mov	r0, r8
 800a458:	4649      	mov	r1, r9
 800a45a:	f7f6 fb67 	bl	8000b2c <__aeabi_dcmplt>
 800a45e:	2800      	cmp	r0, #0
 800a460:	f040 8289 	bne.w	800a976 <_dtoa_r+0x976>
 800a464:	ec5b ab19 	vmov	sl, fp, d9
 800a468:	9b11      	ldr	r3, [sp, #68]	; 0x44
 800a46a:	2b00      	cmp	r3, #0
 800a46c:	f2c0 8148 	blt.w	800a700 <_dtoa_r+0x700>
 800a470:	9a00      	ldr	r2, [sp, #0]
 800a472:	2a0e      	cmp	r2, #14
 800a474:	f300 8144 	bgt.w	800a700 <_dtoa_r+0x700>
 800a478:	4b67      	ldr	r3, [pc, #412]	; (800a618 <_dtoa_r+0x618>)
 800a47a:	eb03 03c2 	add.w	r3, r3, r2, lsl #3
 800a47e:	e9d3 8900 	ldrd	r8, r9, [r3]
 800a482:	9b09      	ldr	r3, [sp, #36]	; 0x24
 800a484:	2b00      	cmp	r3, #0
 800a486:	f280 80d5 	bge.w	800a634 <_dtoa_r+0x634>
 800a48a:	9b03      	ldr	r3, [sp, #12]
 800a48c:	2b00      	cmp	r3, #0
 800a48e:	f300 80d1 	bgt.w	800a634 <_dtoa_r+0x634>
 800a492:	f040 826f 	bne.w	800a974 <_dtoa_r+0x974>
 800a496:	4b65      	ldr	r3, [pc, #404]	; (800a62c <_dtoa_r+0x62c>)
 800a498:	2200      	movs	r2, #0
 800a49a:	4640      	mov	r0, r8
 800a49c:	4649      	mov	r1, r9
 800a49e:	f7f6 f8d3 	bl	8000648 <__aeabi_dmul>
 800a4a2:	4652      	mov	r2, sl
 800a4a4:	465b      	mov	r3, fp
 800a4a6:	f7f6 fb55 	bl	8000b54 <__aeabi_dcmpge>
 800a4aa:	9e03      	ldr	r6, [sp, #12]
 800a4ac:	4637      	mov	r7, r6
 800a4ae:	2800      	cmp	r0, #0
 800a4b0:	f040 8245 	bne.w	800a93e <_dtoa_r+0x93e>
 800a4b4:	9d01      	ldr	r5, [sp, #4]
 800a4b6:	2331      	movs	r3, #49	; 0x31
 800a4b8:	f805 3b01 	strb.w	r3, [r5], #1
 800a4bc:	9b00      	ldr	r3, [sp, #0]
 800a4be:	3301      	adds	r3, #1
 800a4c0:	9300      	str	r3, [sp, #0]
 800a4c2:	e240      	b.n	800a946 <_dtoa_r+0x946>
 800a4c4:	07f2      	lsls	r2, r6, #31
 800a4c6:	d505      	bpl.n	800a4d4 <_dtoa_r+0x4d4>
 800a4c8:	e9d7 2300 	ldrd	r2, r3, [r7]
 800a4cc:	f7f6 f8bc 	bl	8000648 <__aeabi_dmul>
 800a4d0:	3501      	adds	r5, #1
 800a4d2:	2301      	movs	r3, #1
 800a4d4:	1076      	asrs	r6, r6, #1
 800a4d6:	3708      	adds	r7, #8
 800a4d8:	e777      	b.n	800a3ca <_dtoa_r+0x3ca>
 800a4da:	2502      	movs	r5, #2
 800a4dc:	e779      	b.n	800a3d2 <_dtoa_r+0x3d2>
 800a4de:	9f00      	ldr	r7, [sp, #0]
 800a4e0:	9e03      	ldr	r6, [sp, #12]
 800a4e2:	e794      	b.n	800a40e <_dtoa_r+0x40e>
 800a4e4:	9901      	ldr	r1, [sp, #4]
 800a4e6:	4b4c      	ldr	r3, [pc, #304]	; (800a618 <_dtoa_r+0x618>)
 800a4e8:	4431      	add	r1, r6
 800a4ea:	910d      	str	r1, [sp, #52]	; 0x34
 800a4ec:	9908      	ldr	r1, [sp, #32]
 800a4ee:	eb03 03c6 	add.w	r3, r3, r6, lsl #3
 800a4f2:	e953 2302 	ldrd	r2, r3, [r3, #-8]
 800a4f6:	2900      	cmp	r1, #0
 800a4f8:	d043      	beq.n	800a582 <_dtoa_r+0x582>
 800a4fa:	494d      	ldr	r1, [pc, #308]	; (800a630 <_dtoa_r+0x630>)
 800a4fc:	2000      	movs	r0, #0
 800a4fe:	f7f6 f9cd 	bl	800089c <__aeabi_ddiv>
 800a502:	4652      	mov	r2, sl
 800a504:	465b      	mov	r3, fp
 800a506:	f7f5 fee7 	bl	80002d8 <__aeabi_dsub>
 800a50a:	9d01      	ldr	r5, [sp, #4]
 800a50c:	4682      	mov	sl, r0
 800a50e:	468b      	mov	fp, r1
 800a510:	4649      	mov	r1, r9
 800a512:	4640      	mov	r0, r8
 800a514:	f7f6 fb48 	bl	8000ba8 <__aeabi_d2iz>
 800a518:	4606      	mov	r6, r0
 800a51a:	f7f6 f82b 	bl	8000574 <__aeabi_i2d>
 800a51e:	4602      	mov	r2, r0
 800a520:	460b      	mov	r3, r1
 800a522:	4640      	mov	r0, r8
 800a524:	4649      	mov	r1, r9
 800a526:	f7f5 fed7 	bl	80002d8 <__aeabi_dsub>
 800a52a:	3630      	adds	r6, #48	; 0x30
 800a52c:	f805 6b01 	strb.w	r6, [r5], #1
 800a530:	4652      	mov	r2, sl
 800a532:	465b      	mov	r3, fp
 800a534:	4680      	mov	r8, r0
 800a536:	4689      	mov	r9, r1
 800a538:	f7f6 faf8 	bl	8000b2c <__aeabi_dcmplt>
 800a53c:	2800      	cmp	r0, #0
 800a53e:	d163      	bne.n	800a608 <_dtoa_r+0x608>
 800a540:	4642      	mov	r2, r8
 800a542:	464b      	mov	r3, r9
 800a544:	4936      	ldr	r1, [pc, #216]	; (800a620 <_dtoa_r+0x620>)
 800a546:	2000      	movs	r0, #0
 800a548:	f7f5 fec6 	bl	80002d8 <__aeabi_dsub>
 800a54c:	4652      	mov	r2, sl
 800a54e:	465b      	mov	r3, fp
 800a550:	f7f6 faec 	bl	8000b2c <__aeabi_dcmplt>
 800a554:	2800      	cmp	r0, #0
 800a556:	f040 80b5 	bne.w	800a6c4 <_dtoa_r+0x6c4>
 800a55a:	9b0d      	ldr	r3, [sp, #52]	; 0x34
 800a55c:	429d      	cmp	r5, r3
 800a55e:	d081      	beq.n	800a464 <_dtoa_r+0x464>
 800a560:	4b30      	ldr	r3, [pc, #192]	; (800a624 <_dtoa_r+0x624>)
 800a562:	2200      	movs	r2, #0
 800a564:	4650      	mov	r0, sl
 800a566:	4659      	mov	r1, fp
 800a568:	f7f6 f86e 	bl	8000648 <__aeabi_dmul>
 800a56c:	4b2d      	ldr	r3, [pc, #180]	; (800a624 <_dtoa_r+0x624>)
 800a56e:	4682      	mov	sl, r0
 800a570:	468b      	mov	fp, r1
 800a572:	4640      	mov	r0, r8
 800a574:	4649      	mov	r1, r9
 800a576:	2200      	movs	r2, #0
 800a578:	f7f6 f866 	bl	8000648 <__aeabi_dmul>
 800a57c:	4680      	mov	r8, r0
 800a57e:	4689      	mov	r9, r1
 800a580:	e7c6      	b.n	800a510 <_dtoa_r+0x510>
 800a582:	4650      	mov	r0, sl
 800a584:	4659      	mov	r1, fp
 800a586:	f7f6 f85f 	bl	8000648 <__aeabi_dmul>
 800a58a:	9b0d      	ldr	r3, [sp, #52]	; 0x34
 800a58c:	9d01      	ldr	r5, [sp, #4]
 800a58e:	930f      	str	r3, [sp, #60]	; 0x3c
 800a590:	4682      	mov	sl, r0
 800a592:	468b      	mov	fp, r1
 800a594:	4649      	mov	r1, r9
 800a596:	4640      	mov	r0, r8
 800a598:	f7f6 fb06 	bl	8000ba8 <__aeabi_d2iz>
 800a59c:	4606      	mov	r6, r0
 800a59e:	f7f5 ffe9 	bl	8000574 <__aeabi_i2d>
 800a5a2:	3630      	adds	r6, #48	; 0x30
 800a5a4:	4602      	mov	r2, r0
 800a5a6:	460b      	mov	r3, r1
 800a5a8:	4640      	mov	r0, r8
 800a5aa:	4649      	mov	r1, r9
 800a5ac:	f7f5 fe94 	bl	80002d8 <__aeabi_dsub>
 800a5b0:	f805 6b01 	strb.w	r6, [r5], #1
 800a5b4:	9b0d      	ldr	r3, [sp, #52]	; 0x34
 800a5b6:	429d      	cmp	r5, r3
 800a5b8:	4680      	mov	r8, r0
 800a5ba:	4689      	mov	r9, r1
 800a5bc:	f04f 0200 	mov.w	r2, #0
 800a5c0:	d124      	bne.n	800a60c <_dtoa_r+0x60c>
 800a5c2:	4b1b      	ldr	r3, [pc, #108]	; (800a630 <_dtoa_r+0x630>)
 800a5c4:	4650      	mov	r0, sl
 800a5c6:	4659      	mov	r1, fp
 800a5c8:	f7f5 fe88 	bl	80002dc <__adddf3>
 800a5cc:	4602      	mov	r2, r0
 800a5ce:	460b      	mov	r3, r1
 800a5d0:	4640      	mov	r0, r8
 800a5d2:	4649      	mov	r1, r9
 800a5d4:	f7f6 fac8 	bl	8000b68 <__aeabi_dcmpgt>
 800a5d8:	2800      	cmp	r0, #0
 800a5da:	d173      	bne.n	800a6c4 <_dtoa_r+0x6c4>
 800a5dc:	4652      	mov	r2, sl
 800a5de:	465b      	mov	r3, fp
 800a5e0:	4913      	ldr	r1, [pc, #76]	; (800a630 <_dtoa_r+0x630>)
 800a5e2:	2000      	movs	r0, #0
 800a5e4:	f7f5 fe78 	bl	80002d8 <__aeabi_dsub>
 800a5e8:	4602      	mov	r2, r0
 800a5ea:	460b      	mov	r3, r1
 800a5ec:	4640      	mov	r0, r8
 800a5ee:	4649      	mov	r1, r9
 800a5f0:	f7f6 fa9c 	bl	8000b2c <__aeabi_dcmplt>
 800a5f4:	2800      	cmp	r0, #0
 800a5f6:	f43f af35 	beq.w	800a464 <_dtoa_r+0x464>
 800a5fa:	9d0f      	ldr	r5, [sp, #60]	; 0x3c
 800a5fc:	1e6b      	subs	r3, r5, #1
 800a5fe:	930f      	str	r3, [sp, #60]	; 0x3c
 800a600:	f815 3c01 	ldrb.w	r3, [r5, #-1]
 800a604:	2b30      	cmp	r3, #48	; 0x30
 800a606:	d0f8      	beq.n	800a5fa <_dtoa_r+0x5fa>
 800a608:	9700      	str	r7, [sp, #0]
 800a60a:	e049      	b.n	800a6a0 <_dtoa_r+0x6a0>
 800a60c:	4b05      	ldr	r3, [pc, #20]	; (800a624 <_dtoa_r+0x624>)
 800a60e:	f7f6 f81b 	bl	8000648 <__aeabi_dmul>
 800a612:	4680      	mov	r8, r0
 800a614:	4689      	mov	r9, r1
 800a616:	e7bd      	b.n	800a594 <_dtoa_r+0x594>
 800a618:	0800c678 	.word	0x0800c678
 800a61c:	0800c650 	.word	0x0800c650
 800a620:	3ff00000 	.word	0x3ff00000
 800a624:	40240000 	.word	0x40240000
 800a628:	401c0000 	.word	0x401c0000
 800a62c:	40140000 	.word	0x40140000
 800a630:	3fe00000 	.word	0x3fe00000
 800a634:	9d01      	ldr	r5, [sp, #4]
 800a636:	4656      	mov	r6, sl
 800a638:	465f      	mov	r7, fp
 800a63a:	4642      	mov	r2, r8
 800a63c:	464b      	mov	r3, r9
 800a63e:	4630      	mov	r0, r6
 800a640:	4639      	mov	r1, r7
 800a642:	f7f6 f92b 	bl	800089c <__aeabi_ddiv>
 800a646:	f7f6 faaf 	bl	8000ba8 <__aeabi_d2iz>
 800a64a:	4682      	mov	sl, r0
 800a64c:	f7f5 ff92 	bl	8000574 <__aeabi_i2d>
 800a650:	4642      	mov	r2, r8
 800a652:	464b      	mov	r3, r9
 800a654:	f7f5 fff8 	bl	8000648 <__aeabi_dmul>
 800a658:	4602      	mov	r2, r0
 800a65a:	460b      	mov	r3, r1
 800a65c:	4630      	mov	r0, r6
 800a65e:	4639      	mov	r1, r7
 800a660:	f10a 0630 	add.w	r6, sl, #48	; 0x30
 800a664:	f7f5 fe38 	bl	80002d8 <__aeabi_dsub>
 800a668:	f805 6b01 	strb.w	r6, [r5], #1
 800a66c:	9e01      	ldr	r6, [sp, #4]
 800a66e:	9f03      	ldr	r7, [sp, #12]
 800a670:	1bae      	subs	r6, r5, r6
 800a672:	42b7      	cmp	r7, r6
 800a674:	4602      	mov	r2, r0
 800a676:	460b      	mov	r3, r1
 800a678:	d135      	bne.n	800a6e6 <_dtoa_r+0x6e6>
 800a67a:	f7f5 fe2f 	bl	80002dc <__adddf3>
 800a67e:	4642      	mov	r2, r8
 800a680:	464b      	mov	r3, r9
 800a682:	4606      	mov	r6, r0
 800a684:	460f      	mov	r7, r1
 800a686:	f7f6 fa6f 	bl	8000b68 <__aeabi_dcmpgt>
 800a68a:	b9d0      	cbnz	r0, 800a6c2 <_dtoa_r+0x6c2>
 800a68c:	4642      	mov	r2, r8
 800a68e:	464b      	mov	r3, r9
 800a690:	4630      	mov	r0, r6
 800a692:	4639      	mov	r1, r7
 800a694:	f7f6 fa40 	bl	8000b18 <__aeabi_dcmpeq>
 800a698:	b110      	cbz	r0, 800a6a0 <_dtoa_r+0x6a0>
 800a69a:	f01a 0f01 	tst.w	sl, #1
 800a69e:	d110      	bne.n	800a6c2 <_dtoa_r+0x6c2>
 800a6a0:	4620      	mov	r0, r4
 800a6a2:	ee18 1a10 	vmov	r1, s16
 800a6a6:	f000 fd05 	bl	800b0b4 <_Bfree>
 800a6aa:	2300      	movs	r3, #0
 800a6ac:	9800      	ldr	r0, [sp, #0]
 800a6ae:	702b      	strb	r3, [r5, #0]
 800a6b0:	9b0c      	ldr	r3, [sp, #48]	; 0x30
 800a6b2:	3001      	adds	r0, #1
 800a6b4:	6018      	str	r0, [r3, #0]
 800a6b6:	9b21      	ldr	r3, [sp, #132]	; 0x84
 800a6b8:	2b00      	cmp	r3, #0
 800a6ba:	f43f acf1 	beq.w	800a0a0 <_dtoa_r+0xa0>
 800a6be:	601d      	str	r5, [r3, #0]
 800a6c0:	e4ee      	b.n	800a0a0 <_dtoa_r+0xa0>
 800a6c2:	9f00      	ldr	r7, [sp, #0]
 800a6c4:	462b      	mov	r3, r5
 800a6c6:	461d      	mov	r5, r3
 800a6c8:	f813 2d01 	ldrb.w	r2, [r3, #-1]!
 800a6cc:	2a39      	cmp	r2, #57	; 0x39
 800a6ce:	d106      	bne.n	800a6de <_dtoa_r+0x6de>
 800a6d0:	9a01      	ldr	r2, [sp, #4]
 800a6d2:	429a      	cmp	r2, r3
 800a6d4:	d1f7      	bne.n	800a6c6 <_dtoa_r+0x6c6>
 800a6d6:	9901      	ldr	r1, [sp, #4]
 800a6d8:	2230      	movs	r2, #48	; 0x30
 800a6da:	3701      	adds	r7, #1
 800a6dc:	700a      	strb	r2, [r1, #0]
 800a6de:	781a      	ldrb	r2, [r3, #0]
 800a6e0:	3201      	adds	r2, #1
 800a6e2:	701a      	strb	r2, [r3, #0]
 800a6e4:	e790      	b.n	800a608 <_dtoa_r+0x608>
 800a6e6:	4ba6      	ldr	r3, [pc, #664]	; (800a980 <_dtoa_r+0x980>)
 800a6e8:	2200      	movs	r2, #0
 800a6ea:	f7f5 ffad 	bl	8000648 <__aeabi_dmul>
 800a6ee:	2200      	movs	r2, #0
 800a6f0:	2300      	movs	r3, #0
 800a6f2:	4606      	mov	r6, r0
 800a6f4:	460f      	mov	r7, r1
 800a6f6:	f7f6 fa0f 	bl	8000b18 <__aeabi_dcmpeq>
 800a6fa:	2800      	cmp	r0, #0
 800a6fc:	d09d      	beq.n	800a63a <_dtoa_r+0x63a>
 800a6fe:	e7cf      	b.n	800a6a0 <_dtoa_r+0x6a0>
 800a700:	9a08      	ldr	r2, [sp, #32]
 800a702:	2a00      	cmp	r2, #0
 800a704:	f000 80d7 	beq.w	800a8b6 <_dtoa_r+0x8b6>
 800a708:	9a06      	ldr	r2, [sp, #24]
 800a70a:	2a01      	cmp	r2, #1
 800a70c:	f300 80ba 	bgt.w	800a884 <_dtoa_r+0x884>
 800a710:	9a0e      	ldr	r2, [sp, #56]	; 0x38
 800a712:	2a00      	cmp	r2, #0
 800a714:	f000 80b2 	beq.w	800a87c <_dtoa_r+0x87c>
 800a718:	f203 4333 	addw	r3, r3, #1075	; 0x433
 800a71c:	9e07      	ldr	r6, [sp, #28]
 800a71e:	9d04      	ldr	r5, [sp, #16]
 800a720:	9a04      	ldr	r2, [sp, #16]
 800a722:	441a      	add	r2, r3
 800a724:	9204      	str	r2, [sp, #16]
 800a726:	9a05      	ldr	r2, [sp, #20]
 800a728:	2101      	movs	r1, #1
 800a72a:	441a      	add	r2, r3
 800a72c:	4620      	mov	r0, r4
 800a72e:	9205      	str	r2, [sp, #20]
 800a730:	f000 fd78 	bl	800b224 <__i2b>
 800a734:	4607      	mov	r7, r0
 800a736:	2d00      	cmp	r5, #0
 800a738:	dd0c      	ble.n	800a754 <_dtoa_r+0x754>
 800a73a:	9b05      	ldr	r3, [sp, #20]
 800a73c:	2b00      	cmp	r3, #0
 800a73e:	dd09      	ble.n	800a754 <_dtoa_r+0x754>
 800a740:	42ab      	cmp	r3, r5
 800a742:	9a04      	ldr	r2, [sp, #16]
 800a744:	bfa8      	it	ge
 800a746:	462b      	movge	r3, r5
 800a748:	1ad2      	subs	r2, r2, r3
 800a74a:	9204      	str	r2, [sp, #16]
 800a74c:	9a05      	ldr	r2, [sp, #20]
 800a74e:	1aed      	subs	r5, r5, r3
 800a750:	1ad3      	subs	r3, r2, r3
 800a752:	9305      	str	r3, [sp, #20]
 800a754:	9b07      	ldr	r3, [sp, #28]
 800a756:	b31b      	cbz	r3, 800a7a0 <_dtoa_r+0x7a0>
 800a758:	9b08      	ldr	r3, [sp, #32]
 800a75a:	2b00      	cmp	r3, #0
 800a75c:	f000 80af 	beq.w	800a8be <_dtoa_r+0x8be>
 800a760:	2e00      	cmp	r6, #0
 800a762:	dd13      	ble.n	800a78c <_dtoa_r+0x78c>
 800a764:	4639      	mov	r1, r7
 800a766:	4632      	mov	r2, r6
 800a768:	4620      	mov	r0, r4
 800a76a:	f000 fe1b 	bl	800b3a4 <__pow5mult>
 800a76e:	ee18 2a10 	vmov	r2, s16
 800a772:	4601      	mov	r1, r0
 800a774:	4607      	mov	r7, r0
 800a776:	4620      	mov	r0, r4
 800a778:	f000 fd6a 	bl	800b250 <__multiply>
 800a77c:	ee18 1a10 	vmov	r1, s16
 800a780:	4680      	mov	r8, r0
 800a782:	4620      	mov	r0, r4
 800a784:	f000 fc96 	bl	800b0b4 <_Bfree>
 800a788:	ee08 8a10 	vmov	s16, r8
 800a78c:	9b07      	ldr	r3, [sp, #28]
 800a78e:	1b9a      	subs	r2, r3, r6
 800a790:	d006      	beq.n	800a7a0 <_dtoa_r+0x7a0>
 800a792:	ee18 1a10 	vmov	r1, s16
 800a796:	4620      	mov	r0, r4
 800a798:	f000 fe04 	bl	800b3a4 <__pow5mult>
 800a79c:	ee08 0a10 	vmov	s16, r0
 800a7a0:	2101      	movs	r1, #1
 800a7a2:	4620      	mov	r0, r4
 800a7a4:	f000 fd3e 	bl	800b224 <__i2b>
 800a7a8:	9b0a      	ldr	r3, [sp, #40]	; 0x28
 800a7aa:	2b00      	cmp	r3, #0
 800a7ac:	4606      	mov	r6, r0
 800a7ae:	f340 8088 	ble.w	800a8c2 <_dtoa_r+0x8c2>
 800a7b2:	461a      	mov	r2, r3
 800a7b4:	4601      	mov	r1, r0
 800a7b6:	4620      	mov	r0, r4
 800a7b8:	f000 fdf4 	bl	800b3a4 <__pow5mult>
 800a7bc:	9b06      	ldr	r3, [sp, #24]
 800a7be:	2b01      	cmp	r3, #1
 800a7c0:	4606      	mov	r6, r0
 800a7c2:	f340 8081 	ble.w	800a8c8 <_dtoa_r+0x8c8>
 800a7c6:	f04f 0800 	mov.w	r8, #0
 800a7ca:	6933      	ldr	r3, [r6, #16]
 800a7cc:	eb06 0383 	add.w	r3, r6, r3, lsl #2
 800a7d0:	6918      	ldr	r0, [r3, #16]
 800a7d2:	f000 fcd7 	bl	800b184 <__hi0bits>
 800a7d6:	f1c0 0020 	rsb	r0, r0, #32
 800a7da:	9b05      	ldr	r3, [sp, #20]
 800a7dc:	4418      	add	r0, r3
 800a7de:	f010 001f 	ands.w	r0, r0, #31
 800a7e2:	f000 8092 	beq.w	800a90a <_dtoa_r+0x90a>
 800a7e6:	f1c0 0320 	rsb	r3, r0, #32
 800a7ea:	2b04      	cmp	r3, #4
 800a7ec:	f340 808a 	ble.w	800a904 <_dtoa_r+0x904>
 800a7f0:	f1c0 001c 	rsb	r0, r0, #28
 800a7f4:	9b04      	ldr	r3, [sp, #16]
 800a7f6:	4403      	add	r3, r0
 800a7f8:	9304      	str	r3, [sp, #16]
 800a7fa:	9b05      	ldr	r3, [sp, #20]
 800a7fc:	4403      	add	r3, r0
 800a7fe:	4405      	add	r5, r0
 800a800:	9305      	str	r3, [sp, #20]
 800a802:	9b04      	ldr	r3, [sp, #16]
 800a804:	2b00      	cmp	r3, #0
 800a806:	dd07      	ble.n	800a818 <_dtoa_r+0x818>
 800a808:	ee18 1a10 	vmov	r1, s16
 800a80c:	461a      	mov	r2, r3
 800a80e:	4620      	mov	r0, r4
 800a810:	f000 fe22 	bl	800b458 <__lshift>
 800a814:	ee08 0a10 	vmov	s16, r0
 800a818:	9b05      	ldr	r3, [sp, #20]
 800a81a:	2b00      	cmp	r3, #0
 800a81c:	dd05      	ble.n	800a82a <_dtoa_r+0x82a>
 800a81e:	4631      	mov	r1, r6
 800a820:	461a      	mov	r2, r3
 800a822:	4620      	mov	r0, r4
 800a824:	f000 fe18 	bl	800b458 <__lshift>
 800a828:	4606      	mov	r6, r0
 800a82a:	9b0b      	ldr	r3, [sp, #44]	; 0x2c
 800a82c:	2b00      	cmp	r3, #0
 800a82e:	d06e      	beq.n	800a90e <_dtoa_r+0x90e>
 800a830:	ee18 0a10 	vmov	r0, s16
 800a834:	4631      	mov	r1, r6
 800a836:	f000 fe7f 	bl	800b538 <__mcmp>
 800a83a:	2800      	cmp	r0, #0
 800a83c:	da67      	bge.n	800a90e <_dtoa_r+0x90e>
 800a83e:	9b00      	ldr	r3, [sp, #0]
 800a840:	3b01      	subs	r3, #1
 800a842:	ee18 1a10 	vmov	r1, s16
 800a846:	9300      	str	r3, [sp, #0]
 800a848:	220a      	movs	r2, #10
 800a84a:	2300      	movs	r3, #0
 800a84c:	4620      	mov	r0, r4
 800a84e:	f000 fc53 	bl	800b0f8 <__multadd>
 800a852:	9b08      	ldr	r3, [sp, #32]
 800a854:	ee08 0a10 	vmov	s16, r0
 800a858:	2b00      	cmp	r3, #0
 800a85a:	f000 81b1 	beq.w	800abc0 <_dtoa_r+0xbc0>
 800a85e:	2300      	movs	r3, #0
 800a860:	4639      	mov	r1, r7
 800a862:	220a      	movs	r2, #10
 800a864:	4620      	mov	r0, r4
 800a866:	f000 fc47 	bl	800b0f8 <__multadd>
 800a86a:	9b02      	ldr	r3, [sp, #8]
 800a86c:	2b00      	cmp	r3, #0
 800a86e:	4607      	mov	r7, r0
 800a870:	f300 808e 	bgt.w	800a990 <_dtoa_r+0x990>
 800a874:	9b06      	ldr	r3, [sp, #24]
 800a876:	2b02      	cmp	r3, #2
 800a878:	dc51      	bgt.n	800a91e <_dtoa_r+0x91e>
 800a87a:	e089      	b.n	800a990 <_dtoa_r+0x990>
 800a87c:	9b10      	ldr	r3, [sp, #64]	; 0x40
 800a87e:	f1c3 0336 	rsb	r3, r3, #54	; 0x36
 800a882:	e74b      	b.n	800a71c <_dtoa_r+0x71c>
 800a884:	9b03      	ldr	r3, [sp, #12]
 800a886:	1e5e      	subs	r6, r3, #1
 800a888:	9b07      	ldr	r3, [sp, #28]
 800a88a:	42b3      	cmp	r3, r6
 800a88c:	bfbf      	itttt	lt
 800a88e:	9b07      	ldrlt	r3, [sp, #28]
 800a890:	9607      	strlt	r6, [sp, #28]
 800a892:	1af2      	sublt	r2, r6, r3
 800a894:	9b0a      	ldrlt	r3, [sp, #40]	; 0x28
 800a896:	bfb6      	itet	lt
 800a898:	189b      	addlt	r3, r3, r2
 800a89a:	1b9e      	subge	r6, r3, r6
 800a89c:	930a      	strlt	r3, [sp, #40]	; 0x28
 800a89e:	9b03      	ldr	r3, [sp, #12]
 800a8a0:	bfb8      	it	lt
 800a8a2:	2600      	movlt	r6, #0
 800a8a4:	2b00      	cmp	r3, #0
 800a8a6:	bfb7      	itett	lt
 800a8a8:	e9dd 2303 	ldrdlt	r2, r3, [sp, #12]
 800a8ac:	e9dd 3503 	ldrdge	r3, r5, [sp, #12]
 800a8b0:	1a9d      	sublt	r5, r3, r2
 800a8b2:	2300      	movlt	r3, #0
 800a8b4:	e734      	b.n	800a720 <_dtoa_r+0x720>
 800a8b6:	9e07      	ldr	r6, [sp, #28]
 800a8b8:	9d04      	ldr	r5, [sp, #16]
 800a8ba:	9f08      	ldr	r7, [sp, #32]
 800a8bc:	e73b      	b.n	800a736 <_dtoa_r+0x736>
 800a8be:	9a07      	ldr	r2, [sp, #28]
 800a8c0:	e767      	b.n	800a792 <_dtoa_r+0x792>
 800a8c2:	9b06      	ldr	r3, [sp, #24]
 800a8c4:	2b01      	cmp	r3, #1
 800a8c6:	dc18      	bgt.n	800a8fa <_dtoa_r+0x8fa>
 800a8c8:	f1ba 0f00 	cmp.w	sl, #0
 800a8cc:	d115      	bne.n	800a8fa <_dtoa_r+0x8fa>
 800a8ce:	f3cb 0313 	ubfx	r3, fp, #0, #20
 800a8d2:	b993      	cbnz	r3, 800a8fa <_dtoa_r+0x8fa>
 800a8d4:	f02b 4300 	bic.w	r3, fp, #2147483648	; 0x80000000
 800a8d8:	0d1b      	lsrs	r3, r3, #20
 800a8da:	051b      	lsls	r3, r3, #20
 800a8dc:	b183      	cbz	r3, 800a900 <_dtoa_r+0x900>
 800a8de:	9b04      	ldr	r3, [sp, #16]
 800a8e0:	3301      	adds	r3, #1
 800a8e2:	9304      	str	r3, [sp, #16]
 800a8e4:	9b05      	ldr	r3, [sp, #20]
 800a8e6:	3301      	adds	r3, #1
 800a8e8:	9305      	str	r3, [sp, #20]
 800a8ea:	f04f 0801 	mov.w	r8, #1
 800a8ee:	9b0a      	ldr	r3, [sp, #40]	; 0x28
 800a8f0:	2b00      	cmp	r3, #0
 800a8f2:	f47f af6a 	bne.w	800a7ca <_dtoa_r+0x7ca>
 800a8f6:	2001      	movs	r0, #1
 800a8f8:	e76f      	b.n	800a7da <_dtoa_r+0x7da>
 800a8fa:	f04f 0800 	mov.w	r8, #0
 800a8fe:	e7f6      	b.n	800a8ee <_dtoa_r+0x8ee>
 800a900:	4698      	mov	r8, r3
 800a902:	e7f4      	b.n	800a8ee <_dtoa_r+0x8ee>
 800a904:	f43f af7d 	beq.w	800a802 <_dtoa_r+0x802>
 800a908:	4618      	mov	r0, r3
 800a90a:	301c      	adds	r0, #28
 800a90c:	e772      	b.n	800a7f4 <_dtoa_r+0x7f4>
 800a90e:	9b03      	ldr	r3, [sp, #12]
 800a910:	2b00      	cmp	r3, #0
 800a912:	dc37      	bgt.n	800a984 <_dtoa_r+0x984>
 800a914:	9b06      	ldr	r3, [sp, #24]
 800a916:	2b02      	cmp	r3, #2
 800a918:	dd34      	ble.n	800a984 <_dtoa_r+0x984>
 800a91a:	9b03      	ldr	r3, [sp, #12]
 800a91c:	9302      	str	r3, [sp, #8]
 800a91e:	9b02      	ldr	r3, [sp, #8]
 800a920:	b96b      	cbnz	r3, 800a93e <_dtoa_r+0x93e>
 800a922:	4631      	mov	r1, r6
 800a924:	2205      	movs	r2, #5
 800a926:	4620      	mov	r0, r4
 800a928:	f000 fbe6 	bl	800b0f8 <__multadd>
 800a92c:	4601      	mov	r1, r0
 800a92e:	4606      	mov	r6, r0
 800a930:	ee18 0a10 	vmov	r0, s16
 800a934:	f000 fe00 	bl	800b538 <__mcmp>
 800a938:	2800      	cmp	r0, #0
 800a93a:	f73f adbb 	bgt.w	800a4b4 <_dtoa_r+0x4b4>
 800a93e:	9b09      	ldr	r3, [sp, #36]	; 0x24
 800a940:	9d01      	ldr	r5, [sp, #4]
 800a942:	43db      	mvns	r3, r3
 800a944:	9300      	str	r3, [sp, #0]
 800a946:	f04f 0800 	mov.w	r8, #0
 800a94a:	4631      	mov	r1, r6
 800a94c:	4620      	mov	r0, r4
 800a94e:	f000 fbb1 	bl	800b0b4 <_Bfree>
 800a952:	2f00      	cmp	r7, #0
 800a954:	f43f aea4 	beq.w	800a6a0 <_dtoa_r+0x6a0>
 800a958:	f1b8 0f00 	cmp.w	r8, #0
 800a95c:	d005      	beq.n	800a96a <_dtoa_r+0x96a>
 800a95e:	45b8      	cmp	r8, r7
 800a960:	d003      	beq.n	800a96a <_dtoa_r+0x96a>
 800a962:	4641      	mov	r1, r8
 800a964:	4620      	mov	r0, r4
 800a966:	f000 fba5 	bl	800b0b4 <_Bfree>
 800a96a:	4639      	mov	r1, r7
 800a96c:	4620      	mov	r0, r4
 800a96e:	f000 fba1 	bl	800b0b4 <_Bfree>
 800a972:	e695      	b.n	800a6a0 <_dtoa_r+0x6a0>
 800a974:	2600      	movs	r6, #0
 800a976:	4637      	mov	r7, r6
 800a978:	e7e1      	b.n	800a93e <_dtoa_r+0x93e>
 800a97a:	9700      	str	r7, [sp, #0]
 800a97c:	4637      	mov	r7, r6
 800a97e:	e599      	b.n	800a4b4 <_dtoa_r+0x4b4>
 800a980:	40240000 	.word	0x40240000
 800a984:	9b08      	ldr	r3, [sp, #32]
 800a986:	2b00      	cmp	r3, #0
 800a988:	f000 80ca 	beq.w	800ab20 <_dtoa_r+0xb20>
 800a98c:	9b03      	ldr	r3, [sp, #12]
 800a98e:	9302      	str	r3, [sp, #8]
 800a990:	2d00      	cmp	r5, #0
 800a992:	dd05      	ble.n	800a9a0 <_dtoa_r+0x9a0>
 800a994:	4639      	mov	r1, r7
 800a996:	462a      	mov	r2, r5
 800a998:	4620      	mov	r0, r4
 800a99a:	f000 fd5d 	bl	800b458 <__lshift>
 800a99e:	4607      	mov	r7, r0
 800a9a0:	f1b8 0f00 	cmp.w	r8, #0
 800a9a4:	d05b      	beq.n	800aa5e <_dtoa_r+0xa5e>
 800a9a6:	6879      	ldr	r1, [r7, #4]
 800a9a8:	4620      	mov	r0, r4
 800a9aa:	f000 fb43 	bl	800b034 <_Balloc>
 800a9ae:	4605      	mov	r5, r0
 800a9b0:	b928      	cbnz	r0, 800a9be <_dtoa_r+0x9be>
 800a9b2:	4b87      	ldr	r3, [pc, #540]	; (800abd0 <_dtoa_r+0xbd0>)
 800a9b4:	4602      	mov	r2, r0
 800a9b6:	f240 21ea 	movw	r1, #746	; 0x2ea
 800a9ba:	f7ff bb3b 	b.w	800a034 <_dtoa_r+0x34>
 800a9be:	693a      	ldr	r2, [r7, #16]
 800a9c0:	3202      	adds	r2, #2
 800a9c2:	0092      	lsls	r2, r2, #2
 800a9c4:	f107 010c 	add.w	r1, r7, #12
 800a9c8:	300c      	adds	r0, #12
 800a9ca:	f7fe fbef 	bl	80091ac <memcpy>
 800a9ce:	2201      	movs	r2, #1
 800a9d0:	4629      	mov	r1, r5
 800a9d2:	4620      	mov	r0, r4
 800a9d4:	f000 fd40 	bl	800b458 <__lshift>
 800a9d8:	9b01      	ldr	r3, [sp, #4]
 800a9da:	f103 0901 	add.w	r9, r3, #1
 800a9de:	e9dd 2301 	ldrd	r2, r3, [sp, #4]
 800a9e2:	4413      	add	r3, r2
 800a9e4:	9305      	str	r3, [sp, #20]
 800a9e6:	f00a 0301 	and.w	r3, sl, #1
 800a9ea:	46b8      	mov	r8, r7
 800a9ec:	9304      	str	r3, [sp, #16]
 800a9ee:	4607      	mov	r7, r0
 800a9f0:	4631      	mov	r1, r6
 800a9f2:	ee18 0a10 	vmov	r0, s16
 800a9f6:	f7ff fa75 	bl	8009ee4 <quorem>
 800a9fa:	4641      	mov	r1, r8
 800a9fc:	9002      	str	r0, [sp, #8]
 800a9fe:	f100 0a30 	add.w	sl, r0, #48	; 0x30
 800aa02:	ee18 0a10 	vmov	r0, s16
 800aa06:	f000 fd97 	bl	800b538 <__mcmp>
 800aa0a:	463a      	mov	r2, r7
 800aa0c:	9003      	str	r0, [sp, #12]
 800aa0e:	4631      	mov	r1, r6
 800aa10:	4620      	mov	r0, r4
 800aa12:	f000 fdad 	bl	800b570 <__mdiff>
 800aa16:	68c2      	ldr	r2, [r0, #12]
 800aa18:	f109 3bff 	add.w	fp, r9, #4294967295
 800aa1c:	4605      	mov	r5, r0
 800aa1e:	bb02      	cbnz	r2, 800aa62 <_dtoa_r+0xa62>
 800aa20:	4601      	mov	r1, r0
 800aa22:	ee18 0a10 	vmov	r0, s16
 800aa26:	f000 fd87 	bl	800b538 <__mcmp>
 800aa2a:	4602      	mov	r2, r0
 800aa2c:	4629      	mov	r1, r5
 800aa2e:	4620      	mov	r0, r4
 800aa30:	9207      	str	r2, [sp, #28]
 800aa32:	f000 fb3f 	bl	800b0b4 <_Bfree>
 800aa36:	e9dd 3206 	ldrd	r3, r2, [sp, #24]
 800aa3a:	ea43 0102 	orr.w	r1, r3, r2
 800aa3e:	9b04      	ldr	r3, [sp, #16]
 800aa40:	430b      	orrs	r3, r1
 800aa42:	464d      	mov	r5, r9
 800aa44:	d10f      	bne.n	800aa66 <_dtoa_r+0xa66>
 800aa46:	f1ba 0f39 	cmp.w	sl, #57	; 0x39
 800aa4a:	d02a      	beq.n	800aaa2 <_dtoa_r+0xaa2>
 800aa4c:	9b03      	ldr	r3, [sp, #12]
 800aa4e:	2b00      	cmp	r3, #0
 800aa50:	dd02      	ble.n	800aa58 <_dtoa_r+0xa58>
 800aa52:	9b02      	ldr	r3, [sp, #8]
 800aa54:	f103 0a31 	add.w	sl, r3, #49	; 0x31
 800aa58:	f88b a000 	strb.w	sl, [fp]
 800aa5c:	e775      	b.n	800a94a <_dtoa_r+0x94a>
 800aa5e:	4638      	mov	r0, r7
 800aa60:	e7ba      	b.n	800a9d8 <_dtoa_r+0x9d8>
 800aa62:	2201      	movs	r2, #1
 800aa64:	e7e2      	b.n	800aa2c <_dtoa_r+0xa2c>
 800aa66:	9b03      	ldr	r3, [sp, #12]
 800aa68:	2b00      	cmp	r3, #0
 800aa6a:	db04      	blt.n	800aa76 <_dtoa_r+0xa76>
 800aa6c:	9906      	ldr	r1, [sp, #24]
 800aa6e:	430b      	orrs	r3, r1
 800aa70:	9904      	ldr	r1, [sp, #16]
 800aa72:	430b      	orrs	r3, r1
 800aa74:	d122      	bne.n	800aabc <_dtoa_r+0xabc>
 800aa76:	2a00      	cmp	r2, #0
 800aa78:	ddee      	ble.n	800aa58 <_dtoa_r+0xa58>
 800aa7a:	ee18 1a10 	vmov	r1, s16
 800aa7e:	2201      	movs	r2, #1
 800aa80:	4620      	mov	r0, r4
 800aa82:	f000 fce9 	bl	800b458 <__lshift>
 800aa86:	4631      	mov	r1, r6
 800aa88:	ee08 0a10 	vmov	s16, r0
 800aa8c:	f000 fd54 	bl	800b538 <__mcmp>
 800aa90:	2800      	cmp	r0, #0
 800aa92:	dc03      	bgt.n	800aa9c <_dtoa_r+0xa9c>
 800aa94:	d1e0      	bne.n	800aa58 <_dtoa_r+0xa58>
 800aa96:	f01a 0f01 	tst.w	sl, #1
 800aa9a:	d0dd      	beq.n	800aa58 <_dtoa_r+0xa58>
 800aa9c:	f1ba 0f39 	cmp.w	sl, #57	; 0x39
 800aaa0:	d1d7      	bne.n	800aa52 <_dtoa_r+0xa52>
 800aaa2:	2339      	movs	r3, #57	; 0x39
 800aaa4:	f88b 3000 	strb.w	r3, [fp]
 800aaa8:	462b      	mov	r3, r5
 800aaaa:	461d      	mov	r5, r3
 800aaac:	3b01      	subs	r3, #1
 800aaae:	f815 2c01 	ldrb.w	r2, [r5, #-1]
 800aab2:	2a39      	cmp	r2, #57	; 0x39
 800aab4:	d071      	beq.n	800ab9a <_dtoa_r+0xb9a>
 800aab6:	3201      	adds	r2, #1
 800aab8:	701a      	strb	r2, [r3, #0]
 800aaba:	e746      	b.n	800a94a <_dtoa_r+0x94a>
 800aabc:	2a00      	cmp	r2, #0
 800aabe:	dd07      	ble.n	800aad0 <_dtoa_r+0xad0>
 800aac0:	f1ba 0f39 	cmp.w	sl, #57	; 0x39
 800aac4:	d0ed      	beq.n	800aaa2 <_dtoa_r+0xaa2>
 800aac6:	f10a 0301 	add.w	r3, sl, #1
 800aaca:	f88b 3000 	strb.w	r3, [fp]
 800aace:	e73c      	b.n	800a94a <_dtoa_r+0x94a>
 800aad0:	9b05      	ldr	r3, [sp, #20]
 800aad2:	f809 ac01 	strb.w	sl, [r9, #-1]
 800aad6:	4599      	cmp	r9, r3
 800aad8:	d047      	beq.n	800ab6a <_dtoa_r+0xb6a>
 800aada:	ee18 1a10 	vmov	r1, s16
 800aade:	2300      	movs	r3, #0
 800aae0:	220a      	movs	r2, #10
 800aae2:	4620      	mov	r0, r4
 800aae4:	f000 fb08 	bl	800b0f8 <__multadd>
 800aae8:	45b8      	cmp	r8, r7
 800aaea:	ee08 0a10 	vmov	s16, r0
 800aaee:	f04f 0300 	mov.w	r3, #0
 800aaf2:	f04f 020a 	mov.w	r2, #10
 800aaf6:	4641      	mov	r1, r8
 800aaf8:	4620      	mov	r0, r4
 800aafa:	d106      	bne.n	800ab0a <_dtoa_r+0xb0a>
 800aafc:	f000 fafc 	bl	800b0f8 <__multadd>
 800ab00:	4680      	mov	r8, r0
 800ab02:	4607      	mov	r7, r0
 800ab04:	f109 0901 	add.w	r9, r9, #1
 800ab08:	e772      	b.n	800a9f0 <_dtoa_r+0x9f0>
 800ab0a:	f000 faf5 	bl	800b0f8 <__multadd>
 800ab0e:	4639      	mov	r1, r7
 800ab10:	4680      	mov	r8, r0
 800ab12:	2300      	movs	r3, #0
 800ab14:	220a      	movs	r2, #10
 800ab16:	4620      	mov	r0, r4
 800ab18:	f000 faee 	bl	800b0f8 <__multadd>
 800ab1c:	4607      	mov	r7, r0
 800ab1e:	e7f1      	b.n	800ab04 <_dtoa_r+0xb04>
 800ab20:	9b03      	ldr	r3, [sp, #12]
 800ab22:	9302      	str	r3, [sp, #8]
 800ab24:	9d01      	ldr	r5, [sp, #4]
 800ab26:	ee18 0a10 	vmov	r0, s16
 800ab2a:	4631      	mov	r1, r6
 800ab2c:	f7ff f9da 	bl	8009ee4 <quorem>
 800ab30:	f100 0a30 	add.w	sl, r0, #48	; 0x30
 800ab34:	9b01      	ldr	r3, [sp, #4]
 800ab36:	f805 ab01 	strb.w	sl, [r5], #1
 800ab3a:	1aea      	subs	r2, r5, r3
 800ab3c:	9b02      	ldr	r3, [sp, #8]
 800ab3e:	4293      	cmp	r3, r2
 800ab40:	dd09      	ble.n	800ab56 <_dtoa_r+0xb56>
 800ab42:	ee18 1a10 	vmov	r1, s16
 800ab46:	2300      	movs	r3, #0
 800ab48:	220a      	movs	r2, #10
 800ab4a:	4620      	mov	r0, r4
 800ab4c:	f000 fad4 	bl	800b0f8 <__multadd>
 800ab50:	ee08 0a10 	vmov	s16, r0
 800ab54:	e7e7      	b.n	800ab26 <_dtoa_r+0xb26>
 800ab56:	9b02      	ldr	r3, [sp, #8]
 800ab58:	2b00      	cmp	r3, #0
 800ab5a:	bfc8      	it	gt
 800ab5c:	461d      	movgt	r5, r3
 800ab5e:	9b01      	ldr	r3, [sp, #4]
 800ab60:	bfd8      	it	le
 800ab62:	2501      	movle	r5, #1
 800ab64:	441d      	add	r5, r3
 800ab66:	f04f 0800 	mov.w	r8, #0
 800ab6a:	ee18 1a10 	vmov	r1, s16
 800ab6e:	2201      	movs	r2, #1
 800ab70:	4620      	mov	r0, r4
 800ab72:	f000 fc71 	bl	800b458 <__lshift>
 800ab76:	4631      	mov	r1, r6
 800ab78:	ee08 0a10 	vmov	s16, r0
 800ab7c:	f000 fcdc 	bl	800b538 <__mcmp>
 800ab80:	2800      	cmp	r0, #0
 800ab82:	dc91      	bgt.n	800aaa8 <_dtoa_r+0xaa8>
 800ab84:	d102      	bne.n	800ab8c <_dtoa_r+0xb8c>
 800ab86:	f01a 0f01 	tst.w	sl, #1
 800ab8a:	d18d      	bne.n	800aaa8 <_dtoa_r+0xaa8>
 800ab8c:	462b      	mov	r3, r5
 800ab8e:	461d      	mov	r5, r3
 800ab90:	f813 2d01 	ldrb.w	r2, [r3, #-1]!
 800ab94:	2a30      	cmp	r2, #48	; 0x30
 800ab96:	d0fa      	beq.n	800ab8e <_dtoa_r+0xb8e>
 800ab98:	e6d7      	b.n	800a94a <_dtoa_r+0x94a>
 800ab9a:	9a01      	ldr	r2, [sp, #4]
 800ab9c:	429a      	cmp	r2, r3
 800ab9e:	d184      	bne.n	800aaaa <_dtoa_r+0xaaa>
 800aba0:	9b00      	ldr	r3, [sp, #0]
 800aba2:	3301      	adds	r3, #1
 800aba4:	9300      	str	r3, [sp, #0]
 800aba6:	2331      	movs	r3, #49	; 0x31
 800aba8:	7013      	strb	r3, [r2, #0]
 800abaa:	e6ce      	b.n	800a94a <_dtoa_r+0x94a>
 800abac:	4b09      	ldr	r3, [pc, #36]	; (800abd4 <_dtoa_r+0xbd4>)
 800abae:	f7ff ba95 	b.w	800a0dc <_dtoa_r+0xdc>
 800abb2:	9b21      	ldr	r3, [sp, #132]	; 0x84
 800abb4:	2b00      	cmp	r3, #0
 800abb6:	f47f aa6e 	bne.w	800a096 <_dtoa_r+0x96>
 800abba:	4b07      	ldr	r3, [pc, #28]	; (800abd8 <_dtoa_r+0xbd8>)
 800abbc:	f7ff ba8e 	b.w	800a0dc <_dtoa_r+0xdc>
 800abc0:	9b02      	ldr	r3, [sp, #8]
 800abc2:	2b00      	cmp	r3, #0
 800abc4:	dcae      	bgt.n	800ab24 <_dtoa_r+0xb24>
 800abc6:	9b06      	ldr	r3, [sp, #24]
 800abc8:	2b02      	cmp	r3, #2
 800abca:	f73f aea8 	bgt.w	800a91e <_dtoa_r+0x91e>
 800abce:	e7a9      	b.n	800ab24 <_dtoa_r+0xb24>
 800abd0:	0800c57f 	.word	0x0800c57f
 800abd4:	0800c4dc 	.word	0x0800c4dc
 800abd8:	0800c500 	.word	0x0800c500

0800abdc <__sflush_r>:
 800abdc:	898a      	ldrh	r2, [r1, #12]
 800abde:	e92d 41f0 	stmdb	sp!, {r4, r5, r6, r7, r8, lr}
 800abe2:	4605      	mov	r5, r0
 800abe4:	0710      	lsls	r0, r2, #28
 800abe6:	460c      	mov	r4, r1
 800abe8:	d458      	bmi.n	800ac9c <__sflush_r+0xc0>
 800abea:	684b      	ldr	r3, [r1, #4]
 800abec:	2b00      	cmp	r3, #0
 800abee:	dc05      	bgt.n	800abfc <__sflush_r+0x20>
 800abf0:	6c0b      	ldr	r3, [r1, #64]	; 0x40
 800abf2:	2b00      	cmp	r3, #0
 800abf4:	dc02      	bgt.n	800abfc <__sflush_r+0x20>
 800abf6:	2000      	movs	r0, #0
 800abf8:	e8bd 81f0 	ldmia.w	sp!, {r4, r5, r6, r7, r8, pc}
 800abfc:	6ae6      	ldr	r6, [r4, #44]	; 0x2c
 800abfe:	2e00      	cmp	r6, #0
 800ac00:	d0f9      	beq.n	800abf6 <__sflush_r+0x1a>
 800ac02:	2300      	movs	r3, #0
 800ac04:	f412 5280 	ands.w	r2, r2, #4096	; 0x1000
 800ac08:	682f      	ldr	r7, [r5, #0]
 800ac0a:	602b      	str	r3, [r5, #0]
 800ac0c:	d032      	beq.n	800ac74 <__sflush_r+0x98>
 800ac0e:	6d60      	ldr	r0, [r4, #84]	; 0x54
 800ac10:	89a3      	ldrh	r3, [r4, #12]
 800ac12:	075a      	lsls	r2, r3, #29
 800ac14:	d505      	bpl.n	800ac22 <__sflush_r+0x46>
 800ac16:	6863      	ldr	r3, [r4, #4]
 800ac18:	1ac0      	subs	r0, r0, r3
 800ac1a:	6b63      	ldr	r3, [r4, #52]	; 0x34
 800ac1c:	b10b      	cbz	r3, 800ac22 <__sflush_r+0x46>
 800ac1e:	6c23      	ldr	r3, [r4, #64]	; 0x40
 800ac20:	1ac0      	subs	r0, r0, r3
 800ac22:	2300      	movs	r3, #0
 800ac24:	4602      	mov	r2, r0
 800ac26:	6ae6      	ldr	r6, [r4, #44]	; 0x2c
 800ac28:	6a21      	ldr	r1, [r4, #32]
 800ac2a:	4628      	mov	r0, r5
 800ac2c:	47b0      	blx	r6
 800ac2e:	1c43      	adds	r3, r0, #1
 800ac30:	89a3      	ldrh	r3, [r4, #12]
 800ac32:	d106      	bne.n	800ac42 <__sflush_r+0x66>
 800ac34:	6829      	ldr	r1, [r5, #0]
 800ac36:	291d      	cmp	r1, #29
 800ac38:	d82c      	bhi.n	800ac94 <__sflush_r+0xb8>
 800ac3a:	4a2a      	ldr	r2, [pc, #168]	; (800ace4 <__sflush_r+0x108>)
 800ac3c:	40ca      	lsrs	r2, r1
 800ac3e:	07d6      	lsls	r6, r2, #31
 800ac40:	d528      	bpl.n	800ac94 <__sflush_r+0xb8>
 800ac42:	2200      	movs	r2, #0
 800ac44:	6062      	str	r2, [r4, #4]
 800ac46:	04d9      	lsls	r1, r3, #19
 800ac48:	6922      	ldr	r2, [r4, #16]
 800ac4a:	6022      	str	r2, [r4, #0]
 800ac4c:	d504      	bpl.n	800ac58 <__sflush_r+0x7c>
 800ac4e:	1c42      	adds	r2, r0, #1
 800ac50:	d101      	bne.n	800ac56 <__sflush_r+0x7a>
 800ac52:	682b      	ldr	r3, [r5, #0]
 800ac54:	b903      	cbnz	r3, 800ac58 <__sflush_r+0x7c>
 800ac56:	6560      	str	r0, [r4, #84]	; 0x54
 800ac58:	6b61      	ldr	r1, [r4, #52]	; 0x34
 800ac5a:	602f      	str	r7, [r5, #0]
 800ac5c:	2900      	cmp	r1, #0
 800ac5e:	d0ca      	beq.n	800abf6 <__sflush_r+0x1a>
 800ac60:	f104 0344 	add.w	r3, r4, #68	; 0x44
 800ac64:	4299      	cmp	r1, r3
 800ac66:	d002      	beq.n	800ac6e <__sflush_r+0x92>
 800ac68:	4628      	mov	r0, r5
 800ac6a:	f000 fd7d 	bl	800b768 <_free_r>
 800ac6e:	2000      	movs	r0, #0
 800ac70:	6360      	str	r0, [r4, #52]	; 0x34
 800ac72:	e7c1      	b.n	800abf8 <__sflush_r+0x1c>
 800ac74:	6a21      	ldr	r1, [r4, #32]
 800ac76:	2301      	movs	r3, #1
 800ac78:	4628      	mov	r0, r5
 800ac7a:	47b0      	blx	r6
 800ac7c:	1c41      	adds	r1, r0, #1
 800ac7e:	d1c7      	bne.n	800ac10 <__sflush_r+0x34>
 800ac80:	682b      	ldr	r3, [r5, #0]
 800ac82:	2b00      	cmp	r3, #0
 800ac84:	d0c4      	beq.n	800ac10 <__sflush_r+0x34>
 800ac86:	2b1d      	cmp	r3, #29
 800ac88:	d001      	beq.n	800ac8e <__sflush_r+0xb2>
 800ac8a:	2b16      	cmp	r3, #22
 800ac8c:	d101      	bne.n	800ac92 <__sflush_r+0xb6>
 800ac8e:	602f      	str	r7, [r5, #0]
 800ac90:	e7b1      	b.n	800abf6 <__sflush_r+0x1a>
 800ac92:	89a3      	ldrh	r3, [r4, #12]
 800ac94:	f043 0340 	orr.w	r3, r3, #64	; 0x40
 800ac98:	81a3      	strh	r3, [r4, #12]
 800ac9a:	e7ad      	b.n	800abf8 <__sflush_r+0x1c>
 800ac9c:	690f      	ldr	r7, [r1, #16]
 800ac9e:	2f00      	cmp	r7, #0
 800aca0:	d0a9      	beq.n	800abf6 <__sflush_r+0x1a>
 800aca2:	0793      	lsls	r3, r2, #30
 800aca4:	680e      	ldr	r6, [r1, #0]
 800aca6:	bf08      	it	eq
 800aca8:	694b      	ldreq	r3, [r1, #20]
 800acaa:	600f      	str	r7, [r1, #0]
 800acac:	bf18      	it	ne
 800acae:	2300      	movne	r3, #0
 800acb0:	eba6 0807 	sub.w	r8, r6, r7
 800acb4:	608b      	str	r3, [r1, #8]
 800acb6:	f1b8 0f00 	cmp.w	r8, #0
 800acba:	dd9c      	ble.n	800abf6 <__sflush_r+0x1a>
 800acbc:	6a21      	ldr	r1, [r4, #32]
 800acbe:	6aa6      	ldr	r6, [r4, #40]	; 0x28
 800acc0:	4643      	mov	r3, r8
 800acc2:	463a      	mov	r2, r7
 800acc4:	4628      	mov	r0, r5
 800acc6:	47b0      	blx	r6
 800acc8:	2800      	cmp	r0, #0
 800acca:	dc06      	bgt.n	800acda <__sflush_r+0xfe>
 800accc:	89a3      	ldrh	r3, [r4, #12]
 800acce:	f043 0340 	orr.w	r3, r3, #64	; 0x40
 800acd2:	81a3      	strh	r3, [r4, #12]
 800acd4:	f04f 30ff 	mov.w	r0, #4294967295
 800acd8:	e78e      	b.n	800abf8 <__sflush_r+0x1c>
 800acda:	4407      	add	r7, r0
 800acdc:	eba8 0800 	sub.w	r8, r8, r0
 800ace0:	e7e9      	b.n	800acb6 <__sflush_r+0xda>
 800ace2:	bf00      	nop
 800ace4:	20400001 	.word	0x20400001

0800ace8 <_fflush_r>:
 800ace8:	b538      	push	{r3, r4, r5, lr}
 800acea:	690b      	ldr	r3, [r1, #16]
 800acec:	4605      	mov	r5, r0
 800acee:	460c      	mov	r4, r1
 800acf0:	b913      	cbnz	r3, 800acf8 <_fflush_r+0x10>
 800acf2:	2500      	movs	r5, #0
 800acf4:	4628      	mov	r0, r5
 800acf6:	bd38      	pop	{r3, r4, r5, pc}
 800acf8:	b118      	cbz	r0, 800ad02 <_fflush_r+0x1a>
 800acfa:	6983      	ldr	r3, [r0, #24]
 800acfc:	b90b      	cbnz	r3, 800ad02 <_fflush_r+0x1a>
 800acfe:	f000 f887 	bl	800ae10 <__sinit>
 800ad02:	4b14      	ldr	r3, [pc, #80]	; (800ad54 <_fflush_r+0x6c>)
 800ad04:	429c      	cmp	r4, r3
 800ad06:	d11b      	bne.n	800ad40 <_fflush_r+0x58>
 800ad08:	686c      	ldr	r4, [r5, #4]
 800ad0a:	f9b4 300c 	ldrsh.w	r3, [r4, #12]
 800ad0e:	2b00      	cmp	r3, #0
 800ad10:	d0ef      	beq.n	800acf2 <_fflush_r+0xa>
 800ad12:	6e62      	ldr	r2, [r4, #100]	; 0x64
 800ad14:	07d0      	lsls	r0, r2, #31
 800ad16:	d404      	bmi.n	800ad22 <_fflush_r+0x3a>
 800ad18:	0599      	lsls	r1, r3, #22
 800ad1a:	d402      	bmi.n	800ad22 <_fflush_r+0x3a>
 800ad1c:	6da0      	ldr	r0, [r4, #88]	; 0x58
 800ad1e:	f000 f91a 	bl	800af56 <__retarget_lock_acquire_recursive>
 800ad22:	4628      	mov	r0, r5
 800ad24:	4621      	mov	r1, r4
 800ad26:	f7ff ff59 	bl	800abdc <__sflush_r>
 800ad2a:	6e63      	ldr	r3, [r4, #100]	; 0x64
 800ad2c:	07da      	lsls	r2, r3, #31
 800ad2e:	4605      	mov	r5, r0
 800ad30:	d4e0      	bmi.n	800acf4 <_fflush_r+0xc>
 800ad32:	89a3      	ldrh	r3, [r4, #12]
 800ad34:	059b      	lsls	r3, r3, #22
 800ad36:	d4dd      	bmi.n	800acf4 <_fflush_r+0xc>
 800ad38:	6da0      	ldr	r0, [r4, #88]	; 0x58
 800ad3a:	f000 f90d 	bl	800af58 <__retarget_lock_release_recursive>
 800ad3e:	e7d9      	b.n	800acf4 <_fflush_r+0xc>
 800ad40:	4b05      	ldr	r3, [pc, #20]	; (800ad58 <_fflush_r+0x70>)
 800ad42:	429c      	cmp	r4, r3
 800ad44:	d101      	bne.n	800ad4a <_fflush_r+0x62>
 800ad46:	68ac      	ldr	r4, [r5, #8]
 800ad48:	e7df      	b.n	800ad0a <_fflush_r+0x22>
 800ad4a:	4b04      	ldr	r3, [pc, #16]	; (800ad5c <_fflush_r+0x74>)
 800ad4c:	429c      	cmp	r4, r3
 800ad4e:	bf08      	it	eq
 800ad50:	68ec      	ldreq	r4, [r5, #12]
 800ad52:	e7da      	b.n	800ad0a <_fflush_r+0x22>
 800ad54:	0800c5b0 	.word	0x0800c5b0
 800ad58:	0800c5d0 	.word	0x0800c5d0
 800ad5c:	0800c590 	.word	0x0800c590

0800ad60 <std>:
 800ad60:	2300      	movs	r3, #0
 800ad62:	b510      	push	{r4, lr}
 800ad64:	4604      	mov	r4, r0
 800ad66:	e9c0 3300 	strd	r3, r3, [r0]
 800ad6a:	e9c0 3304 	strd	r3, r3, [r0, #16]
 800ad6e:	6083      	str	r3, [r0, #8]
 800ad70:	8181      	strh	r1, [r0, #12]
 800ad72:	6643      	str	r3, [r0, #100]	; 0x64
 800ad74:	81c2      	strh	r2, [r0, #14]
 800ad76:	6183      	str	r3, [r0, #24]
 800ad78:	4619      	mov	r1, r3
 800ad7a:	2208      	movs	r2, #8
 800ad7c:	305c      	adds	r0, #92	; 0x5c
 800ad7e:	f7fe fa23 	bl	80091c8 <memset>
 800ad82:	4b05      	ldr	r3, [pc, #20]	; (800ad98 <std+0x38>)
 800ad84:	6263      	str	r3, [r4, #36]	; 0x24
 800ad86:	4b05      	ldr	r3, [pc, #20]	; (800ad9c <std+0x3c>)
 800ad88:	62a3      	str	r3, [r4, #40]	; 0x28
 800ad8a:	4b05      	ldr	r3, [pc, #20]	; (800ada0 <std+0x40>)
 800ad8c:	62e3      	str	r3, [r4, #44]	; 0x2c
 800ad8e:	4b05      	ldr	r3, [pc, #20]	; (800ada4 <std+0x44>)
 800ad90:	6224      	str	r4, [r4, #32]
 800ad92:	6323      	str	r3, [r4, #48]	; 0x30
 800ad94:	bd10      	pop	{r4, pc}
 800ad96:	bf00      	nop
 800ad98:	0800bbfd 	.word	0x0800bbfd
 800ad9c:	0800bc1f 	.word	0x0800bc1f
 800ada0:	0800bc57 	.word	0x0800bc57
 800ada4:	0800bc7b 	.word	0x0800bc7b

0800ada8 <_cleanup_r>:
 800ada8:	4901      	ldr	r1, [pc, #4]	; (800adb0 <_cleanup_r+0x8>)
 800adaa:	f000 b8af 	b.w	800af0c <_fwalk_reent>
 800adae:	bf00      	nop
 800adb0:	0800ace9 	.word	0x0800ace9

0800adb4 <__sfmoreglue>:
 800adb4:	b570      	push	{r4, r5, r6, lr}
 800adb6:	2268      	movs	r2, #104	; 0x68
 800adb8:	1e4d      	subs	r5, r1, #1
 800adba:	4355      	muls	r5, r2
 800adbc:	460e      	mov	r6, r1
 800adbe:	f105 0174 	add.w	r1, r5, #116	; 0x74
 800adc2:	f000 fd3d 	bl	800b840 <_malloc_r>
 800adc6:	4604      	mov	r4, r0
 800adc8:	b140      	cbz	r0, 800addc <__sfmoreglue+0x28>
 800adca:	2100      	movs	r1, #0
 800adcc:	e9c0 1600 	strd	r1, r6, [r0]
 800add0:	300c      	adds	r0, #12
 800add2:	60a0      	str	r0, [r4, #8]
 800add4:	f105 0268 	add.w	r2, r5, #104	; 0x68
 800add8:	f7fe f9f6 	bl	80091c8 <memset>
 800addc:	4620      	mov	r0, r4
 800adde:	bd70      	pop	{r4, r5, r6, pc}

0800ade0 <__sfp_lock_acquire>:
 800ade0:	4801      	ldr	r0, [pc, #4]	; (800ade8 <__sfp_lock_acquire+0x8>)
 800ade2:	f000 b8b8 	b.w	800af56 <__retarget_lock_acquire_recursive>
 800ade6:	bf00      	nop
 800ade8:	2001089d 	.word	0x2001089d

0800adec <__sfp_lock_release>:
 800adec:	4801      	ldr	r0, [pc, #4]	; (800adf4 <__sfp_lock_release+0x8>)
 800adee:	f000 b8b3 	b.w	800af58 <__retarget_lock_release_recursive>
 800adf2:	bf00      	nop
 800adf4:	2001089d 	.word	0x2001089d

0800adf8 <__sinit_lock_acquire>:
 800adf8:	4801      	ldr	r0, [pc, #4]	; (800ae00 <__sinit_lock_acquire+0x8>)
 800adfa:	f000 b8ac 	b.w	800af56 <__retarget_lock_acquire_recursive>
 800adfe:	bf00      	nop
 800ae00:	2001089e 	.word	0x2001089e

0800ae04 <__sinit_lock_release>:
 800ae04:	4801      	ldr	r0, [pc, #4]	; (800ae0c <__sinit_lock_release+0x8>)
 800ae06:	f000 b8a7 	b.w	800af58 <__retarget_lock_release_recursive>
 800ae0a:	bf00      	nop
 800ae0c:	2001089e 	.word	0x2001089e

0800ae10 <__sinit>:
 800ae10:	b510      	push	{r4, lr}
 800ae12:	4604      	mov	r4, r0
 800ae14:	f7ff fff0 	bl	800adf8 <__sinit_lock_acquire>
 800ae18:	69a3      	ldr	r3, [r4, #24]
 800ae1a:	b11b      	cbz	r3, 800ae24 <__sinit+0x14>
 800ae1c:	e8bd 4010 	ldmia.w	sp!, {r4, lr}
 800ae20:	f7ff bff0 	b.w	800ae04 <__sinit_lock_release>
 800ae24:	e9c4 3312 	strd	r3, r3, [r4, #72]	; 0x48
 800ae28:	6523      	str	r3, [r4, #80]	; 0x50
 800ae2a:	4b13      	ldr	r3, [pc, #76]	; (800ae78 <__sinit+0x68>)
 800ae2c:	4a13      	ldr	r2, [pc, #76]	; (800ae7c <__sinit+0x6c>)
 800ae2e:	681b      	ldr	r3, [r3, #0]
 800ae30:	62a2      	str	r2, [r4, #40]	; 0x28
 800ae32:	42a3      	cmp	r3, r4
 800ae34:	bf04      	itt	eq
 800ae36:	2301      	moveq	r3, #1
 800ae38:	61a3      	streq	r3, [r4, #24]
 800ae3a:	4620      	mov	r0, r4
 800ae3c:	f000 f820 	bl	800ae80 <__sfp>
 800ae40:	6060      	str	r0, [r4, #4]
 800ae42:	4620      	mov	r0, r4
 800ae44:	f000 f81c 	bl	800ae80 <__sfp>
 800ae48:	60a0      	str	r0, [r4, #8]
 800ae4a:	4620      	mov	r0, r4
 800ae4c:	f000 f818 	bl	800ae80 <__sfp>
 800ae50:	2200      	movs	r2, #0
 800ae52:	60e0      	str	r0, [r4, #12]
 800ae54:	2104      	movs	r1, #4
 800ae56:	6860      	ldr	r0, [r4, #4]
 800ae58:	f7ff ff82 	bl	800ad60 <std>
 800ae5c:	68a0      	ldr	r0, [r4, #8]
 800ae5e:	2201      	movs	r2, #1
 800ae60:	2109      	movs	r1, #9
 800ae62:	f7ff ff7d 	bl	800ad60 <std>
 800ae66:	68e0      	ldr	r0, [r4, #12]
 800ae68:	2202      	movs	r2, #2
 800ae6a:	2112      	movs	r1, #18
 800ae6c:	f7ff ff78 	bl	800ad60 <std>
 800ae70:	2301      	movs	r3, #1
 800ae72:	61a3      	str	r3, [r4, #24]
 800ae74:	e7d2      	b.n	800ae1c <__sinit+0xc>
 800ae76:	bf00      	nop
 800ae78:	0800c4c8 	.word	0x0800c4c8
 800ae7c:	0800ada9 	.word	0x0800ada9

0800ae80 <__sfp>:
 800ae80:	b5f8      	push	{r3, r4, r5, r6, r7, lr}
 800ae82:	4607      	mov	r7, r0
 800ae84:	f7ff ffac 	bl	800ade0 <__sfp_lock_acquire>
 800ae88:	4b1e      	ldr	r3, [pc, #120]	; (800af04 <__sfp+0x84>)
 800ae8a:	681e      	ldr	r6, [r3, #0]
 800ae8c:	69b3      	ldr	r3, [r6, #24]
 800ae8e:	b913      	cbnz	r3, 800ae96 <__sfp+0x16>
 800ae90:	4630      	mov	r0, r6
 800ae92:	f7ff ffbd 	bl	800ae10 <__sinit>
 800ae96:	3648      	adds	r6, #72	; 0x48
 800ae98:	e9d6 3401 	ldrd	r3, r4, [r6, #4]
 800ae9c:	3b01      	subs	r3, #1
 800ae9e:	d503      	bpl.n	800aea8 <__sfp+0x28>
 800aea0:	6833      	ldr	r3, [r6, #0]
 800aea2:	b30b      	cbz	r3, 800aee8 <__sfp+0x68>
 800aea4:	6836      	ldr	r6, [r6, #0]
 800aea6:	e7f7      	b.n	800ae98 <__sfp+0x18>
 800aea8:	f9b4 500c 	ldrsh.w	r5, [r4, #12]
 800aeac:	b9d5      	cbnz	r5, 800aee4 <__sfp+0x64>
 800aeae:	4b16      	ldr	r3, [pc, #88]	; (800af08 <__sfp+0x88>)
 800aeb0:	60e3      	str	r3, [r4, #12]
 800aeb2:	f104 0058 	add.w	r0, r4, #88	; 0x58
 800aeb6:	6665      	str	r5, [r4, #100]	; 0x64
 800aeb8:	f000 f84c 	bl	800af54 <__retarget_lock_init_recursive>
 800aebc:	f7ff ff96 	bl	800adec <__sfp_lock_release>
 800aec0:	e9c4 5501 	strd	r5, r5, [r4, #4]
 800aec4:	e9c4 5504 	strd	r5, r5, [r4, #16]
 800aec8:	6025      	str	r5, [r4, #0]
 800aeca:	61a5      	str	r5, [r4, #24]
 800aecc:	2208      	movs	r2, #8
 800aece:	4629      	mov	r1, r5
 800aed0:	f104 005c 	add.w	r0, r4, #92	; 0x5c
 800aed4:	f7fe f978 	bl	80091c8 <memset>
 800aed8:	e9c4 550d 	strd	r5, r5, [r4, #52]	; 0x34
 800aedc:	e9c4 5512 	strd	r5, r5, [r4, #72]	; 0x48
 800aee0:	4620      	mov	r0, r4
 800aee2:	bdf8      	pop	{r3, r4, r5, r6, r7, pc}
 800aee4:	3468      	adds	r4, #104	; 0x68
 800aee6:	e7d9      	b.n	800ae9c <__sfp+0x1c>
 800aee8:	2104      	movs	r1, #4
 800aeea:	4638      	mov	r0, r7
 800aeec:	f7ff ff62 	bl	800adb4 <__sfmoreglue>
 800aef0:	4604      	mov	r4, r0
 800aef2:	6030      	str	r0, [r6, #0]
 800aef4:	2800      	cmp	r0, #0
 800aef6:	d1d5      	bne.n	800aea4 <__sfp+0x24>
 800aef8:	f7ff ff78 	bl	800adec <__sfp_lock_release>
 800aefc:	230c      	movs	r3, #12
 800aefe:	603b      	str	r3, [r7, #0]
 800af00:	e7ee      	b.n	800aee0 <__sfp+0x60>
 800af02:	bf00      	nop
 800af04:	0800c4c8 	.word	0x0800c4c8
 800af08:	ffff0001 	.word	0xffff0001

0800af0c <_fwalk_reent>:
 800af0c:	e92d 43f8 	stmdb	sp!, {r3, r4, r5, r6, r7, r8, r9, lr}
 800af10:	4606      	mov	r6, r0
 800af12:	4688      	mov	r8, r1
 800af14:	f100 0448 	add.w	r4, r0, #72	; 0x48
 800af18:	2700      	movs	r7, #0
 800af1a:	e9d4 9501 	ldrd	r9, r5, [r4, #4]
 800af1e:	f1b9 0901 	subs.w	r9, r9, #1
 800af22:	d505      	bpl.n	800af30 <_fwalk_reent+0x24>
 800af24:	6824      	ldr	r4, [r4, #0]
 800af26:	2c00      	cmp	r4, #0
 800af28:	d1f7      	bne.n	800af1a <_fwalk_reent+0xe>
 800af2a:	4638      	mov	r0, r7
 800af2c:	e8bd 83f8 	ldmia.w	sp!, {r3, r4, r5, r6, r7, r8, r9, pc}
 800af30:	89ab      	ldrh	r3, [r5, #12]
 800af32:	2b01      	cmp	r3, #1
 800af34:	d907      	bls.n	800af46 <_fwalk_reent+0x3a>
 800af36:	f9b5 300e 	ldrsh.w	r3, [r5, #14]
 800af3a:	3301      	adds	r3, #1
 800af3c:	d003      	beq.n	800af46 <_fwalk_reent+0x3a>
 800af3e:	4629      	mov	r1, r5
 800af40:	4630      	mov	r0, r6
 800af42:	47c0      	blx	r8
 800af44:	4307      	orrs	r7, r0
 800af46:	3568      	adds	r5, #104	; 0x68
 800af48:	e7e9      	b.n	800af1e <_fwalk_reent+0x12>
	...

0800af4c <_localeconv_r>:
 800af4c:	4800      	ldr	r0, [pc, #0]	; (800af50 <_localeconv_r+0x4>)
 800af4e:	4770      	bx	lr
 800af50:	20000184 	.word	0x20000184

0800af54 <__retarget_lock_init_recursive>:
 800af54:	4770      	bx	lr

0800af56 <__retarget_lock_acquire_recursive>:
 800af56:	4770      	bx	lr

0800af58 <__retarget_lock_release_recursive>:
 800af58:	4770      	bx	lr

0800af5a <__swhatbuf_r>:
 800af5a:	b570      	push	{r4, r5, r6, lr}
 800af5c:	460e      	mov	r6, r1
 800af5e:	f9b1 100e 	ldrsh.w	r1, [r1, #14]
 800af62:	2900      	cmp	r1, #0
 800af64:	b096      	sub	sp, #88	; 0x58
 800af66:	4614      	mov	r4, r2
 800af68:	461d      	mov	r5, r3
 800af6a:	da08      	bge.n	800af7e <__swhatbuf_r+0x24>
 800af6c:	f9b6 300c 	ldrsh.w	r3, [r6, #12]
 800af70:	2200      	movs	r2, #0
 800af72:	602a      	str	r2, [r5, #0]
 800af74:	061a      	lsls	r2, r3, #24
 800af76:	d410      	bmi.n	800af9a <__swhatbuf_r+0x40>
 800af78:	f44f 6380 	mov.w	r3, #1024	; 0x400
 800af7c:	e00e      	b.n	800af9c <__swhatbuf_r+0x42>
 800af7e:	466a      	mov	r2, sp
 800af80:	f000 fed2 	bl	800bd28 <_fstat_r>
 800af84:	2800      	cmp	r0, #0
 800af86:	dbf1      	blt.n	800af6c <__swhatbuf_r+0x12>
 800af88:	9a01      	ldr	r2, [sp, #4]
 800af8a:	f402 4270 	and.w	r2, r2, #61440	; 0xf000
 800af8e:	f5a2 5300 	sub.w	r3, r2, #8192	; 0x2000
 800af92:	425a      	negs	r2, r3
 800af94:	415a      	adcs	r2, r3
 800af96:	602a      	str	r2, [r5, #0]
 800af98:	e7ee      	b.n	800af78 <__swhatbuf_r+0x1e>
 800af9a:	2340      	movs	r3, #64	; 0x40
 800af9c:	2000      	movs	r0, #0
 800af9e:	6023      	str	r3, [r4, #0]
 800afa0:	b016      	add	sp, #88	; 0x58
 800afa2:	bd70      	pop	{r4, r5, r6, pc}

0800afa4 <__smakebuf_r>:
 800afa4:	898b      	ldrh	r3, [r1, #12]
 800afa6:	b573      	push	{r0, r1, r4, r5, r6, lr}
 800afa8:	079d      	lsls	r5, r3, #30
 800afaa:	4606      	mov	r6, r0
 800afac:	460c      	mov	r4, r1
 800afae:	d507      	bpl.n	800afc0 <__smakebuf_r+0x1c>
 800afb0:	f104 0347 	add.w	r3, r4, #71	; 0x47
 800afb4:	6023      	str	r3, [r4, #0]
 800afb6:	6123      	str	r3, [r4, #16]
 800afb8:	2301      	movs	r3, #1
 800afba:	6163      	str	r3, [r4, #20]
 800afbc:	b002      	add	sp, #8
 800afbe:	bd70      	pop	{r4, r5, r6, pc}
 800afc0:	ab01      	add	r3, sp, #4
 800afc2:	466a      	mov	r2, sp
 800afc4:	f7ff ffc9 	bl	800af5a <__swhatbuf_r>
 800afc8:	9900      	ldr	r1, [sp, #0]
 800afca:	4605      	mov	r5, r0
 800afcc:	4630      	mov	r0, r6
 800afce:	f000 fc37 	bl	800b840 <_malloc_r>
 800afd2:	b948      	cbnz	r0, 800afe8 <__smakebuf_r+0x44>
 800afd4:	f9b4 300c 	ldrsh.w	r3, [r4, #12]
 800afd8:	059a      	lsls	r2, r3, #22
 800afda:	d4ef      	bmi.n	800afbc <__smakebuf_r+0x18>
 800afdc:	f023 0303 	bic.w	r3, r3, #3
 800afe0:	f043 0302 	orr.w	r3, r3, #2
 800afe4:	81a3      	strh	r3, [r4, #12]
 800afe6:	e7e3      	b.n	800afb0 <__smakebuf_r+0xc>
 800afe8:	4b0d      	ldr	r3, [pc, #52]	; (800b020 <__smakebuf_r+0x7c>)
 800afea:	62b3      	str	r3, [r6, #40]	; 0x28
 800afec:	89a3      	ldrh	r3, [r4, #12]
 800afee:	6020      	str	r0, [r4, #0]
 800aff0:	f043 0380 	orr.w	r3, r3, #128	; 0x80
 800aff4:	81a3      	strh	r3, [r4, #12]
 800aff6:	9b00      	ldr	r3, [sp, #0]
 800aff8:	6163      	str	r3, [r4, #20]
 800affa:	9b01      	ldr	r3, [sp, #4]
 800affc:	6120      	str	r0, [r4, #16]
 800affe:	b15b      	cbz	r3, 800b018 <__smakebuf_r+0x74>
 800b000:	f9b4 100e 	ldrsh.w	r1, [r4, #14]
 800b004:	4630      	mov	r0, r6
 800b006:	f000 fea1 	bl	800bd4c <_isatty_r>
 800b00a:	b128      	cbz	r0, 800b018 <__smakebuf_r+0x74>
 800b00c:	89a3      	ldrh	r3, [r4, #12]
 800b00e:	f023 0303 	bic.w	r3, r3, #3
 800b012:	f043 0301 	orr.w	r3, r3, #1
 800b016:	81a3      	strh	r3, [r4, #12]
 800b018:	89a0      	ldrh	r0, [r4, #12]
 800b01a:	4305      	orrs	r5, r0
 800b01c:	81a5      	strh	r5, [r4, #12]
 800b01e:	e7cd      	b.n	800afbc <__smakebuf_r+0x18>
 800b020:	0800ada9 	.word	0x0800ada9

0800b024 <malloc>:
 800b024:	4b02      	ldr	r3, [pc, #8]	; (800b030 <malloc+0xc>)
 800b026:	4601      	mov	r1, r0
 800b028:	6818      	ldr	r0, [r3, #0]
 800b02a:	f000 bc09 	b.w	800b840 <_malloc_r>
 800b02e:	bf00      	nop
 800b030:	20000030 	.word	0x20000030

0800b034 <_Balloc>:
 800b034:	b570      	push	{r4, r5, r6, lr}
 800b036:	6a46      	ldr	r6, [r0, #36]	; 0x24
 800b038:	4604      	mov	r4, r0
 800b03a:	460d      	mov	r5, r1
 800b03c:	b976      	cbnz	r6, 800b05c <_Balloc+0x28>
 800b03e:	2010      	movs	r0, #16
 800b040:	f7ff fff0 	bl	800b024 <malloc>
 800b044:	4602      	mov	r2, r0
 800b046:	6260      	str	r0, [r4, #36]	; 0x24
 800b048:	b920      	cbnz	r0, 800b054 <_Balloc+0x20>
 800b04a:	4b18      	ldr	r3, [pc, #96]	; (800b0ac <_Balloc+0x78>)
 800b04c:	4818      	ldr	r0, [pc, #96]	; (800b0b0 <_Balloc+0x7c>)
 800b04e:	2166      	movs	r1, #102	; 0x66
 800b050:	f000 fe2a 	bl	800bca8 <__assert_func>
 800b054:	e9c0 6601 	strd	r6, r6, [r0, #4]
 800b058:	6006      	str	r6, [r0, #0]
 800b05a:	60c6      	str	r6, [r0, #12]
 800b05c:	6a66      	ldr	r6, [r4, #36]	; 0x24
 800b05e:	68f3      	ldr	r3, [r6, #12]
 800b060:	b183      	cbz	r3, 800b084 <_Balloc+0x50>
 800b062:	6a63      	ldr	r3, [r4, #36]	; 0x24
 800b064:	68db      	ldr	r3, [r3, #12]
 800b066:	f853 0025 	ldr.w	r0, [r3, r5, lsl #2]
 800b06a:	b9b8      	cbnz	r0, 800b09c <_Balloc+0x68>
 800b06c:	2101      	movs	r1, #1
 800b06e:	fa01 f605 	lsl.w	r6, r1, r5
 800b072:	1d72      	adds	r2, r6, #5
 800b074:	0092      	lsls	r2, r2, #2
 800b076:	4620      	mov	r0, r4
 800b078:	f000 fb60 	bl	800b73c <_calloc_r>
 800b07c:	b160      	cbz	r0, 800b098 <_Balloc+0x64>
 800b07e:	e9c0 5601 	strd	r5, r6, [r0, #4]
 800b082:	e00e      	b.n	800b0a2 <_Balloc+0x6e>
 800b084:	2221      	movs	r2, #33	; 0x21
 800b086:	2104      	movs	r1, #4
 800b088:	4620      	mov	r0, r4
 800b08a:	f000 fb57 	bl	800b73c <_calloc_r>
 800b08e:	6a63      	ldr	r3, [r4, #36]	; 0x24
 800b090:	60f0      	str	r0, [r6, #12]
 800b092:	68db      	ldr	r3, [r3, #12]
 800b094:	2b00      	cmp	r3, #0
 800b096:	d1e4      	bne.n	800b062 <_Balloc+0x2e>
 800b098:	2000      	movs	r0, #0
 800b09a:	bd70      	pop	{r4, r5, r6, pc}
 800b09c:	6802      	ldr	r2, [r0, #0]
 800b09e:	f843 2025 	str.w	r2, [r3, r5, lsl #2]
 800b0a2:	2300      	movs	r3, #0
 800b0a4:	e9c0 3303 	strd	r3, r3, [r0, #12]
 800b0a8:	e7f7      	b.n	800b09a <_Balloc+0x66>
 800b0aa:	bf00      	nop
 800b0ac:	0800c50d 	.word	0x0800c50d
 800b0b0:	0800c5f0 	.word	0x0800c5f0

0800b0b4 <_Bfree>:
 800b0b4:	b570      	push	{r4, r5, r6, lr}
 800b0b6:	6a46      	ldr	r6, [r0, #36]	; 0x24
 800b0b8:	4605      	mov	r5, r0
 800b0ba:	460c      	mov	r4, r1
 800b0bc:	b976      	cbnz	r6, 800b0dc <_Bfree+0x28>
 800b0be:	2010      	movs	r0, #16
 800b0c0:	f7ff ffb0 	bl	800b024 <malloc>
 800b0c4:	4602      	mov	r2, r0
 800b0c6:	6268      	str	r0, [r5, #36]	; 0x24
 800b0c8:	b920      	cbnz	r0, 800b0d4 <_Bfree+0x20>
 800b0ca:	4b09      	ldr	r3, [pc, #36]	; (800b0f0 <_Bfree+0x3c>)
 800b0cc:	4809      	ldr	r0, [pc, #36]	; (800b0f4 <_Bfree+0x40>)
 800b0ce:	218a      	movs	r1, #138	; 0x8a
 800b0d0:	f000 fdea 	bl	800bca8 <__assert_func>
 800b0d4:	e9c0 6601 	strd	r6, r6, [r0, #4]
 800b0d8:	6006      	str	r6, [r0, #0]
 800b0da:	60c6      	str	r6, [r0, #12]
 800b0dc:	b13c      	cbz	r4, 800b0ee <_Bfree+0x3a>
 800b0de:	6a6b      	ldr	r3, [r5, #36]	; 0x24
 800b0e0:	6862      	ldr	r2, [r4, #4]
 800b0e2:	68db      	ldr	r3, [r3, #12]
 800b0e4:	f853 1022 	ldr.w	r1, [r3, r2, lsl #2]
 800b0e8:	6021      	str	r1, [r4, #0]
 800b0ea:	f843 4022 	str.w	r4, [r3, r2, lsl #2]
 800b0ee:	bd70      	pop	{r4, r5, r6, pc}
 800b0f0:	0800c50d 	.word	0x0800c50d
 800b0f4:	0800c5f0 	.word	0x0800c5f0

0800b0f8 <__multadd>:
 800b0f8:	e92d 41f0 	stmdb	sp!, {r4, r5, r6, r7, r8, lr}
 800b0fc:	690d      	ldr	r5, [r1, #16]
 800b0fe:	4607      	mov	r7, r0
 800b100:	460c      	mov	r4, r1
 800b102:	461e      	mov	r6, r3
 800b104:	f101 0c14 	add.w	ip, r1, #20
 800b108:	2000      	movs	r0, #0
 800b10a:	f8dc 3000 	ldr.w	r3, [ip]
 800b10e:	b299      	uxth	r1, r3
 800b110:	fb02 6101 	mla	r1, r2, r1, r6
 800b114:	0c1e      	lsrs	r6, r3, #16
 800b116:	0c0b      	lsrs	r3, r1, #16
 800b118:	fb02 3306 	mla	r3, r2, r6, r3
 800b11c:	b289      	uxth	r1, r1
 800b11e:	3001      	adds	r0, #1
 800b120:	eb01 4103 	add.w	r1, r1, r3, lsl #16
 800b124:	4285      	cmp	r5, r0
 800b126:	f84c 1b04 	str.w	r1, [ip], #4
 800b12a:	ea4f 4613 	mov.w	r6, r3, lsr #16
 800b12e:	dcec      	bgt.n	800b10a <__multadd+0x12>
 800b130:	b30e      	cbz	r6, 800b176 <__multadd+0x7e>
 800b132:	68a3      	ldr	r3, [r4, #8]
 800b134:	42ab      	cmp	r3, r5
 800b136:	dc19      	bgt.n	800b16c <__multadd+0x74>
 800b138:	6861      	ldr	r1, [r4, #4]
 800b13a:	4638      	mov	r0, r7
 800b13c:	3101      	adds	r1, #1
 800b13e:	f7ff ff79 	bl	800b034 <_Balloc>
 800b142:	4680      	mov	r8, r0
 800b144:	b928      	cbnz	r0, 800b152 <__multadd+0x5a>
 800b146:	4602      	mov	r2, r0
 800b148:	4b0c      	ldr	r3, [pc, #48]	; (800b17c <__multadd+0x84>)
 800b14a:	480d      	ldr	r0, [pc, #52]	; (800b180 <__multadd+0x88>)
 800b14c:	21b5      	movs	r1, #181	; 0xb5
 800b14e:	f000 fdab 	bl	800bca8 <__assert_func>
 800b152:	6922      	ldr	r2, [r4, #16]
 800b154:	3202      	adds	r2, #2
 800b156:	f104 010c 	add.w	r1, r4, #12
 800b15a:	0092      	lsls	r2, r2, #2
 800b15c:	300c      	adds	r0, #12
 800b15e:	f7fe f825 	bl	80091ac <memcpy>
 800b162:	4621      	mov	r1, r4
 800b164:	4638      	mov	r0, r7
 800b166:	f7ff ffa5 	bl	800b0b4 <_Bfree>
 800b16a:	4644      	mov	r4, r8
 800b16c:	eb04 0385 	add.w	r3, r4, r5, lsl #2
 800b170:	3501      	adds	r5, #1
 800b172:	615e      	str	r6, [r3, #20]
 800b174:	6125      	str	r5, [r4, #16]
 800b176:	4620      	mov	r0, r4
 800b178:	e8bd 81f0 	ldmia.w	sp!, {r4, r5, r6, r7, r8, pc}
 800b17c:	0800c57f 	.word	0x0800c57f
 800b180:	0800c5f0 	.word	0x0800c5f0

0800b184 <__hi0bits>:
 800b184:	0c03      	lsrs	r3, r0, #16
 800b186:	041b      	lsls	r3, r3, #16
 800b188:	b9d3      	cbnz	r3, 800b1c0 <__hi0bits+0x3c>
 800b18a:	0400      	lsls	r0, r0, #16
 800b18c:	2310      	movs	r3, #16
 800b18e:	f010 4f7f 	tst.w	r0, #4278190080	; 0xff000000
 800b192:	bf04      	itt	eq
 800b194:	0200      	lsleq	r0, r0, #8
 800b196:	3308      	addeq	r3, #8
 800b198:	f010 4f70 	tst.w	r0, #4026531840	; 0xf0000000
 800b19c:	bf04      	itt	eq
 800b19e:	0100      	lsleq	r0, r0, #4
 800b1a0:	3304      	addeq	r3, #4
 800b1a2:	f010 4f40 	tst.w	r0, #3221225472	; 0xc0000000
 800b1a6:	bf04      	itt	eq
 800b1a8:	0080      	lsleq	r0, r0, #2
 800b1aa:	3302      	addeq	r3, #2
 800b1ac:	2800      	cmp	r0, #0
 800b1ae:	db05      	blt.n	800b1bc <__hi0bits+0x38>
 800b1b0:	f010 4f80 	tst.w	r0, #1073741824	; 0x40000000
 800b1b4:	f103 0301 	add.w	r3, r3, #1
 800b1b8:	bf08      	it	eq
 800b1ba:	2320      	moveq	r3, #32
 800b1bc:	4618      	mov	r0, r3
 800b1be:	4770      	bx	lr
 800b1c0:	2300      	movs	r3, #0
 800b1c2:	e7e4      	b.n	800b18e <__hi0bits+0xa>

0800b1c4 <__lo0bits>:
 800b1c4:	6803      	ldr	r3, [r0, #0]
 800b1c6:	f013 0207 	ands.w	r2, r3, #7
 800b1ca:	4601      	mov	r1, r0
 800b1cc:	d00b      	beq.n	800b1e6 <__lo0bits+0x22>
 800b1ce:	07da      	lsls	r2, r3, #31
 800b1d0:	d423      	bmi.n	800b21a <__lo0bits+0x56>
 800b1d2:	0798      	lsls	r0, r3, #30
 800b1d4:	bf49      	itett	mi
 800b1d6:	085b      	lsrmi	r3, r3, #1
 800b1d8:	089b      	lsrpl	r3, r3, #2
 800b1da:	2001      	movmi	r0, #1
 800b1dc:	600b      	strmi	r3, [r1, #0]
 800b1de:	bf5c      	itt	pl
 800b1e0:	600b      	strpl	r3, [r1, #0]
 800b1e2:	2002      	movpl	r0, #2
 800b1e4:	4770      	bx	lr
 800b1e6:	b298      	uxth	r0, r3
 800b1e8:	b9a8      	cbnz	r0, 800b216 <__lo0bits+0x52>
 800b1ea:	0c1b      	lsrs	r3, r3, #16
 800b1ec:	2010      	movs	r0, #16
 800b1ee:	b2da      	uxtb	r2, r3
 800b1f0:	b90a      	cbnz	r2, 800b1f6 <__lo0bits+0x32>
 800b1f2:	3008      	adds	r0, #8
 800b1f4:	0a1b      	lsrs	r3, r3, #8
 800b1f6:	071a      	lsls	r2, r3, #28
 800b1f8:	bf04      	itt	eq
 800b1fa:	091b      	lsreq	r3, r3, #4
 800b1fc:	3004      	addeq	r0, #4
 800b1fe:	079a      	lsls	r2, r3, #30
 800b200:	bf04      	itt	eq
 800b202:	089b      	lsreq	r3, r3, #2
 800b204:	3002      	addeq	r0, #2
 800b206:	07da      	lsls	r2, r3, #31
 800b208:	d403      	bmi.n	800b212 <__lo0bits+0x4e>
 800b20a:	085b      	lsrs	r3, r3, #1
 800b20c:	f100 0001 	add.w	r0, r0, #1
 800b210:	d005      	beq.n	800b21e <__lo0bits+0x5a>
 800b212:	600b      	str	r3, [r1, #0]
 800b214:	4770      	bx	lr
 800b216:	4610      	mov	r0, r2
 800b218:	e7e9      	b.n	800b1ee <__lo0bits+0x2a>
 800b21a:	2000      	movs	r0, #0
 800b21c:	4770      	bx	lr
 800b21e:	2020      	movs	r0, #32
 800b220:	4770      	bx	lr
	...

0800b224 <__i2b>:
 800b224:	b510      	push	{r4, lr}
 800b226:	460c      	mov	r4, r1
 800b228:	2101      	movs	r1, #1
 800b22a:	f7ff ff03 	bl	800b034 <_Balloc>
 800b22e:	4602      	mov	r2, r0
 800b230:	b928      	cbnz	r0, 800b23e <__i2b+0x1a>
 800b232:	4b05      	ldr	r3, [pc, #20]	; (800b248 <__i2b+0x24>)
 800b234:	4805      	ldr	r0, [pc, #20]	; (800b24c <__i2b+0x28>)
 800b236:	f44f 71a0 	mov.w	r1, #320	; 0x140
 800b23a:	f000 fd35 	bl	800bca8 <__assert_func>
 800b23e:	2301      	movs	r3, #1
 800b240:	6144      	str	r4, [r0, #20]
 800b242:	6103      	str	r3, [r0, #16]
 800b244:	bd10      	pop	{r4, pc}
 800b246:	bf00      	nop
 800b248:	0800c57f 	.word	0x0800c57f
 800b24c:	0800c5f0 	.word	0x0800c5f0

0800b250 <__multiply>:
 800b250:	e92d 4ff0 	stmdb	sp!, {r4, r5, r6, r7, r8, r9, sl, fp, lr}
 800b254:	4691      	mov	r9, r2
 800b256:	690a      	ldr	r2, [r1, #16]
 800b258:	f8d9 3010 	ldr.w	r3, [r9, #16]
 800b25c:	429a      	cmp	r2, r3
 800b25e:	bfb8      	it	lt
 800b260:	460b      	movlt	r3, r1
 800b262:	460c      	mov	r4, r1
 800b264:	bfbc      	itt	lt
 800b266:	464c      	movlt	r4, r9
 800b268:	4699      	movlt	r9, r3
 800b26a:	6927      	ldr	r7, [r4, #16]
 800b26c:	f8d9 a010 	ldr.w	sl, [r9, #16]
 800b270:	68a3      	ldr	r3, [r4, #8]
 800b272:	6861      	ldr	r1, [r4, #4]
 800b274:	eb07 060a 	add.w	r6, r7, sl
 800b278:	42b3      	cmp	r3, r6
 800b27a:	b085      	sub	sp, #20
 800b27c:	bfb8      	it	lt
 800b27e:	3101      	addlt	r1, #1
 800b280:	f7ff fed8 	bl	800b034 <_Balloc>
 800b284:	b930      	cbnz	r0, 800b294 <__multiply+0x44>
 800b286:	4602      	mov	r2, r0
 800b288:	4b44      	ldr	r3, [pc, #272]	; (800b39c <__multiply+0x14c>)
 800b28a:	4845      	ldr	r0, [pc, #276]	; (800b3a0 <__multiply+0x150>)
 800b28c:	f240 115d 	movw	r1, #349	; 0x15d
 800b290:	f000 fd0a 	bl	800bca8 <__assert_func>
 800b294:	f100 0514 	add.w	r5, r0, #20
 800b298:	eb05 0886 	add.w	r8, r5, r6, lsl #2
 800b29c:	462b      	mov	r3, r5
 800b29e:	2200      	movs	r2, #0
 800b2a0:	4543      	cmp	r3, r8
 800b2a2:	d321      	bcc.n	800b2e8 <__multiply+0x98>
 800b2a4:	f104 0314 	add.w	r3, r4, #20
 800b2a8:	eb03 0787 	add.w	r7, r3, r7, lsl #2
 800b2ac:	f109 0314 	add.w	r3, r9, #20
 800b2b0:	eb03 028a 	add.w	r2, r3, sl, lsl #2
 800b2b4:	9202      	str	r2, [sp, #8]
 800b2b6:	1b3a      	subs	r2, r7, r4
 800b2b8:	3a15      	subs	r2, #21
 800b2ba:	f022 0203 	bic.w	r2, r2, #3
 800b2be:	3204      	adds	r2, #4
 800b2c0:	f104 0115 	add.w	r1, r4, #21
 800b2c4:	428f      	cmp	r7, r1
 800b2c6:	bf38      	it	cc
 800b2c8:	2204      	movcc	r2, #4
 800b2ca:	9201      	str	r2, [sp, #4]
 800b2cc:	9a02      	ldr	r2, [sp, #8]
 800b2ce:	9303      	str	r3, [sp, #12]
 800b2d0:	429a      	cmp	r2, r3
 800b2d2:	d80c      	bhi.n	800b2ee <__multiply+0x9e>
 800b2d4:	2e00      	cmp	r6, #0
 800b2d6:	dd03      	ble.n	800b2e0 <__multiply+0x90>
 800b2d8:	f858 3d04 	ldr.w	r3, [r8, #-4]!
 800b2dc:	2b00      	cmp	r3, #0
 800b2de:	d05a      	beq.n	800b396 <__multiply+0x146>
 800b2e0:	6106      	str	r6, [r0, #16]
 800b2e2:	b005      	add	sp, #20
 800b2e4:	e8bd 8ff0 	ldmia.w	sp!, {r4, r5, r6, r7, r8, r9, sl, fp, pc}
 800b2e8:	f843 2b04 	str.w	r2, [r3], #4
 800b2ec:	e7d8      	b.n	800b2a0 <__multiply+0x50>
 800b2ee:	f8b3 a000 	ldrh.w	sl, [r3]
 800b2f2:	f1ba 0f00 	cmp.w	sl, #0
 800b2f6:	d024      	beq.n	800b342 <__multiply+0xf2>
 800b2f8:	f104 0e14 	add.w	lr, r4, #20
 800b2fc:	46a9      	mov	r9, r5
 800b2fe:	f04f 0c00 	mov.w	ip, #0
 800b302:	f85e 2b04 	ldr.w	r2, [lr], #4
 800b306:	f8d9 1000 	ldr.w	r1, [r9]
 800b30a:	fa1f fb82 	uxth.w	fp, r2
 800b30e:	b289      	uxth	r1, r1
 800b310:	fb0a 110b 	mla	r1, sl, fp, r1
 800b314:	ea4f 4b12 	mov.w	fp, r2, lsr #16
 800b318:	f8d9 2000 	ldr.w	r2, [r9]
 800b31c:	4461      	add	r1, ip
 800b31e:	ea4f 4c12 	mov.w	ip, r2, lsr #16
 800b322:	fb0a c20b 	mla	r2, sl, fp, ip
 800b326:	eb02 4211 	add.w	r2, r2, r1, lsr #16
 800b32a:	b289      	uxth	r1, r1
 800b32c:	ea41 4102 	orr.w	r1, r1, r2, lsl #16
 800b330:	4577      	cmp	r7, lr
 800b332:	f849 1b04 	str.w	r1, [r9], #4
 800b336:	ea4f 4c12 	mov.w	ip, r2, lsr #16
 800b33a:	d8e2      	bhi.n	800b302 <__multiply+0xb2>
 800b33c:	9a01      	ldr	r2, [sp, #4]
 800b33e:	f845 c002 	str.w	ip, [r5, r2]
 800b342:	9a03      	ldr	r2, [sp, #12]
 800b344:	f8b2 9002 	ldrh.w	r9, [r2, #2]
 800b348:	3304      	adds	r3, #4
 800b34a:	f1b9 0f00 	cmp.w	r9, #0
 800b34e:	d020      	beq.n	800b392 <__multiply+0x142>
 800b350:	6829      	ldr	r1, [r5, #0]
 800b352:	f104 0c14 	add.w	ip, r4, #20
 800b356:	46ae      	mov	lr, r5
 800b358:	f04f 0a00 	mov.w	sl, #0
 800b35c:	f8bc b000 	ldrh.w	fp, [ip]
 800b360:	f8be 2002 	ldrh.w	r2, [lr, #2]
 800b364:	fb09 220b 	mla	r2, r9, fp, r2
 800b368:	4492      	add	sl, r2
 800b36a:	b289      	uxth	r1, r1
 800b36c:	ea41 410a 	orr.w	r1, r1, sl, lsl #16
 800b370:	f84e 1b04 	str.w	r1, [lr], #4
 800b374:	f85c 2b04 	ldr.w	r2, [ip], #4
 800b378:	f8be 1000 	ldrh.w	r1, [lr]
 800b37c:	0c12      	lsrs	r2, r2, #16
 800b37e:	fb09 1102 	mla	r1, r9, r2, r1
 800b382:	eb01 411a 	add.w	r1, r1, sl, lsr #16
 800b386:	4567      	cmp	r7, ip
 800b388:	ea4f 4a11 	mov.w	sl, r1, lsr #16
 800b38c:	d8e6      	bhi.n	800b35c <__multiply+0x10c>
 800b38e:	9a01      	ldr	r2, [sp, #4]
 800b390:	50a9      	str	r1, [r5, r2]
 800b392:	3504      	adds	r5, #4
 800b394:	e79a      	b.n	800b2cc <__multiply+0x7c>
 800b396:	3e01      	subs	r6, #1
 800b398:	e79c      	b.n	800b2d4 <__multiply+0x84>
 800b39a:	bf00      	nop
 800b39c:	0800c57f 	.word	0x0800c57f
 800b3a0:	0800c5f0 	.word	0x0800c5f0

0800b3a4 <__pow5mult>:
 800b3a4:	e92d 43f8 	stmdb	sp!, {r3, r4, r5, r6, r7, r8, r9, lr}
 800b3a8:	4615      	mov	r5, r2
 800b3aa:	f012 0203 	ands.w	r2, r2, #3
 800b3ae:	4606      	mov	r6, r0
 800b3b0:	460f      	mov	r7, r1
 800b3b2:	d007      	beq.n	800b3c4 <__pow5mult+0x20>
 800b3b4:	4c25      	ldr	r4, [pc, #148]	; (800b44c <__pow5mult+0xa8>)
 800b3b6:	3a01      	subs	r2, #1
 800b3b8:	2300      	movs	r3, #0
 800b3ba:	f854 2022 	ldr.w	r2, [r4, r2, lsl #2]
 800b3be:	f7ff fe9b 	bl	800b0f8 <__multadd>
 800b3c2:	4607      	mov	r7, r0
 800b3c4:	10ad      	asrs	r5, r5, #2
 800b3c6:	d03d      	beq.n	800b444 <__pow5mult+0xa0>
 800b3c8:	6a74      	ldr	r4, [r6, #36]	; 0x24
 800b3ca:	b97c      	cbnz	r4, 800b3ec <__pow5mult+0x48>
 800b3cc:	2010      	movs	r0, #16
 800b3ce:	f7ff fe29 	bl	800b024 <malloc>
 800b3d2:	4602      	mov	r2, r0
 800b3d4:	6270      	str	r0, [r6, #36]	; 0x24
 800b3d6:	b928      	cbnz	r0, 800b3e4 <__pow5mult+0x40>
 800b3d8:	4b1d      	ldr	r3, [pc, #116]	; (800b450 <__pow5mult+0xac>)
 800b3da:	481e      	ldr	r0, [pc, #120]	; (800b454 <__pow5mult+0xb0>)
 800b3dc:	f44f 71d7 	mov.w	r1, #430	; 0x1ae
 800b3e0:	f000 fc62 	bl	800bca8 <__assert_func>
 800b3e4:	e9c0 4401 	strd	r4, r4, [r0, #4]
 800b3e8:	6004      	str	r4, [r0, #0]
 800b3ea:	60c4      	str	r4, [r0, #12]
 800b3ec:	f8d6 8024 	ldr.w	r8, [r6, #36]	; 0x24
 800b3f0:	f8d8 4008 	ldr.w	r4, [r8, #8]
 800b3f4:	b94c      	cbnz	r4, 800b40a <__pow5mult+0x66>
 800b3f6:	f240 2171 	movw	r1, #625	; 0x271
 800b3fa:	4630      	mov	r0, r6
 800b3fc:	f7ff ff12 	bl	800b224 <__i2b>
 800b400:	2300      	movs	r3, #0
 800b402:	f8c8 0008 	str.w	r0, [r8, #8]
 800b406:	4604      	mov	r4, r0
 800b408:	6003      	str	r3, [r0, #0]
 800b40a:	f04f 0900 	mov.w	r9, #0
 800b40e:	07eb      	lsls	r3, r5, #31
 800b410:	d50a      	bpl.n	800b428 <__pow5mult+0x84>
 800b412:	4639      	mov	r1, r7
 800b414:	4622      	mov	r2, r4
 800b416:	4630      	mov	r0, r6
 800b418:	f7ff ff1a 	bl	800b250 <__multiply>
 800b41c:	4639      	mov	r1, r7
 800b41e:	4680      	mov	r8, r0
 800b420:	4630      	mov	r0, r6
 800b422:	f7ff fe47 	bl	800b0b4 <_Bfree>
 800b426:	4647      	mov	r7, r8
 800b428:	106d      	asrs	r5, r5, #1
 800b42a:	d00b      	beq.n	800b444 <__pow5mult+0xa0>
 800b42c:	6820      	ldr	r0, [r4, #0]
 800b42e:	b938      	cbnz	r0, 800b440 <__pow5mult+0x9c>
 800b430:	4622      	mov	r2, r4
 800b432:	4621      	mov	r1, r4
 800b434:	4630      	mov	r0, r6
 800b436:	f7ff ff0b 	bl	800b250 <__multiply>
 800b43a:	6020      	str	r0, [r4, #0]
 800b43c:	f8c0 9000 	str.w	r9, [r0]
 800b440:	4604      	mov	r4, r0
 800b442:	e7e4      	b.n	800b40e <__pow5mult+0x6a>
 800b444:	4638      	mov	r0, r7
 800b446:	e8bd 83f8 	ldmia.w	sp!, {r3, r4, r5, r6, r7, r8, r9, pc}
 800b44a:	bf00      	nop
 800b44c:	0800c740 	.word	0x0800c740
 800b450:	0800c50d 	.word	0x0800c50d
 800b454:	0800c5f0 	.word	0x0800c5f0

0800b458 <__lshift>:
 800b458:	e92d 47f0 	stmdb	sp!, {r4, r5, r6, r7, r8, r9, sl, lr}
 800b45c:	460c      	mov	r4, r1
 800b45e:	6849      	ldr	r1, [r1, #4]
 800b460:	6923      	ldr	r3, [r4, #16]
 800b462:	eb03 1862 	add.w	r8, r3, r2, asr #5
 800b466:	68a3      	ldr	r3, [r4, #8]
 800b468:	4607      	mov	r7, r0
 800b46a:	4691      	mov	r9, r2
 800b46c:	ea4f 1a62 	mov.w	sl, r2, asr #5
 800b470:	f108 0601 	add.w	r6, r8, #1
 800b474:	42b3      	cmp	r3, r6
 800b476:	db0b      	blt.n	800b490 <__lshift+0x38>
 800b478:	4638      	mov	r0, r7
 800b47a:	f7ff fddb 	bl	800b034 <_Balloc>
 800b47e:	4605      	mov	r5, r0
 800b480:	b948      	cbnz	r0, 800b496 <__lshift+0x3e>
 800b482:	4602      	mov	r2, r0
 800b484:	4b2a      	ldr	r3, [pc, #168]	; (800b530 <__lshift+0xd8>)
 800b486:	482b      	ldr	r0, [pc, #172]	; (800b534 <__lshift+0xdc>)
 800b488:	f240 11d9 	movw	r1, #473	; 0x1d9
 800b48c:	f000 fc0c 	bl	800bca8 <__assert_func>
 800b490:	3101      	adds	r1, #1
 800b492:	005b      	lsls	r3, r3, #1
 800b494:	e7ee      	b.n	800b474 <__lshift+0x1c>
 800b496:	2300      	movs	r3, #0
 800b498:	f100 0114 	add.w	r1, r0, #20
 800b49c:	f100 0210 	add.w	r2, r0, #16
 800b4a0:	4618      	mov	r0, r3
 800b4a2:	4553      	cmp	r3, sl
 800b4a4:	db37      	blt.n	800b516 <__lshift+0xbe>
 800b4a6:	6920      	ldr	r0, [r4, #16]
 800b4a8:	ea2a 7aea 	bic.w	sl, sl, sl, asr #31
 800b4ac:	f104 0314 	add.w	r3, r4, #20
 800b4b0:	f019 091f 	ands.w	r9, r9, #31
 800b4b4:	eb01 018a 	add.w	r1, r1, sl, lsl #2
 800b4b8:	eb03 0080 	add.w	r0, r3, r0, lsl #2
 800b4bc:	d02f      	beq.n	800b51e <__lshift+0xc6>
 800b4be:	f1c9 0e20 	rsb	lr, r9, #32
 800b4c2:	468a      	mov	sl, r1
 800b4c4:	f04f 0c00 	mov.w	ip, #0
 800b4c8:	681a      	ldr	r2, [r3, #0]
 800b4ca:	fa02 f209 	lsl.w	r2, r2, r9
 800b4ce:	ea42 020c 	orr.w	r2, r2, ip
 800b4d2:	f84a 2b04 	str.w	r2, [sl], #4
 800b4d6:	f853 2b04 	ldr.w	r2, [r3], #4
 800b4da:	4298      	cmp	r0, r3
 800b4dc:	fa22 fc0e 	lsr.w	ip, r2, lr
 800b4e0:	d8f2      	bhi.n	800b4c8 <__lshift+0x70>
 800b4e2:	1b03      	subs	r3, r0, r4
 800b4e4:	3b15      	subs	r3, #21
 800b4e6:	f023 0303 	bic.w	r3, r3, #3
 800b4ea:	3304      	adds	r3, #4
 800b4ec:	f104 0215 	add.w	r2, r4, #21
 800b4f0:	4290      	cmp	r0, r2
 800b4f2:	bf38      	it	cc
 800b4f4:	2304      	movcc	r3, #4
 800b4f6:	f841 c003 	str.w	ip, [r1, r3]
 800b4fa:	f1bc 0f00 	cmp.w	ip, #0
 800b4fe:	d001      	beq.n	800b504 <__lshift+0xac>
 800b500:	f108 0602 	add.w	r6, r8, #2
 800b504:	3e01      	subs	r6, #1
 800b506:	4638      	mov	r0, r7
 800b508:	612e      	str	r6, [r5, #16]
 800b50a:	4621      	mov	r1, r4
 800b50c:	f7ff fdd2 	bl	800b0b4 <_Bfree>
 800b510:	4628      	mov	r0, r5
 800b512:	e8bd 87f0 	ldmia.w	sp!, {r4, r5, r6, r7, r8, r9, sl, pc}
 800b516:	f842 0f04 	str.w	r0, [r2, #4]!
 800b51a:	3301      	adds	r3, #1
 800b51c:	e7c1      	b.n	800b4a2 <__lshift+0x4a>
 800b51e:	3904      	subs	r1, #4
 800b520:	f853 2b04 	ldr.w	r2, [r3], #4
 800b524:	f841 2f04 	str.w	r2, [r1, #4]!
 800b528:	4298      	cmp	r0, r3
 800b52a:	d8f9      	bhi.n	800b520 <__lshift+0xc8>
 800b52c:	e7ea      	b.n	800b504 <__lshift+0xac>
 800b52e:	bf00      	nop
 800b530:	0800c57f 	.word	0x0800c57f
 800b534:	0800c5f0 	.word	0x0800c5f0

0800b538 <__mcmp>:
 800b538:	b530      	push	{r4, r5, lr}
 800b53a:	6902      	ldr	r2, [r0, #16]
 800b53c:	690c      	ldr	r4, [r1, #16]
 800b53e:	1b12      	subs	r2, r2, r4
 800b540:	d10e      	bne.n	800b560 <__mcmp+0x28>
 800b542:	f100 0314 	add.w	r3, r0, #20
 800b546:	3114      	adds	r1, #20
 800b548:	eb03 0084 	add.w	r0, r3, r4, lsl #2
 800b54c:	eb01 0184 	add.w	r1, r1, r4, lsl #2
 800b550:	f850 5d04 	ldr.w	r5, [r0, #-4]!
 800b554:	f851 4d04 	ldr.w	r4, [r1, #-4]!
 800b558:	42a5      	cmp	r5, r4
 800b55a:	d003      	beq.n	800b564 <__mcmp+0x2c>
 800b55c:	d305      	bcc.n	800b56a <__mcmp+0x32>
 800b55e:	2201      	movs	r2, #1
 800b560:	4610      	mov	r0, r2
 800b562:	bd30      	pop	{r4, r5, pc}
 800b564:	4283      	cmp	r3, r0
 800b566:	d3f3      	bcc.n	800b550 <__mcmp+0x18>
 800b568:	e7fa      	b.n	800b560 <__mcmp+0x28>
 800b56a:	f04f 32ff 	mov.w	r2, #4294967295
 800b56e:	e7f7      	b.n	800b560 <__mcmp+0x28>

0800b570 <__mdiff>:
 800b570:	e92d 4ff8 	stmdb	sp!, {r3, r4, r5, r6, r7, r8, r9, sl, fp, lr}
 800b574:	460c      	mov	r4, r1
 800b576:	4606      	mov	r6, r0
 800b578:	4611      	mov	r1, r2
 800b57a:	4620      	mov	r0, r4
 800b57c:	4690      	mov	r8, r2
 800b57e:	f7ff ffdb 	bl	800b538 <__mcmp>
 800b582:	1e05      	subs	r5, r0, #0
 800b584:	d110      	bne.n	800b5a8 <__mdiff+0x38>
 800b586:	4629      	mov	r1, r5
 800b588:	4630      	mov	r0, r6
 800b58a:	f7ff fd53 	bl	800b034 <_Balloc>
 800b58e:	b930      	cbnz	r0, 800b59e <__mdiff+0x2e>
 800b590:	4b3a      	ldr	r3, [pc, #232]	; (800b67c <__mdiff+0x10c>)
 800b592:	4602      	mov	r2, r0
 800b594:	f240 2132 	movw	r1, #562	; 0x232
 800b598:	4839      	ldr	r0, [pc, #228]	; (800b680 <__mdiff+0x110>)
 800b59a:	f000 fb85 	bl	800bca8 <__assert_func>
 800b59e:	2301      	movs	r3, #1
 800b5a0:	e9c0 3504 	strd	r3, r5, [r0, #16]
 800b5a4:	e8bd 8ff8 	ldmia.w	sp!, {r3, r4, r5, r6, r7, r8, r9, sl, fp, pc}
 800b5a8:	bfa4      	itt	ge
 800b5aa:	4643      	movge	r3, r8
 800b5ac:	46a0      	movge	r8, r4
 800b5ae:	4630      	mov	r0, r6
 800b5b0:	f8d8 1004 	ldr.w	r1, [r8, #4]
 800b5b4:	bfa6      	itte	ge
 800b5b6:	461c      	movge	r4, r3
 800b5b8:	2500      	movge	r5, #0
 800b5ba:	2501      	movlt	r5, #1
 800b5bc:	f7ff fd3a 	bl	800b034 <_Balloc>
 800b5c0:	b920      	cbnz	r0, 800b5cc <__mdiff+0x5c>
 800b5c2:	4b2e      	ldr	r3, [pc, #184]	; (800b67c <__mdiff+0x10c>)
 800b5c4:	4602      	mov	r2, r0
 800b5c6:	f44f 7110 	mov.w	r1, #576	; 0x240
 800b5ca:	e7e5      	b.n	800b598 <__mdiff+0x28>
 800b5cc:	f8d8 7010 	ldr.w	r7, [r8, #16]
 800b5d0:	6926      	ldr	r6, [r4, #16]
 800b5d2:	60c5      	str	r5, [r0, #12]
 800b5d4:	f104 0914 	add.w	r9, r4, #20
 800b5d8:	f108 0514 	add.w	r5, r8, #20
 800b5dc:	f100 0e14 	add.w	lr, r0, #20
 800b5e0:	eb05 0c87 	add.w	ip, r5, r7, lsl #2
 800b5e4:	eb09 0686 	add.w	r6, r9, r6, lsl #2
 800b5e8:	f108 0210 	add.w	r2, r8, #16
 800b5ec:	46f2      	mov	sl, lr
 800b5ee:	2100      	movs	r1, #0
 800b5f0:	f859 3b04 	ldr.w	r3, [r9], #4
 800b5f4:	f852 bf04 	ldr.w	fp, [r2, #4]!
 800b5f8:	fa1f f883 	uxth.w	r8, r3
 800b5fc:	fa11 f18b 	uxtah	r1, r1, fp
 800b600:	0c1b      	lsrs	r3, r3, #16
 800b602:	eba1 0808 	sub.w	r8, r1, r8
 800b606:	ebc3 431b 	rsb	r3, r3, fp, lsr #16
 800b60a:	eb03 4328 	add.w	r3, r3, r8, asr #16
 800b60e:	fa1f f888 	uxth.w	r8, r8
 800b612:	1419      	asrs	r1, r3, #16
 800b614:	454e      	cmp	r6, r9
 800b616:	ea48 4303 	orr.w	r3, r8, r3, lsl #16
 800b61a:	f84a 3b04 	str.w	r3, [sl], #4
 800b61e:	d8e7      	bhi.n	800b5f0 <__mdiff+0x80>
 800b620:	1b33      	subs	r3, r6, r4
 800b622:	3b15      	subs	r3, #21
 800b624:	f023 0303 	bic.w	r3, r3, #3
 800b628:	3304      	adds	r3, #4
 800b62a:	3415      	adds	r4, #21
 800b62c:	42a6      	cmp	r6, r4
 800b62e:	bf38      	it	cc
 800b630:	2304      	movcc	r3, #4
 800b632:	441d      	add	r5, r3
 800b634:	4473      	add	r3, lr
 800b636:	469e      	mov	lr, r3
 800b638:	462e      	mov	r6, r5
 800b63a:	4566      	cmp	r6, ip
 800b63c:	d30e      	bcc.n	800b65c <__mdiff+0xec>
 800b63e:	f10c 0203 	add.w	r2, ip, #3
 800b642:	1b52      	subs	r2, r2, r5
 800b644:	f022 0203 	bic.w	r2, r2, #3
 800b648:	3d03      	subs	r5, #3
 800b64a:	45ac      	cmp	ip, r5
 800b64c:	bf38      	it	cc
 800b64e:	2200      	movcc	r2, #0
 800b650:	441a      	add	r2, r3
 800b652:	f852 3d04 	ldr.w	r3, [r2, #-4]!
 800b656:	b17b      	cbz	r3, 800b678 <__mdiff+0x108>
 800b658:	6107      	str	r7, [r0, #16]
 800b65a:	e7a3      	b.n	800b5a4 <__mdiff+0x34>
 800b65c:	f856 8b04 	ldr.w	r8, [r6], #4
 800b660:	fa11 f288 	uxtah	r2, r1, r8
 800b664:	1414      	asrs	r4, r2, #16
 800b666:	eb04 4418 	add.w	r4, r4, r8, lsr #16
 800b66a:	b292      	uxth	r2, r2
 800b66c:	ea42 4204 	orr.w	r2, r2, r4, lsl #16
 800b670:	f84e 2b04 	str.w	r2, [lr], #4
 800b674:	1421      	asrs	r1, r4, #16
 800b676:	e7e0      	b.n	800b63a <__mdiff+0xca>
 800b678:	3f01      	subs	r7, #1
 800b67a:	e7ea      	b.n	800b652 <__mdiff+0xe2>
 800b67c:	0800c57f 	.word	0x0800c57f
 800b680:	0800c5f0 	.word	0x0800c5f0

0800b684 <__d2b>:
 800b684:	e92d 43f7 	stmdb	sp!, {r0, r1, r2, r4, r5, r6, r7, r8, r9, lr}
 800b688:	4689      	mov	r9, r1
 800b68a:	2101      	movs	r1, #1
 800b68c:	ec57 6b10 	vmov	r6, r7, d0
 800b690:	4690      	mov	r8, r2
 800b692:	f7ff fccf 	bl	800b034 <_Balloc>
 800b696:	4604      	mov	r4, r0
 800b698:	b930      	cbnz	r0, 800b6a8 <__d2b+0x24>
 800b69a:	4602      	mov	r2, r0
 800b69c:	4b25      	ldr	r3, [pc, #148]	; (800b734 <__d2b+0xb0>)
 800b69e:	4826      	ldr	r0, [pc, #152]	; (800b738 <__d2b+0xb4>)
 800b6a0:	f240 310a 	movw	r1, #778	; 0x30a
 800b6a4:	f000 fb00 	bl	800bca8 <__assert_func>
 800b6a8:	f3c7 550a 	ubfx	r5, r7, #20, #11
 800b6ac:	f3c7 0313 	ubfx	r3, r7, #0, #20
 800b6b0:	bb35      	cbnz	r5, 800b700 <__d2b+0x7c>
 800b6b2:	2e00      	cmp	r6, #0
 800b6b4:	9301      	str	r3, [sp, #4]
 800b6b6:	d028      	beq.n	800b70a <__d2b+0x86>
 800b6b8:	4668      	mov	r0, sp
 800b6ba:	9600      	str	r6, [sp, #0]
 800b6bc:	f7ff fd82 	bl	800b1c4 <__lo0bits>
 800b6c0:	9900      	ldr	r1, [sp, #0]
 800b6c2:	b300      	cbz	r0, 800b706 <__d2b+0x82>
 800b6c4:	9a01      	ldr	r2, [sp, #4]
 800b6c6:	f1c0 0320 	rsb	r3, r0, #32
 800b6ca:	fa02 f303 	lsl.w	r3, r2, r3
 800b6ce:	430b      	orrs	r3, r1
 800b6d0:	40c2      	lsrs	r2, r0
 800b6d2:	6163      	str	r3, [r4, #20]
 800b6d4:	9201      	str	r2, [sp, #4]
 800b6d6:	9b01      	ldr	r3, [sp, #4]
 800b6d8:	61a3      	str	r3, [r4, #24]
 800b6da:	2b00      	cmp	r3, #0
 800b6dc:	bf14      	ite	ne
 800b6de:	2202      	movne	r2, #2
 800b6e0:	2201      	moveq	r2, #1
 800b6e2:	6122      	str	r2, [r4, #16]
 800b6e4:	b1d5      	cbz	r5, 800b71c <__d2b+0x98>
 800b6e6:	f2a5 4533 	subw	r5, r5, #1075	; 0x433
 800b6ea:	4405      	add	r5, r0
 800b6ec:	f8c9 5000 	str.w	r5, [r9]
 800b6f0:	f1c0 0035 	rsb	r0, r0, #53	; 0x35
 800b6f4:	f8c8 0000 	str.w	r0, [r8]
 800b6f8:	4620      	mov	r0, r4
 800b6fa:	b003      	add	sp, #12
 800b6fc:	e8bd 83f0 	ldmia.w	sp!, {r4, r5, r6, r7, r8, r9, pc}
 800b700:	f443 1380 	orr.w	r3, r3, #1048576	; 0x100000
 800b704:	e7d5      	b.n	800b6b2 <__d2b+0x2e>
 800b706:	6161      	str	r1, [r4, #20]
 800b708:	e7e5      	b.n	800b6d6 <__d2b+0x52>
 800b70a:	a801      	add	r0, sp, #4
 800b70c:	f7ff fd5a 	bl	800b1c4 <__lo0bits>
 800b710:	9b01      	ldr	r3, [sp, #4]
 800b712:	6163      	str	r3, [r4, #20]
 800b714:	2201      	movs	r2, #1
 800b716:	6122      	str	r2, [r4, #16]
 800b718:	3020      	adds	r0, #32
 800b71a:	e7e3      	b.n	800b6e4 <__d2b+0x60>
 800b71c:	eb04 0382 	add.w	r3, r4, r2, lsl #2
 800b720:	f2a0 4032 	subw	r0, r0, #1074	; 0x432
 800b724:	f8c9 0000 	str.w	r0, [r9]
 800b728:	6918      	ldr	r0, [r3, #16]
 800b72a:	f7ff fd2b 	bl	800b184 <__hi0bits>
 800b72e:	ebc0 1042 	rsb	r0, r0, r2, lsl #5
 800b732:	e7df      	b.n	800b6f4 <__d2b+0x70>
 800b734:	0800c57f 	.word	0x0800c57f
 800b738:	0800c5f0 	.word	0x0800c5f0

0800b73c <_calloc_r>:
 800b73c:	b537      	push	{r0, r1, r2, r4, r5, lr}
 800b73e:	fba1 2402 	umull	r2, r4, r1, r2
 800b742:	b94c      	cbnz	r4, 800b758 <_calloc_r+0x1c>
 800b744:	4611      	mov	r1, r2
 800b746:	9201      	str	r2, [sp, #4]
 800b748:	f000 f87a 	bl	800b840 <_malloc_r>
 800b74c:	9a01      	ldr	r2, [sp, #4]
 800b74e:	4605      	mov	r5, r0
 800b750:	b930      	cbnz	r0, 800b760 <_calloc_r+0x24>
 800b752:	4628      	mov	r0, r5
 800b754:	b003      	add	sp, #12
 800b756:	bd30      	pop	{r4, r5, pc}
 800b758:	220c      	movs	r2, #12
 800b75a:	6002      	str	r2, [r0, #0]
 800b75c:	2500      	movs	r5, #0
 800b75e:	e7f8      	b.n	800b752 <_calloc_r+0x16>
 800b760:	4621      	mov	r1, r4
 800b762:	f7fd fd31 	bl	80091c8 <memset>
 800b766:	e7f4      	b.n	800b752 <_calloc_r+0x16>

0800b768 <_free_r>:
 800b768:	b537      	push	{r0, r1, r2, r4, r5, lr}
 800b76a:	2900      	cmp	r1, #0
 800b76c:	d044      	beq.n	800b7f8 <_free_r+0x90>
 800b76e:	f851 3c04 	ldr.w	r3, [r1, #-4]
 800b772:	9001      	str	r0, [sp, #4]
 800b774:	2b00      	cmp	r3, #0
 800b776:	f1a1 0404 	sub.w	r4, r1, #4
 800b77a:	bfb8      	it	lt
 800b77c:	18e4      	addlt	r4, r4, r3
 800b77e:	f000 fb19 	bl	800bdb4 <__malloc_lock>
 800b782:	4a1e      	ldr	r2, [pc, #120]	; (800b7fc <_free_r+0x94>)
 800b784:	9801      	ldr	r0, [sp, #4]
 800b786:	6813      	ldr	r3, [r2, #0]
 800b788:	b933      	cbnz	r3, 800b798 <_free_r+0x30>
 800b78a:	6063      	str	r3, [r4, #4]
 800b78c:	6014      	str	r4, [r2, #0]
 800b78e:	b003      	add	sp, #12
 800b790:	e8bd 4030 	ldmia.w	sp!, {r4, r5, lr}
 800b794:	f000 bb14 	b.w	800bdc0 <__malloc_unlock>
 800b798:	42a3      	cmp	r3, r4
 800b79a:	d908      	bls.n	800b7ae <_free_r+0x46>
 800b79c:	6825      	ldr	r5, [r4, #0]
 800b79e:	1961      	adds	r1, r4, r5
 800b7a0:	428b      	cmp	r3, r1
 800b7a2:	bf01      	itttt	eq
 800b7a4:	6819      	ldreq	r1, [r3, #0]
 800b7a6:	685b      	ldreq	r3, [r3, #4]
 800b7a8:	1949      	addeq	r1, r1, r5
 800b7aa:	6021      	streq	r1, [r4, #0]
 800b7ac:	e7ed      	b.n	800b78a <_free_r+0x22>
 800b7ae:	461a      	mov	r2, r3
 800b7b0:	685b      	ldr	r3, [r3, #4]
 800b7b2:	b10b      	cbz	r3, 800b7b8 <_free_r+0x50>
 800b7b4:	42a3      	cmp	r3, r4
 800b7b6:	d9fa      	bls.n	800b7ae <_free_r+0x46>
 800b7b8:	6811      	ldr	r1, [r2, #0]
 800b7ba:	1855      	adds	r5, r2, r1
 800b7bc:	42a5      	cmp	r5, r4
 800b7be:	d10b      	bne.n	800b7d8 <_free_r+0x70>
 800b7c0:	6824      	ldr	r4, [r4, #0]
 800b7c2:	4421      	add	r1, r4
 800b7c4:	1854      	adds	r4, r2, r1
 800b7c6:	42a3      	cmp	r3, r4
 800b7c8:	6011      	str	r1, [r2, #0]
 800b7ca:	d1e0      	bne.n	800b78e <_free_r+0x26>
 800b7cc:	681c      	ldr	r4, [r3, #0]
 800b7ce:	685b      	ldr	r3, [r3, #4]
 800b7d0:	6053      	str	r3, [r2, #4]
 800b7d2:	4421      	add	r1, r4
 800b7d4:	6011      	str	r1, [r2, #0]
 800b7d6:	e7da      	b.n	800b78e <_free_r+0x26>
 800b7d8:	d902      	bls.n	800b7e0 <_free_r+0x78>
 800b7da:	230c      	movs	r3, #12
 800b7dc:	6003      	str	r3, [r0, #0]
 800b7de:	e7d6      	b.n	800b78e <_free_r+0x26>
 800b7e0:	6825      	ldr	r5, [r4, #0]
 800b7e2:	1961      	adds	r1, r4, r5
 800b7e4:	428b      	cmp	r3, r1
 800b7e6:	bf04      	itt	eq
 800b7e8:	6819      	ldreq	r1, [r3, #0]
 800b7ea:	685b      	ldreq	r3, [r3, #4]
 800b7ec:	6063      	str	r3, [r4, #4]
 800b7ee:	bf04      	itt	eq
 800b7f0:	1949      	addeq	r1, r1, r5
 800b7f2:	6021      	streq	r1, [r4, #0]
 800b7f4:	6054      	str	r4, [r2, #4]
 800b7f6:	e7ca      	b.n	800b78e <_free_r+0x26>
 800b7f8:	b003      	add	sp, #12
 800b7fa:	bd30      	pop	{r4, r5, pc}
 800b7fc:	200108a0 	.word	0x200108a0

0800b800 <sbrk_aligned>:
 800b800:	b570      	push	{r4, r5, r6, lr}
 800b802:	4e0e      	ldr	r6, [pc, #56]	; (800b83c <sbrk_aligned+0x3c>)
 800b804:	460c      	mov	r4, r1
 800b806:	6831      	ldr	r1, [r6, #0]
 800b808:	4605      	mov	r5, r0
 800b80a:	b911      	cbnz	r1, 800b812 <sbrk_aligned+0x12>
 800b80c:	f000 f9e6 	bl	800bbdc <_sbrk_r>
 800b810:	6030      	str	r0, [r6, #0]
 800b812:	4621      	mov	r1, r4
 800b814:	4628      	mov	r0, r5
 800b816:	f000 f9e1 	bl	800bbdc <_sbrk_r>
 800b81a:	1c43      	adds	r3, r0, #1
 800b81c:	d00a      	beq.n	800b834 <sbrk_aligned+0x34>
 800b81e:	1cc4      	adds	r4, r0, #3
 800b820:	f024 0403 	bic.w	r4, r4, #3
 800b824:	42a0      	cmp	r0, r4
 800b826:	d007      	beq.n	800b838 <sbrk_aligned+0x38>
 800b828:	1a21      	subs	r1, r4, r0
 800b82a:	4628      	mov	r0, r5
 800b82c:	f000 f9d6 	bl	800bbdc <_sbrk_r>
 800b830:	3001      	adds	r0, #1
 800b832:	d101      	bne.n	800b838 <sbrk_aligned+0x38>
 800b834:	f04f 34ff 	mov.w	r4, #4294967295
 800b838:	4620      	mov	r0, r4
 800b83a:	bd70      	pop	{r4, r5, r6, pc}
 800b83c:	200108a4 	.word	0x200108a4

0800b840 <_malloc_r>:
 800b840:	e92d 41f0 	stmdb	sp!, {r4, r5, r6, r7, r8, lr}
 800b844:	1ccd      	adds	r5, r1, #3
 800b846:	f025 0503 	bic.w	r5, r5, #3
 800b84a:	3508      	adds	r5, #8
 800b84c:	2d0c      	cmp	r5, #12
 800b84e:	bf38      	it	cc
 800b850:	250c      	movcc	r5, #12
 800b852:	2d00      	cmp	r5, #0
 800b854:	4607      	mov	r7, r0
 800b856:	db01      	blt.n	800b85c <_malloc_r+0x1c>
 800b858:	42a9      	cmp	r1, r5
 800b85a:	d905      	bls.n	800b868 <_malloc_r+0x28>
 800b85c:	230c      	movs	r3, #12
 800b85e:	603b      	str	r3, [r7, #0]
 800b860:	2600      	movs	r6, #0
 800b862:	4630      	mov	r0, r6
 800b864:	e8bd 81f0 	ldmia.w	sp!, {r4, r5, r6, r7, r8, pc}
 800b868:	4e2e      	ldr	r6, [pc, #184]	; (800b924 <_malloc_r+0xe4>)
 800b86a:	f000 faa3 	bl	800bdb4 <__malloc_lock>
 800b86e:	6833      	ldr	r3, [r6, #0]
 800b870:	461c      	mov	r4, r3
 800b872:	bb34      	cbnz	r4, 800b8c2 <_malloc_r+0x82>
 800b874:	4629      	mov	r1, r5
 800b876:	4638      	mov	r0, r7
 800b878:	f7ff ffc2 	bl	800b800 <sbrk_aligned>
 800b87c:	1c43      	adds	r3, r0, #1
 800b87e:	4604      	mov	r4, r0
 800b880:	d14d      	bne.n	800b91e <_malloc_r+0xde>
 800b882:	6834      	ldr	r4, [r6, #0]
 800b884:	4626      	mov	r6, r4
 800b886:	2e00      	cmp	r6, #0
 800b888:	d140      	bne.n	800b90c <_malloc_r+0xcc>
 800b88a:	6823      	ldr	r3, [r4, #0]
 800b88c:	4631      	mov	r1, r6
 800b88e:	4638      	mov	r0, r7
 800b890:	eb04 0803 	add.w	r8, r4, r3
 800b894:	f000 f9a2 	bl	800bbdc <_sbrk_r>
 800b898:	4580      	cmp	r8, r0
 800b89a:	d13a      	bne.n	800b912 <_malloc_r+0xd2>
 800b89c:	6821      	ldr	r1, [r4, #0]
 800b89e:	3503      	adds	r5, #3
 800b8a0:	1a6d      	subs	r5, r5, r1
 800b8a2:	f025 0503 	bic.w	r5, r5, #3
 800b8a6:	3508      	adds	r5, #8
 800b8a8:	2d0c      	cmp	r5, #12
 800b8aa:	bf38      	it	cc
 800b8ac:	250c      	movcc	r5, #12
 800b8ae:	4629      	mov	r1, r5
 800b8b0:	4638      	mov	r0, r7
 800b8b2:	f7ff ffa5 	bl	800b800 <sbrk_aligned>
 800b8b6:	3001      	adds	r0, #1
 800b8b8:	d02b      	beq.n	800b912 <_malloc_r+0xd2>
 800b8ba:	6823      	ldr	r3, [r4, #0]
 800b8bc:	442b      	add	r3, r5
 800b8be:	6023      	str	r3, [r4, #0]
 800b8c0:	e00e      	b.n	800b8e0 <_malloc_r+0xa0>
 800b8c2:	6822      	ldr	r2, [r4, #0]
 800b8c4:	1b52      	subs	r2, r2, r5
 800b8c6:	d41e      	bmi.n	800b906 <_malloc_r+0xc6>
 800b8c8:	2a0b      	cmp	r2, #11
 800b8ca:	d916      	bls.n	800b8fa <_malloc_r+0xba>
 800b8cc:	1961      	adds	r1, r4, r5
 800b8ce:	42a3      	cmp	r3, r4
 800b8d0:	6025      	str	r5, [r4, #0]
 800b8d2:	bf18      	it	ne
 800b8d4:	6059      	strne	r1, [r3, #4]
 800b8d6:	6863      	ldr	r3, [r4, #4]
 800b8d8:	bf08      	it	eq
 800b8da:	6031      	streq	r1, [r6, #0]
 800b8dc:	5162      	str	r2, [r4, r5]
 800b8de:	604b      	str	r3, [r1, #4]
 800b8e0:	4638      	mov	r0, r7
 800b8e2:	f104 060b 	add.w	r6, r4, #11
 800b8e6:	f000 fa6b 	bl	800bdc0 <__malloc_unlock>
 800b8ea:	f026 0607 	bic.w	r6, r6, #7
 800b8ee:	1d23      	adds	r3, r4, #4
 800b8f0:	1af2      	subs	r2, r6, r3
 800b8f2:	d0b6      	beq.n	800b862 <_malloc_r+0x22>
 800b8f4:	1b9b      	subs	r3, r3, r6
 800b8f6:	50a3      	str	r3, [r4, r2]
 800b8f8:	e7b3      	b.n	800b862 <_malloc_r+0x22>
 800b8fa:	6862      	ldr	r2, [r4, #4]
 800b8fc:	42a3      	cmp	r3, r4
 800b8fe:	bf0c      	ite	eq
 800b900:	6032      	streq	r2, [r6, #0]
 800b902:	605a      	strne	r2, [r3, #4]
 800b904:	e7ec      	b.n	800b8e0 <_malloc_r+0xa0>
 800b906:	4623      	mov	r3, r4
 800b908:	6864      	ldr	r4, [r4, #4]
 800b90a:	e7b2      	b.n	800b872 <_malloc_r+0x32>
 800b90c:	4634      	mov	r4, r6
 800b90e:	6876      	ldr	r6, [r6, #4]
 800b910:	e7b9      	b.n	800b886 <_malloc_r+0x46>
 800b912:	230c      	movs	r3, #12
 800b914:	603b      	str	r3, [r7, #0]
 800b916:	4638      	mov	r0, r7
 800b918:	f000 fa52 	bl	800bdc0 <__malloc_unlock>
 800b91c:	e7a1      	b.n	800b862 <_malloc_r+0x22>
 800b91e:	6025      	str	r5, [r4, #0]
 800b920:	e7de      	b.n	800b8e0 <_malloc_r+0xa0>
 800b922:	bf00      	nop
 800b924:	200108a0 	.word	0x200108a0

0800b928 <__sfputc_r>:
 800b928:	6893      	ldr	r3, [r2, #8]
 800b92a:	3b01      	subs	r3, #1
 800b92c:	2b00      	cmp	r3, #0
 800b92e:	b410      	push	{r4}
 800b930:	6093      	str	r3, [r2, #8]
 800b932:	da08      	bge.n	800b946 <__sfputc_r+0x1e>
 800b934:	6994      	ldr	r4, [r2, #24]
 800b936:	42a3      	cmp	r3, r4
 800b938:	db01      	blt.n	800b93e <__sfputc_r+0x16>
 800b93a:	290a      	cmp	r1, #10
 800b93c:	d103      	bne.n	800b946 <__sfputc_r+0x1e>
 800b93e:	f85d 4b04 	ldr.w	r4, [sp], #4
 800b942:	f7fe ba0f 	b.w	8009d64 <__swbuf_r>
 800b946:	6813      	ldr	r3, [r2, #0]
 800b948:	1c58      	adds	r0, r3, #1
 800b94a:	6010      	str	r0, [r2, #0]
 800b94c:	7019      	strb	r1, [r3, #0]
 800b94e:	4608      	mov	r0, r1
 800b950:	f85d 4b04 	ldr.w	r4, [sp], #4
 800b954:	4770      	bx	lr

0800b956 <__sfputs_r>:
 800b956:	b5f8      	push	{r3, r4, r5, r6, r7, lr}
 800b958:	4606      	mov	r6, r0
 800b95a:	460f      	mov	r7, r1
 800b95c:	4614      	mov	r4, r2
 800b95e:	18d5      	adds	r5, r2, r3
 800b960:	42ac      	cmp	r4, r5
 800b962:	d101      	bne.n	800b968 <__sfputs_r+0x12>
 800b964:	2000      	movs	r0, #0
 800b966:	e007      	b.n	800b978 <__sfputs_r+0x22>
 800b968:	f814 1b01 	ldrb.w	r1, [r4], #1
 800b96c:	463a      	mov	r2, r7
 800b96e:	4630      	mov	r0, r6
 800b970:	f7ff ffda 	bl	800b928 <__sfputc_r>
 800b974:	1c43      	adds	r3, r0, #1
 800b976:	d1f3      	bne.n	800b960 <__sfputs_r+0xa>
 800b978:	bdf8      	pop	{r3, r4, r5, r6, r7, pc}
	...

0800b97c <_vfiprintf_r>:
 800b97c:	e92d 4ff0 	stmdb	sp!, {r4, r5, r6, r7, r8, r9, sl, fp, lr}
 800b980:	460d      	mov	r5, r1
 800b982:	b09d      	sub	sp, #116	; 0x74
 800b984:	4614      	mov	r4, r2
 800b986:	4698      	mov	r8, r3
 800b988:	4606      	mov	r6, r0
 800b98a:	b118      	cbz	r0, 800b994 <_vfiprintf_r+0x18>
 800b98c:	6983      	ldr	r3, [r0, #24]
 800b98e:	b90b      	cbnz	r3, 800b994 <_vfiprintf_r+0x18>
 800b990:	f7ff fa3e 	bl	800ae10 <__sinit>
 800b994:	4b89      	ldr	r3, [pc, #548]	; (800bbbc <_vfiprintf_r+0x240>)
 800b996:	429d      	cmp	r5, r3
 800b998:	d11b      	bne.n	800b9d2 <_vfiprintf_r+0x56>
 800b99a:	6875      	ldr	r5, [r6, #4]
 800b99c:	6e6b      	ldr	r3, [r5, #100]	; 0x64
 800b99e:	07d9      	lsls	r1, r3, #31
 800b9a0:	d405      	bmi.n	800b9ae <_vfiprintf_r+0x32>
 800b9a2:	89ab      	ldrh	r3, [r5, #12]
 800b9a4:	059a      	lsls	r2, r3, #22
 800b9a6:	d402      	bmi.n	800b9ae <_vfiprintf_r+0x32>
 800b9a8:	6da8      	ldr	r0, [r5, #88]	; 0x58
 800b9aa:	f7ff fad4 	bl	800af56 <__retarget_lock_acquire_recursive>
 800b9ae:	89ab      	ldrh	r3, [r5, #12]
 800b9b0:	071b      	lsls	r3, r3, #28
 800b9b2:	d501      	bpl.n	800b9b8 <_vfiprintf_r+0x3c>
 800b9b4:	692b      	ldr	r3, [r5, #16]
 800b9b6:	b9eb      	cbnz	r3, 800b9f4 <_vfiprintf_r+0x78>
 800b9b8:	4629      	mov	r1, r5
 800b9ba:	4630      	mov	r0, r6
 800b9bc:	f7fe fa24 	bl	8009e08 <__swsetup_r>
 800b9c0:	b1c0      	cbz	r0, 800b9f4 <_vfiprintf_r+0x78>
 800b9c2:	6e6b      	ldr	r3, [r5, #100]	; 0x64
 800b9c4:	07dc      	lsls	r4, r3, #31
 800b9c6:	d50e      	bpl.n	800b9e6 <_vfiprintf_r+0x6a>
 800b9c8:	f04f 30ff 	mov.w	r0, #4294967295
 800b9cc:	b01d      	add	sp, #116	; 0x74
 800b9ce:	e8bd 8ff0 	ldmia.w	sp!, {r4, r5, r6, r7, r8, r9, sl, fp, pc}
 800b9d2:	4b7b      	ldr	r3, [pc, #492]	; (800bbc0 <_vfiprintf_r+0x244>)
 800b9d4:	429d      	cmp	r5, r3
 800b9d6:	d101      	bne.n	800b9dc <_vfiprintf_r+0x60>
 800b9d8:	68b5      	ldr	r5, [r6, #8]
 800b9da:	e7df      	b.n	800b99c <_vfiprintf_r+0x20>
 800b9dc:	4b79      	ldr	r3, [pc, #484]	; (800bbc4 <_vfiprintf_r+0x248>)
 800b9de:	429d      	cmp	r5, r3
 800b9e0:	bf08      	it	eq
 800b9e2:	68f5      	ldreq	r5, [r6, #12]
 800b9e4:	e7da      	b.n	800b99c <_vfiprintf_r+0x20>
 800b9e6:	89ab      	ldrh	r3, [r5, #12]
 800b9e8:	0598      	lsls	r0, r3, #22
 800b9ea:	d4ed      	bmi.n	800b9c8 <_vfiprintf_r+0x4c>
 800b9ec:	6da8      	ldr	r0, [r5, #88]	; 0x58
 800b9ee:	f7ff fab3 	bl	800af58 <__retarget_lock_release_recursive>
 800b9f2:	e7e9      	b.n	800b9c8 <_vfiprintf_r+0x4c>
 800b9f4:	2300      	movs	r3, #0
 800b9f6:	9309      	str	r3, [sp, #36]	; 0x24
 800b9f8:	2320      	movs	r3, #32
 800b9fa:	f88d 3029 	strb.w	r3, [sp, #41]	; 0x29
 800b9fe:	f8cd 800c 	str.w	r8, [sp, #12]
 800ba02:	2330      	movs	r3, #48	; 0x30
 800ba04:	f8df 81c0 	ldr.w	r8, [pc, #448]	; 800bbc8 <_vfiprintf_r+0x24c>
 800ba08:	f88d 302a 	strb.w	r3, [sp, #42]	; 0x2a
 800ba0c:	f04f 0901 	mov.w	r9, #1
 800ba10:	4623      	mov	r3, r4
 800ba12:	469a      	mov	sl, r3
 800ba14:	f813 2b01 	ldrb.w	r2, [r3], #1
 800ba18:	b10a      	cbz	r2, 800ba1e <_vfiprintf_r+0xa2>
 800ba1a:	2a25      	cmp	r2, #37	; 0x25
 800ba1c:	d1f9      	bne.n	800ba12 <_vfiprintf_r+0x96>
 800ba1e:	ebba 0b04 	subs.w	fp, sl, r4
 800ba22:	d00b      	beq.n	800ba3c <_vfiprintf_r+0xc0>
 800ba24:	465b      	mov	r3, fp
 800ba26:	4622      	mov	r2, r4
 800ba28:	4629      	mov	r1, r5
 800ba2a:	4630      	mov	r0, r6
 800ba2c:	f7ff ff93 	bl	800b956 <__sfputs_r>
 800ba30:	3001      	adds	r0, #1
 800ba32:	f000 80aa 	beq.w	800bb8a <_vfiprintf_r+0x20e>
 800ba36:	9a09      	ldr	r2, [sp, #36]	; 0x24
 800ba38:	445a      	add	r2, fp
 800ba3a:	9209      	str	r2, [sp, #36]	; 0x24
 800ba3c:	f89a 3000 	ldrb.w	r3, [sl]
 800ba40:	2b00      	cmp	r3, #0
 800ba42:	f000 80a2 	beq.w	800bb8a <_vfiprintf_r+0x20e>
 800ba46:	2300      	movs	r3, #0
 800ba48:	f04f 32ff 	mov.w	r2, #4294967295
 800ba4c:	e9cd 2305 	strd	r2, r3, [sp, #20]
 800ba50:	f10a 0a01 	add.w	sl, sl, #1
 800ba54:	9304      	str	r3, [sp, #16]
 800ba56:	9307      	str	r3, [sp, #28]
 800ba58:	f88d 3053 	strb.w	r3, [sp, #83]	; 0x53
 800ba5c:	931a      	str	r3, [sp, #104]	; 0x68
 800ba5e:	4654      	mov	r4, sl
 800ba60:	2205      	movs	r2, #5
 800ba62:	f814 1b01 	ldrb.w	r1, [r4], #1
 800ba66:	4858      	ldr	r0, [pc, #352]	; (800bbc8 <_vfiprintf_r+0x24c>)
 800ba68:	f7f4 fbe2 	bl	8000230 <memchr>
 800ba6c:	9a04      	ldr	r2, [sp, #16]
 800ba6e:	b9d8      	cbnz	r0, 800baa8 <_vfiprintf_r+0x12c>
 800ba70:	06d1      	lsls	r1, r2, #27
 800ba72:	bf44      	itt	mi
 800ba74:	2320      	movmi	r3, #32
 800ba76:	f88d 3053 	strbmi.w	r3, [sp, #83]	; 0x53
 800ba7a:	0713      	lsls	r3, r2, #28
 800ba7c:	bf44      	itt	mi
 800ba7e:	232b      	movmi	r3, #43	; 0x2b
 800ba80:	f88d 3053 	strbmi.w	r3, [sp, #83]	; 0x53
 800ba84:	f89a 3000 	ldrb.w	r3, [sl]
 800ba88:	2b2a      	cmp	r3, #42	; 0x2a
 800ba8a:	d015      	beq.n	800bab8 <_vfiprintf_r+0x13c>
 800ba8c:	9a07      	ldr	r2, [sp, #28]
 800ba8e:	4654      	mov	r4, sl
 800ba90:	2000      	movs	r0, #0
 800ba92:	f04f 0c0a 	mov.w	ip, #10
 800ba96:	4621      	mov	r1, r4
 800ba98:	f811 3b01 	ldrb.w	r3, [r1], #1
 800ba9c:	3b30      	subs	r3, #48	; 0x30
 800ba9e:	2b09      	cmp	r3, #9
 800baa0:	d94e      	bls.n	800bb40 <_vfiprintf_r+0x1c4>
 800baa2:	b1b0      	cbz	r0, 800bad2 <_vfiprintf_r+0x156>
 800baa4:	9207      	str	r2, [sp, #28]
 800baa6:	e014      	b.n	800bad2 <_vfiprintf_r+0x156>
 800baa8:	eba0 0308 	sub.w	r3, r0, r8
 800baac:	fa09 f303 	lsl.w	r3, r9, r3
 800bab0:	4313      	orrs	r3, r2
 800bab2:	9304      	str	r3, [sp, #16]
 800bab4:	46a2      	mov	sl, r4
 800bab6:	e7d2      	b.n	800ba5e <_vfiprintf_r+0xe2>
 800bab8:	9b03      	ldr	r3, [sp, #12]
 800baba:	1d19      	adds	r1, r3, #4
 800babc:	681b      	ldr	r3, [r3, #0]
 800babe:	9103      	str	r1, [sp, #12]
 800bac0:	2b00      	cmp	r3, #0
 800bac2:	bfbb      	ittet	lt
 800bac4:	425b      	neglt	r3, r3
 800bac6:	f042 0202 	orrlt.w	r2, r2, #2
 800baca:	9307      	strge	r3, [sp, #28]
 800bacc:	9307      	strlt	r3, [sp, #28]
 800bace:	bfb8      	it	lt
 800bad0:	9204      	strlt	r2, [sp, #16]
 800bad2:	7823      	ldrb	r3, [r4, #0]
 800bad4:	2b2e      	cmp	r3, #46	; 0x2e
 800bad6:	d10c      	bne.n	800baf2 <_vfiprintf_r+0x176>
 800bad8:	7863      	ldrb	r3, [r4, #1]
 800bada:	2b2a      	cmp	r3, #42	; 0x2a
 800badc:	d135      	bne.n	800bb4a <_vfiprintf_r+0x1ce>
 800bade:	9b03      	ldr	r3, [sp, #12]
 800bae0:	1d1a      	adds	r2, r3, #4
 800bae2:	681b      	ldr	r3, [r3, #0]
 800bae4:	9203      	str	r2, [sp, #12]
 800bae6:	2b00      	cmp	r3, #0
 800bae8:	bfb8      	it	lt
 800baea:	f04f 33ff 	movlt.w	r3, #4294967295
 800baee:	3402      	adds	r4, #2
 800baf0:	9305      	str	r3, [sp, #20]
 800baf2:	f8df a0e4 	ldr.w	sl, [pc, #228]	; 800bbd8 <_vfiprintf_r+0x25c>
 800baf6:	7821      	ldrb	r1, [r4, #0]
 800baf8:	2203      	movs	r2, #3
 800bafa:	4650      	mov	r0, sl
 800bafc:	f7f4 fb98 	bl	8000230 <memchr>
 800bb00:	b140      	cbz	r0, 800bb14 <_vfiprintf_r+0x198>
 800bb02:	2340      	movs	r3, #64	; 0x40
 800bb04:	eba0 000a 	sub.w	r0, r0, sl
 800bb08:	fa03 f000 	lsl.w	r0, r3, r0
 800bb0c:	9b04      	ldr	r3, [sp, #16]
 800bb0e:	4303      	orrs	r3, r0
 800bb10:	3401      	adds	r4, #1
 800bb12:	9304      	str	r3, [sp, #16]
 800bb14:	f814 1b01 	ldrb.w	r1, [r4], #1
 800bb18:	482c      	ldr	r0, [pc, #176]	; (800bbcc <_vfiprintf_r+0x250>)
 800bb1a:	f88d 1028 	strb.w	r1, [sp, #40]	; 0x28
 800bb1e:	2206      	movs	r2, #6
 800bb20:	f7f4 fb86 	bl	8000230 <memchr>
 800bb24:	2800      	cmp	r0, #0
 800bb26:	d03f      	beq.n	800bba8 <_vfiprintf_r+0x22c>
 800bb28:	4b29      	ldr	r3, [pc, #164]	; (800bbd0 <_vfiprintf_r+0x254>)
 800bb2a:	bb1b      	cbnz	r3, 800bb74 <_vfiprintf_r+0x1f8>
 800bb2c:	9b03      	ldr	r3, [sp, #12]
 800bb2e:	3307      	adds	r3, #7
 800bb30:	f023 0307 	bic.w	r3, r3, #7
 800bb34:	3308      	adds	r3, #8
 800bb36:	9303      	str	r3, [sp, #12]
 800bb38:	9b09      	ldr	r3, [sp, #36]	; 0x24
 800bb3a:	443b      	add	r3, r7
 800bb3c:	9309      	str	r3, [sp, #36]	; 0x24
 800bb3e:	e767      	b.n	800ba10 <_vfiprintf_r+0x94>
 800bb40:	fb0c 3202 	mla	r2, ip, r2, r3
 800bb44:	460c      	mov	r4, r1
 800bb46:	2001      	movs	r0, #1
 800bb48:	e7a5      	b.n	800ba96 <_vfiprintf_r+0x11a>
 800bb4a:	2300      	movs	r3, #0
 800bb4c:	3401      	adds	r4, #1
 800bb4e:	9305      	str	r3, [sp, #20]
 800bb50:	4619      	mov	r1, r3
 800bb52:	f04f 0c0a 	mov.w	ip, #10
 800bb56:	4620      	mov	r0, r4
 800bb58:	f810 2b01 	ldrb.w	r2, [r0], #1
 800bb5c:	3a30      	subs	r2, #48	; 0x30
 800bb5e:	2a09      	cmp	r2, #9
 800bb60:	d903      	bls.n	800bb6a <_vfiprintf_r+0x1ee>
 800bb62:	2b00      	cmp	r3, #0
 800bb64:	d0c5      	beq.n	800baf2 <_vfiprintf_r+0x176>
 800bb66:	9105      	str	r1, [sp, #20]
 800bb68:	e7c3      	b.n	800baf2 <_vfiprintf_r+0x176>
 800bb6a:	fb0c 2101 	mla	r1, ip, r1, r2
 800bb6e:	4604      	mov	r4, r0
 800bb70:	2301      	movs	r3, #1
 800bb72:	e7f0      	b.n	800bb56 <_vfiprintf_r+0x1da>
 800bb74:	ab03      	add	r3, sp, #12
 800bb76:	9300      	str	r3, [sp, #0]
 800bb78:	462a      	mov	r2, r5
 800bb7a:	4b16      	ldr	r3, [pc, #88]	; (800bbd4 <_vfiprintf_r+0x258>)
 800bb7c:	a904      	add	r1, sp, #16
 800bb7e:	4630      	mov	r0, r6
 800bb80:	f7fd fbca 	bl	8009318 <_printf_float>
 800bb84:	4607      	mov	r7, r0
 800bb86:	1c78      	adds	r0, r7, #1
 800bb88:	d1d6      	bne.n	800bb38 <_vfiprintf_r+0x1bc>
 800bb8a:	6e6b      	ldr	r3, [r5, #100]	; 0x64
 800bb8c:	07d9      	lsls	r1, r3, #31
 800bb8e:	d405      	bmi.n	800bb9c <_vfiprintf_r+0x220>
 800bb90:	89ab      	ldrh	r3, [r5, #12]
 800bb92:	059a      	lsls	r2, r3, #22
 800bb94:	d402      	bmi.n	800bb9c <_vfiprintf_r+0x220>
 800bb96:	6da8      	ldr	r0, [r5, #88]	; 0x58
 800bb98:	f7ff f9de 	bl	800af58 <__retarget_lock_release_recursive>
 800bb9c:	89ab      	ldrh	r3, [r5, #12]
 800bb9e:	065b      	lsls	r3, r3, #25
 800bba0:	f53f af12 	bmi.w	800b9c8 <_vfiprintf_r+0x4c>
 800bba4:	9809      	ldr	r0, [sp, #36]	; 0x24
 800bba6:	e711      	b.n	800b9cc <_vfiprintf_r+0x50>
 800bba8:	ab03      	add	r3, sp, #12
 800bbaa:	9300      	str	r3, [sp, #0]
 800bbac:	462a      	mov	r2, r5
 800bbae:	4b09      	ldr	r3, [pc, #36]	; (800bbd4 <_vfiprintf_r+0x258>)
 800bbb0:	a904      	add	r1, sp, #16
 800bbb2:	4630      	mov	r0, r6
 800bbb4:	f7fd fe54 	bl	8009860 <_printf_i>
 800bbb8:	e7e4      	b.n	800bb84 <_vfiprintf_r+0x208>
 800bbba:	bf00      	nop
 800bbbc:	0800c5b0 	.word	0x0800c5b0
 800bbc0:	0800c5d0 	.word	0x0800c5d0
 800bbc4:	0800c590 	.word	0x0800c590
 800bbc8:	0800c74c 	.word	0x0800c74c
 800bbcc:	0800c756 	.word	0x0800c756
 800bbd0:	08009319 	.word	0x08009319
 800bbd4:	0800b957 	.word	0x0800b957
 800bbd8:	0800c752 	.word	0x0800c752

0800bbdc <_sbrk_r>:
 800bbdc:	b538      	push	{r3, r4, r5, lr}
 800bbde:	4d06      	ldr	r5, [pc, #24]	; (800bbf8 <_sbrk_r+0x1c>)
 800bbe0:	2300      	movs	r3, #0
 800bbe2:	4604      	mov	r4, r0
 800bbe4:	4608      	mov	r0, r1
 800bbe6:	602b      	str	r3, [r5, #0]
 800bbe8:	f7f5 fe18 	bl	800181c <_sbrk>
 800bbec:	1c43      	adds	r3, r0, #1
 800bbee:	d102      	bne.n	800bbf6 <_sbrk_r+0x1a>
 800bbf0:	682b      	ldr	r3, [r5, #0]
 800bbf2:	b103      	cbz	r3, 800bbf6 <_sbrk_r+0x1a>
 800bbf4:	6023      	str	r3, [r4, #0]
 800bbf6:	bd38      	pop	{r3, r4, r5, pc}
 800bbf8:	200108a8 	.word	0x200108a8

0800bbfc <__sread>:
 800bbfc:	b510      	push	{r4, lr}
 800bbfe:	460c      	mov	r4, r1
 800bc00:	f9b1 100e 	ldrsh.w	r1, [r1, #14]
 800bc04:	f000 f8e2 	bl	800bdcc <_read_r>
 800bc08:	2800      	cmp	r0, #0
 800bc0a:	bfab      	itete	ge
 800bc0c:	6d63      	ldrge	r3, [r4, #84]	; 0x54
 800bc0e:	89a3      	ldrhlt	r3, [r4, #12]
 800bc10:	181b      	addge	r3, r3, r0
 800bc12:	f423 5380 	biclt.w	r3, r3, #4096	; 0x1000
 800bc16:	bfac      	ite	ge
 800bc18:	6563      	strge	r3, [r4, #84]	; 0x54
 800bc1a:	81a3      	strhlt	r3, [r4, #12]
 800bc1c:	bd10      	pop	{r4, pc}

0800bc1e <__swrite>:
 800bc1e:	e92d 41f0 	stmdb	sp!, {r4, r5, r6, r7, r8, lr}
 800bc22:	461f      	mov	r7, r3
 800bc24:	898b      	ldrh	r3, [r1, #12]
 800bc26:	05db      	lsls	r3, r3, #23
 800bc28:	4605      	mov	r5, r0
 800bc2a:	460c      	mov	r4, r1
 800bc2c:	4616      	mov	r6, r2
 800bc2e:	d505      	bpl.n	800bc3c <__swrite+0x1e>
 800bc30:	f9b1 100e 	ldrsh.w	r1, [r1, #14]
 800bc34:	2302      	movs	r3, #2
 800bc36:	2200      	movs	r2, #0
 800bc38:	f000 f898 	bl	800bd6c <_lseek_r>
 800bc3c:	89a3      	ldrh	r3, [r4, #12]
 800bc3e:	f9b4 100e 	ldrsh.w	r1, [r4, #14]
 800bc42:	f423 5380 	bic.w	r3, r3, #4096	; 0x1000
 800bc46:	81a3      	strh	r3, [r4, #12]
 800bc48:	4632      	mov	r2, r6
 800bc4a:	463b      	mov	r3, r7
 800bc4c:	4628      	mov	r0, r5
 800bc4e:	e8bd 41f0 	ldmia.w	sp!, {r4, r5, r6, r7, r8, lr}
 800bc52:	f000 b817 	b.w	800bc84 <_write_r>

0800bc56 <__sseek>:
 800bc56:	b510      	push	{r4, lr}
 800bc58:	460c      	mov	r4, r1
 800bc5a:	f9b1 100e 	ldrsh.w	r1, [r1, #14]
 800bc5e:	f000 f885 	bl	800bd6c <_lseek_r>
 800bc62:	1c43      	adds	r3, r0, #1
 800bc64:	89a3      	ldrh	r3, [r4, #12]
 800bc66:	bf15      	itete	ne
 800bc68:	6560      	strne	r0, [r4, #84]	; 0x54
 800bc6a:	f423 5380 	biceq.w	r3, r3, #4096	; 0x1000
 800bc6e:	f443 5380 	orrne.w	r3, r3, #4096	; 0x1000
 800bc72:	81a3      	strheq	r3, [r4, #12]
 800bc74:	bf18      	it	ne
 800bc76:	81a3      	strhne	r3, [r4, #12]
 800bc78:	bd10      	pop	{r4, pc}

0800bc7a <__sclose>:
 800bc7a:	f9b1 100e 	ldrsh.w	r1, [r1, #14]
 800bc7e:	f000 b831 	b.w	800bce4 <_close_r>
	...

0800bc84 <_write_r>:
 800bc84:	b538      	push	{r3, r4, r5, lr}
 800bc86:	4d07      	ldr	r5, [pc, #28]	; (800bca4 <_write_r+0x20>)
 800bc88:	4604      	mov	r4, r0
 800bc8a:	4608      	mov	r0, r1
 800bc8c:	4611      	mov	r1, r2
 800bc8e:	2200      	movs	r2, #0
 800bc90:	602a      	str	r2, [r5, #0]
 800bc92:	461a      	mov	r2, r3
 800bc94:	f7f5 fda6 	bl	80017e4 <_write>
 800bc98:	1c43      	adds	r3, r0, #1
 800bc9a:	d102      	bne.n	800bca2 <_write_r+0x1e>
 800bc9c:	682b      	ldr	r3, [r5, #0]
 800bc9e:	b103      	cbz	r3, 800bca2 <_write_r+0x1e>
 800bca0:	6023      	str	r3, [r4, #0]
 800bca2:	bd38      	pop	{r3, r4, r5, pc}
 800bca4:	200108a8 	.word	0x200108a8

0800bca8 <__assert_func>:
 800bca8:	b51f      	push	{r0, r1, r2, r3, r4, lr}
 800bcaa:	4614      	mov	r4, r2
 800bcac:	461a      	mov	r2, r3
 800bcae:	4b09      	ldr	r3, [pc, #36]	; (800bcd4 <__assert_func+0x2c>)
 800bcb0:	681b      	ldr	r3, [r3, #0]
 800bcb2:	4605      	mov	r5, r0
 800bcb4:	68d8      	ldr	r0, [r3, #12]
 800bcb6:	b14c      	cbz	r4, 800bccc <__assert_func+0x24>
 800bcb8:	4b07      	ldr	r3, [pc, #28]	; (800bcd8 <__assert_func+0x30>)
 800bcba:	9100      	str	r1, [sp, #0]
 800bcbc:	e9cd 3401 	strd	r3, r4, [sp, #4]
 800bcc0:	4906      	ldr	r1, [pc, #24]	; (800bcdc <__assert_func+0x34>)
 800bcc2:	462b      	mov	r3, r5
 800bcc4:	f000 f81e 	bl	800bd04 <fiprintf>
 800bcc8:	f000 f89f 	bl	800be0a <abort>
 800bccc:	4b04      	ldr	r3, [pc, #16]	; (800bce0 <__assert_func+0x38>)
 800bcce:	461c      	mov	r4, r3
 800bcd0:	e7f3      	b.n	800bcba <__assert_func+0x12>
 800bcd2:	bf00      	nop
 800bcd4:	20000030 	.word	0x20000030
 800bcd8:	0800c75d 	.word	0x0800c75d
 800bcdc:	0800c76a 	.word	0x0800c76a
 800bce0:	0800c798 	.word	0x0800c798

0800bce4 <_close_r>:
 800bce4:	b538      	push	{r3, r4, r5, lr}
 800bce6:	4d06      	ldr	r5, [pc, #24]	; (800bd00 <_close_r+0x1c>)
 800bce8:	2300      	movs	r3, #0
 800bcea:	4604      	mov	r4, r0
 800bcec:	4608      	mov	r0, r1
 800bcee:	602b      	str	r3, [r5, #0]
 800bcf0:	f7f5 fd86 	bl	8001800 <_close>
 800bcf4:	1c43      	adds	r3, r0, #1
 800bcf6:	d102      	bne.n	800bcfe <_close_r+0x1a>
 800bcf8:	682b      	ldr	r3, [r5, #0]
 800bcfa:	b103      	cbz	r3, 800bcfe <_close_r+0x1a>
 800bcfc:	6023      	str	r3, [r4, #0]
 800bcfe:	bd38      	pop	{r3, r4, r5, pc}
 800bd00:	200108a8 	.word	0x200108a8

0800bd04 <fiprintf>:
 800bd04:	b40e      	push	{r1, r2, r3}
 800bd06:	b503      	push	{r0, r1, lr}
 800bd08:	4601      	mov	r1, r0
 800bd0a:	ab03      	add	r3, sp, #12
 800bd0c:	4805      	ldr	r0, [pc, #20]	; (800bd24 <fiprintf+0x20>)
 800bd0e:	f853 2b04 	ldr.w	r2, [r3], #4
 800bd12:	6800      	ldr	r0, [r0, #0]
 800bd14:	9301      	str	r3, [sp, #4]
 800bd16:	f7ff fe31 	bl	800b97c <_vfiprintf_r>
 800bd1a:	b002      	add	sp, #8
 800bd1c:	f85d eb04 	ldr.w	lr, [sp], #4
 800bd20:	b003      	add	sp, #12
 800bd22:	4770      	bx	lr
 800bd24:	20000030 	.word	0x20000030

0800bd28 <_fstat_r>:
 800bd28:	b538      	push	{r3, r4, r5, lr}
 800bd2a:	4d07      	ldr	r5, [pc, #28]	; (800bd48 <_fstat_r+0x20>)
 800bd2c:	2300      	movs	r3, #0
 800bd2e:	4604      	mov	r4, r0
 800bd30:	4608      	mov	r0, r1
 800bd32:	4611      	mov	r1, r2
 800bd34:	602b      	str	r3, [r5, #0]
 800bd36:	f7f5 fd67 	bl	8001808 <_fstat>
 800bd3a:	1c43      	adds	r3, r0, #1
 800bd3c:	d102      	bne.n	800bd44 <_fstat_r+0x1c>
 800bd3e:	682b      	ldr	r3, [r5, #0]
 800bd40:	b103      	cbz	r3, 800bd44 <_fstat_r+0x1c>
 800bd42:	6023      	str	r3, [r4, #0]
 800bd44:	bd38      	pop	{r3, r4, r5, pc}
 800bd46:	bf00      	nop
 800bd48:	200108a8 	.word	0x200108a8

0800bd4c <_isatty_r>:
 800bd4c:	b538      	push	{r3, r4, r5, lr}
 800bd4e:	4d06      	ldr	r5, [pc, #24]	; (800bd68 <_isatty_r+0x1c>)
 800bd50:	2300      	movs	r3, #0
 800bd52:	4604      	mov	r4, r0
 800bd54:	4608      	mov	r0, r1
 800bd56:	602b      	str	r3, [r5, #0]
 800bd58:	f7f5 fd5c 	bl	8001814 <_isatty>
 800bd5c:	1c43      	adds	r3, r0, #1
 800bd5e:	d102      	bne.n	800bd66 <_isatty_r+0x1a>
 800bd60:	682b      	ldr	r3, [r5, #0]
 800bd62:	b103      	cbz	r3, 800bd66 <_isatty_r+0x1a>
 800bd64:	6023      	str	r3, [r4, #0]
 800bd66:	bd38      	pop	{r3, r4, r5, pc}
 800bd68:	200108a8 	.word	0x200108a8

0800bd6c <_lseek_r>:
 800bd6c:	b538      	push	{r3, r4, r5, lr}
 800bd6e:	4d07      	ldr	r5, [pc, #28]	; (800bd8c <_lseek_r+0x20>)
 800bd70:	4604      	mov	r4, r0
 800bd72:	4608      	mov	r0, r1
 800bd74:	4611      	mov	r1, r2
 800bd76:	2200      	movs	r2, #0
 800bd78:	602a      	str	r2, [r5, #0]
 800bd7a:	461a      	mov	r2, r3
 800bd7c:	f7f5 fd4c 	bl	8001818 <_lseek>
 800bd80:	1c43      	adds	r3, r0, #1
 800bd82:	d102      	bne.n	800bd8a <_lseek_r+0x1e>
 800bd84:	682b      	ldr	r3, [r5, #0]
 800bd86:	b103      	cbz	r3, 800bd8a <_lseek_r+0x1e>
 800bd88:	6023      	str	r3, [r4, #0]
 800bd8a:	bd38      	pop	{r3, r4, r5, pc}
 800bd8c:	200108a8 	.word	0x200108a8

0800bd90 <__ascii_mbtowc>:
 800bd90:	b082      	sub	sp, #8
 800bd92:	b901      	cbnz	r1, 800bd96 <__ascii_mbtowc+0x6>
 800bd94:	a901      	add	r1, sp, #4
 800bd96:	b142      	cbz	r2, 800bdaa <__ascii_mbtowc+0x1a>
 800bd98:	b14b      	cbz	r3, 800bdae <__ascii_mbtowc+0x1e>
 800bd9a:	7813      	ldrb	r3, [r2, #0]
 800bd9c:	600b      	str	r3, [r1, #0]
 800bd9e:	7812      	ldrb	r2, [r2, #0]
 800bda0:	1e10      	subs	r0, r2, #0
 800bda2:	bf18      	it	ne
 800bda4:	2001      	movne	r0, #1
 800bda6:	b002      	add	sp, #8
 800bda8:	4770      	bx	lr
 800bdaa:	4610      	mov	r0, r2
 800bdac:	e7fb      	b.n	800bda6 <__ascii_mbtowc+0x16>
 800bdae:	f06f 0001 	mvn.w	r0, #1
 800bdb2:	e7f8      	b.n	800bda6 <__ascii_mbtowc+0x16>

0800bdb4 <__malloc_lock>:
 800bdb4:	4801      	ldr	r0, [pc, #4]	; (800bdbc <__malloc_lock+0x8>)
 800bdb6:	f7ff b8ce 	b.w	800af56 <__retarget_lock_acquire_recursive>
 800bdba:	bf00      	nop
 800bdbc:	2001089c 	.word	0x2001089c

0800bdc0 <__malloc_unlock>:
 800bdc0:	4801      	ldr	r0, [pc, #4]	; (800bdc8 <__malloc_unlock+0x8>)
 800bdc2:	f7ff b8c9 	b.w	800af58 <__retarget_lock_release_recursive>
 800bdc6:	bf00      	nop
 800bdc8:	2001089c 	.word	0x2001089c

0800bdcc <_read_r>:
 800bdcc:	b538      	push	{r3, r4, r5, lr}
 800bdce:	4d07      	ldr	r5, [pc, #28]	; (800bdec <_read_r+0x20>)
 800bdd0:	4604      	mov	r4, r0
 800bdd2:	4608      	mov	r0, r1
 800bdd4:	4611      	mov	r1, r2
 800bdd6:	2200      	movs	r2, #0
 800bdd8:	602a      	str	r2, [r5, #0]
 800bdda:	461a      	mov	r2, r3
 800bddc:	f7f5 fcf4 	bl	80017c8 <_read>
 800bde0:	1c43      	adds	r3, r0, #1
 800bde2:	d102      	bne.n	800bdea <_read_r+0x1e>
 800bde4:	682b      	ldr	r3, [r5, #0]
 800bde6:	b103      	cbz	r3, 800bdea <_read_r+0x1e>
 800bde8:	6023      	str	r3, [r4, #0]
 800bdea:	bd38      	pop	{r3, r4, r5, pc}
 800bdec:	200108a8 	.word	0x200108a8

0800bdf0 <__ascii_wctomb>:
 800bdf0:	b149      	cbz	r1, 800be06 <__ascii_wctomb+0x16>
 800bdf2:	2aff      	cmp	r2, #255	; 0xff
 800bdf4:	bf85      	ittet	hi
 800bdf6:	238a      	movhi	r3, #138	; 0x8a
 800bdf8:	6003      	strhi	r3, [r0, #0]
 800bdfa:	700a      	strbls	r2, [r1, #0]
 800bdfc:	f04f 30ff 	movhi.w	r0, #4294967295
 800be00:	bf98      	it	ls
 800be02:	2001      	movls	r0, #1
 800be04:	4770      	bx	lr
 800be06:	4608      	mov	r0, r1
 800be08:	4770      	bx	lr

0800be0a <abort>:
 800be0a:	b508      	push	{r3, lr}
 800be0c:	2006      	movs	r0, #6
 800be0e:	f000 f82b 	bl	800be68 <raise>
 800be12:	2001      	movs	r0, #1
 800be14:	f7f5 fcd2 	bl	80017bc <_exit>

0800be18 <_raise_r>:
 800be18:	291f      	cmp	r1, #31
 800be1a:	b538      	push	{r3, r4, r5, lr}
 800be1c:	4604      	mov	r4, r0
 800be1e:	460d      	mov	r5, r1
 800be20:	d904      	bls.n	800be2c <_raise_r+0x14>
 800be22:	2316      	movs	r3, #22
 800be24:	6003      	str	r3, [r0, #0]
 800be26:	f04f 30ff 	mov.w	r0, #4294967295
 800be2a:	bd38      	pop	{r3, r4, r5, pc}
 800be2c:	6c42      	ldr	r2, [r0, #68]	; 0x44
 800be2e:	b112      	cbz	r2, 800be36 <_raise_r+0x1e>
 800be30:	f852 3021 	ldr.w	r3, [r2, r1, lsl #2]
 800be34:	b94b      	cbnz	r3, 800be4a <_raise_r+0x32>
 800be36:	4620      	mov	r0, r4
 800be38:	f000 f830 	bl	800be9c <_getpid_r>
 800be3c:	462a      	mov	r2, r5
 800be3e:	4601      	mov	r1, r0
 800be40:	4620      	mov	r0, r4
 800be42:	e8bd 4038 	ldmia.w	sp!, {r3, r4, r5, lr}
 800be46:	f000 b817 	b.w	800be78 <_kill_r>
 800be4a:	2b01      	cmp	r3, #1
 800be4c:	d00a      	beq.n	800be64 <_raise_r+0x4c>
 800be4e:	1c59      	adds	r1, r3, #1
 800be50:	d103      	bne.n	800be5a <_raise_r+0x42>
 800be52:	2316      	movs	r3, #22
 800be54:	6003      	str	r3, [r0, #0]
 800be56:	2001      	movs	r0, #1
 800be58:	e7e7      	b.n	800be2a <_raise_r+0x12>
 800be5a:	2400      	movs	r4, #0
 800be5c:	f842 4025 	str.w	r4, [r2, r5, lsl #2]
 800be60:	4628      	mov	r0, r5
 800be62:	4798      	blx	r3
 800be64:	2000      	movs	r0, #0
 800be66:	e7e0      	b.n	800be2a <_raise_r+0x12>

0800be68 <raise>:
 800be68:	4b02      	ldr	r3, [pc, #8]	; (800be74 <raise+0xc>)
 800be6a:	4601      	mov	r1, r0
 800be6c:	6818      	ldr	r0, [r3, #0]
 800be6e:	f7ff bfd3 	b.w	800be18 <_raise_r>
 800be72:	bf00      	nop
 800be74:	20000030 	.word	0x20000030

0800be78 <_kill_r>:
 800be78:	b538      	push	{r3, r4, r5, lr}
 800be7a:	4d07      	ldr	r5, [pc, #28]	; (800be98 <_kill_r+0x20>)
 800be7c:	2300      	movs	r3, #0
 800be7e:	4604      	mov	r4, r0
 800be80:	4608      	mov	r0, r1
 800be82:	4611      	mov	r1, r2
 800be84:	602b      	str	r3, [r5, #0]
 800be86:	f7f5 fc8f 	bl	80017a8 <_kill>
 800be8a:	1c43      	adds	r3, r0, #1
 800be8c:	d102      	bne.n	800be94 <_kill_r+0x1c>
 800be8e:	682b      	ldr	r3, [r5, #0]
 800be90:	b103      	cbz	r3, 800be94 <_kill_r+0x1c>
 800be92:	6023      	str	r3, [r4, #0]
 800be94:	bd38      	pop	{r3, r4, r5, pc}
 800be96:	bf00      	nop
 800be98:	200108a8 	.word	0x200108a8

0800be9c <_getpid_r>:
 800be9c:	f7f5 bc82 	b.w	80017a4 <_getpid>

0800bea0 <_init>:
 800bea0:	b5f8      	push	{r3, r4, r5, r6, r7, lr}
 800bea2:	bf00      	nop
 800bea4:	bcf8      	pop	{r3, r4, r5, r6, r7}
 800bea6:	bc08      	pop	{r3}
 800bea8:	469e      	mov	lr, r3
 800beaa:	4770      	bx	lr

0800beac <_fini>:
 800beac:	b5f8      	push	{r3, r4, r5, r6, r7, lr}
 800beae:	bf00      	nop
 800beb0:	bcf8      	pop	{r3, r4, r5, r6, r7}
 800beb2:	bc08      	pop	{r3}
 800beb4:	469e      	mov	lr, r3
 800beb6:	4770      	bx	lr
